Archive member included because of file (symbol)

E:/Olimex/Compilers/Microchip/MPLAB C32 1_11B/bin/../lib/gcc/pic32mx/3.4.4/../../../../pic32mx/lib/speed\libc.a(setjmp.o)
                              build/OLIMEX/production/_ext/2012694729/MMBasic.o (setjmp)
E:/Olimex/Compilers/Microchip/MPLAB C32 1_11B/bin/../lib/gcc/pic32mx/3.4.4/../../../../pic32mx/lib/speed\libc.a(memcmp.o)
                              build/OLIMEX/production/_ext/2012694729/Files.o (memcmp)
E:/Olimex/Compilers/Microchip/MPLAB C32 1_11B/bin/../lib/gcc/pic32mx/3.4.4/../../../../pic32mx/lib/speed\libc.a(memcpy.o)
                              build/OLIMEX/production/_ext/2012694729/MMBasic.o (memcpy)
E:/Olimex/Compilers/Microchip/MPLAB C32 1_11B/bin/../lib/gcc/pic32mx/3.4.4/../../../../pic32mx/lib/speed\libc.a(memset.o)
                              build/OLIMEX/production/_ext/2012694729/Custom.o (memset)
E:/Olimex/Compilers/Microchip/MPLAB C32 1_11B/bin/../lib/gcc/pic32mx/3.4.4/../../../../pic32mx/lib/speed\libc.a(strcmp.o)
                              build/OLIMEX/production/_ext/2012694729/Files.o (strcmp)
E:/Olimex/Compilers/Microchip/MPLAB C32 1_11B/bin/../lib/gcc/pic32mx/3.4.4/../../../../pic32mx/lib/speed\libc.a(strcpy.o)
                              build/OLIMEX/production/_ext/2012694729/Commands.o (strcpy)
E:/Olimex/Compilers/Microchip/MPLAB C32 1_11B/bin/../lib/gcc/pic32mx/3.4.4/../../../../pic32mx/lib/speed\libc.a(strlen.o)
                              build/OLIMEX/production/_ext/2012694729/Commands.o (strlen)
E:/Olimex/Compilers/Microchip/MPLAB C32 1_11B/bin/../lib/gcc/pic32mx/3.4.4/../../../../pic32mx/lib/speed\libc.a(general-exception.o)
                              E:/Olimex/Compilers/Microchip/MPLAB C32 1_11B/bin/../lib/gcc/pic32mx/3.4.4/../../../../pic32mx/lib/speed/crt0.o (_general_exception_context)
E:/Olimex/Compilers/Microchip/MPLAB C32 1_11B/bin/../lib/gcc/pic32mx/3.4.4/../../../../pic32mx/lib/speed\libc.a(strcat.o)
                              build/OLIMEX/production/_ext/2012694729/Commands.o (strcat)
E:/Olimex/Compilers/Microchip/MPLAB C32 1_11B/bin/../lib/gcc/pic32mx/3.4.4/../../../../pic32mx/lib/speed\libc.a(strncmp.o)
                              build/OLIMEX/production/_ext/2012694729/Editor.o (strncmp)
E:/Olimex/Compilers/Microchip/MPLAB C32 1_11B/bin/../lib/gcc/pic32mx/3.4.4/../../../../pic32mx/lib/speed\libc.a(strncpy.o)
                              build/OLIMEX/production/_ext/2012694729/Files.o (strncpy)
E:/Olimex/Compilers/Microchip/MPLAB C32 1_11B/bin/../lib/gcc/pic32mx/3.4.4/../../../../pic32mx/lib/speed\libc.a(strchr.o)
                              build/OLIMEX/production/_ext/2012694729/Commands.o (strchr)
E:/Olimex/Compilers/Microchip/MPLAB C32 1_11B/bin/../lib/gcc/pic32mx/3.4.4/../../../../pic32mx/lib/speed\libc.a(memmove.o)
                              build/OLIMEX/production/_ext/2012694729/Commands.o (memmove)
E:/Olimex/Compilers/Microchip/MPLAB C32 1_11B/bin/../lib/gcc/pic32mx/3.4.4/../../../../pic32mx/lib/speed\libc.a(exit.o)
                              E:/Olimex/Compilers/Microchip/MPLAB C32 1_11B/bin/../lib/gcc/pic32mx/3.4.4/../../../../pic32mx/lib/speed/crt0.o (exit)
E:/Olimex/Compilers/Microchip/MPLAB C32 1_11B/bin/../lib/gcc/pic32mx/3.4.4/../../../../pic32mx/lib/speed\libc.a(ctype.o)
                              build/OLIMEX/production/_ext/2012694729/Commands.o (_ctype)
E:/Olimex/Compilers/Microchip/MPLAB C32 1_11B/bin/../lib/gcc/pic32mx/3.4.4/../../../../pic32mx/lib/speed\libc.a(ctypef.o)
                              build/OLIMEX/production/_ext/2012694729/Functions.o (tolower)
E:/Olimex/Compilers/Microchip/MPLAB C32 1_11B/bin/../lib/gcc/pic32mx/3.4.4/../../../../pic32mx/lib/speed\libc.a(malloc.o)
                              build/OLIMEX/production/_ext/2012694729/Commands.o (free)
E:/Olimex/Compilers/Microchip/MPLAB C32 1_11B/bin/../lib/gcc/pic32mx/3.4.4/../../../../pic32mx/lib/speed\libc.a(malloc_calloc.o)
                              build/OLIMEX/production/_ext/2012694729/MMBasic.o (calloc)
E:/Olimex/Compilers/Microchip/MPLAB C32 1_11B/bin/../lib/gcc/pic32mx/3.4.4/../../../../pic32mx/lib/speed\libc.a(rand.o)
                              build/OLIMEX/production/_ext/2012694729/Functions.o (rand)
E:/Olimex/Compilers/Microchip/MPLAB C32 1_11B/bin/../lib/gcc/pic32mx/3.4.4/../../../../pic32mx/lib/speed\libc.a(errno.o)
                              E:/Olimex/Compilers/Microchip/MPLAB C32 1_11B/bin/../lib/gcc/pic32mx/3.4.4/../../../../pic32mx/lib/speed\libc.a(malloc.o) (errno)
E:/Olimex/Compilers/Microchip/MPLAB C32 1_11B/bin/../lib/gcc/pic32mx/3.4.4/../../../../pic32mx/lib/speed\libc.a(strtol.o)
                              build/OLIMEX/production/_ext/2012694729/Commands.o (strtol)
E:/Olimex/Compilers/Microchip/MPLAB C32 1_11B/bin/../lib/gcc/pic32mx/3.4.4/../../../../pic32mx/lib/speed\libc.a(strtod.o)
                              build/OLIMEX/production/_ext/2012694729/Commands.o (strtod)
E:/Olimex/Compilers/Microchip/MPLAB C32 1_11B/bin/../lib/gcc/pic32mx/3.4.4/../../../../pic32mx/lib/speed\libc.a(sprintf.o)
                              build/OLIMEX/production/_ext/2012694729/Commands.o (sprintf)
E:/Olimex/Compilers/Microchip/MPLAB C32 1_11B/bin/../lib/gcc/pic32mx/3.4.4/../../../../pic32mx/lib/speed\libc.a(__vsnprintf.o)
                              E:/Olimex/Compilers/Microchip/MPLAB C32 1_11B/bin/../lib/gcc/pic32mx/3.4.4/../../../../pic32mx/lib/speed\libc.a(sprintf.o) (__vsnprintf)
E:/Olimex/Compilers/Microchip/MPLAB C32 1_11B/bin/../lib/gcc/pic32mx/3.4.4/../../../../pic32mx/lib/speed\libc.a(isprintf.o)
                              build/OLIMEX/production/_ext/2012694729/Commands.o (_isprintf)
E:/Olimex/Compilers/Microchip/MPLAB C32 1_11B/bin/../lib/gcc/pic32mx/3.4.4/../../../../pic32mx/lib/speed\libc.a(__ivsnprintf.o)
                              E:/Olimex/Compilers/Microchip/MPLAB C32 1_11B/bin/../lib/gcc/pic32mx/3.4.4/../../../../pic32mx/lib/speed\libc.a(isprintf.o) (__ivsnprintf)
E:/Olimex/Compilers/Microchip/MPLAB C32 1_11B/bin/../lib/gcc/pic32mx/3.4.4/../../../../pic32mx/lib/speed\libc.a(stubs.o)
                              E:/Olimex/Compilers/Microchip/MPLAB C32 1_11B/bin/../lib/gcc/pic32mx/3.4.4/../../../../pic32mx/lib/speed\libc.a(rand.o) (_libc_private_storage)
E:/Olimex/Compilers/Microchip/MPLAB C32 1_11B/bin/../lib/gcc/pic32mx/3.4.4/../../../../pic32mx/lib/speed\libc.a(sbrk.o)
                              E:/Olimex/Compilers/Microchip/MPLAB C32 1_11B/bin/../lib/gcc/pic32mx/3.4.4/../../../../pic32mx/lib/speed\libc.a(malloc.o) (getpagesize)
E:/Olimex/Compilers/Microchip/MPLAB C32 1_11B/bin/../lib/gcc/pic32mx/3.4.4/../../../../pic32mx/lib/speed\libc.a(default-bootstrap-exception-handler.o)
                              E:/Olimex/Compilers/Microchip/MPLAB C32 1_11B/bin/../lib/gcc/pic32mx/3.4.4/../../../../pic32mx/lib/speed/crt0.o (_bootstrap_exception_handler)
E:/Olimex/Compilers/Microchip/MPLAB C32 1_11B/bin/../lib/gcc/pic32mx/3.4.4/../../../../pic32mx/lib/speed\libc.a(default-on-reset.o)
                              E:/Olimex/Compilers/Microchip/MPLAB C32 1_11B/bin/../lib/gcc/pic32mx/3.4.4/../../../../pic32mx/lib/speed/crt0.o (_on_reset)
E:/Olimex/Compilers/Microchip/MPLAB C32 1_11B/bin/../lib/gcc/pic32mx/3.4.4/../../../../pic32mx/lib/speed\libc.a(default-on-bootstrap.o)
                              E:/Olimex/Compilers/Microchip/MPLAB C32 1_11B/bin/../lib/gcc/pic32mx/3.4.4/../../../../pic32mx/lib/speed/crt0.o (_on_bootstrap)
E:/Olimex/Compilers/Microchip/MPLAB C32 1_11B/bin/../lib/gcc/pic32mx/3.4.4/../../../../pic32mx/lib/speed\libc.a(default-nmi-handler.o)
                              E:/Olimex/Compilers/Microchip/MPLAB C32 1_11B/bin/../lib/gcc/pic32mx/3.4.4/../../../../pic32mx/lib/speed/crt0.o (_nmi_handler)
E:/Olimex/Compilers/Microchip/MPLAB C32 1_11B/bin/../lib/gcc/pic32mx/3.4.4/../../../../pic32mx/lib/speed\libc.a(_exit.o)
                              E:/Olimex/Compilers/Microchip/MPLAB C32 1_11B/bin/../lib/gcc/pic32mx/3.4.4/../../../../pic32mx/lib/speed\libc.a(exit.o) (_exit)
E:/Olimex/Compilers/Microchip/MPLAB C32 1_11B/bin/../lib/gcc/pic32mx/3.4.4/../../../../pic32mx/lib/speed\libc.a(_doprnt.o)
                              E:/Olimex/Compilers/Microchip/MPLAB C32 1_11B/bin/../lib/gcc/pic32mx/3.4.4/../../../../pic32mx/lib/speed\libc.a(__vsnprintf.o) (vfprintf)
E:/Olimex/Compilers/Microchip/MPLAB C32 1_11B/bin/../lib/gcc/pic32mx/3.4.4/../../../../pic32mx/lib/speed\libc.a(_iobdata.o)
                              E:/Olimex/Compilers/Microchip/MPLAB C32 1_11B/bin/../lib/gcc/pic32mx/3.4.4/../../../../pic32mx/lib/speed\libc.a(_doprnt.o) (_libc_data)
E:/Olimex/Compilers/Microchip/MPLAB C32 1_11B/bin/../lib/gcc/pic32mx/3.4.4/../../../../pic32mx/lib/speed\libc.a(_iobfuncs.o)
                              E:/Olimex/Compilers/Microchip/MPLAB C32 1_11B/bin/../lib/gcc/pic32mx/3.4.4/../../../../pic32mx/lib/speed\libc.a(_iobdata.o) (_filbuf_simple)
E:/Olimex/Compilers/Microchip/MPLAB C32 1_11B/bin/../lib/gcc/pic32mx/3.4.4/../../../../pic32mx/lib/speed\libc.a(_iobstring.o)
                              E:/Olimex/Compilers/Microchip/MPLAB C32 1_11B/bin/../lib/gcc/pic32mx/3.4.4/../../../../pic32mx/lib/speed\libc.a(__vsnprintf.o) (_io_strfuncs)
E:/Olimex/Compilers/Microchip/MPLAB C32 1_11B/bin/../lib/gcc/pic32mx/3.4.4/../../../../pic32mx/lib/speed\libc.a(fputc.o)
                              E:/Olimex/Compilers/Microchip/MPLAB C32 1_11B/bin/../lib/gcc/pic32mx/3.4.4/../../../../pic32mx/lib/speed\libc.a(_doprnt.o) (fputc)
E:/Olimex/Compilers/Microchip/MPLAB C32 1_11B/bin/../lib/gcc/pic32mx/3.4.4/../../../../pic32mx/lib/speed\libc.a(_idoprnt.o)
                              E:/Olimex/Compilers/Microchip/MPLAB C32 1_11B/bin/../lib/gcc/pic32mx/3.4.4/../../../../pic32mx/lib/speed\libc.a(__ivsnprintf.o) (_ivfprintf)
E:/Olimex/Compilers/Microchip/MPLAB C32 1_11B/bin/../lib/gcc/pic32mx/3.4.4/../../../../pic32mx/lib/speed\libc.a(_mon_getc.o)
                              E:/Olimex/Compilers/Microchip/MPLAB C32 1_11B/bin/../lib/gcc/pic32mx/3.4.4/../../../../pic32mx/lib/speed\libc.a(_iobfuncs.o) (_mon_getc)
E:/Olimex/Compilers/Microchip/MPLAB C32 1_11B/bin/../lib/gcc/pic32mx/3.4.4/../../../../pic32mx/lib/speed\libc.a(_mon_write.o)
                              E:/Olimex/Compilers/Microchip/MPLAB C32 1_11B/bin/../lib/gcc/pic32mx/3.4.4/../../../../pic32mx/lib/speed\libc.a(_iobfuncs.o) (_mon_write)
E:/Olimex/Compilers/Microchip/MPLAB C32 1_11B/bin/../lib/gcc/pic32mx/3.4.4/../../../../pic32mx/lib/speed\libc.a(fullexit.o)
                              E:/Olimex/Compilers/Microchip/MPLAB C32 1_11B/bin/../lib/gcc/pic32mx/3.4.4/../../../../pic32mx/lib/speed\libc.a(_doprnt.o) (__exfun_mx)
E:/Olimex/Compilers/Microchip/MPLAB C32 1_11B/bin/../lib/gcc/pic32mx/3.4.4/../../../../pic32mx/lib/speed\libc.a(_mon_putc.o)
                              E:/Olimex/Compilers/Microchip/MPLAB C32 1_11B/bin/../lib/gcc/pic32mx/3.4.4/../../../../pic32mx/lib/speed\libc.a(_mon_write.o) (_mon_putc)
E:/Olimex/Compilers/Microchip/MPLAB C32 1_11B/bin/../lib/gcc/pic32mx/3.4.4/../../../../pic32mx/lib/speed\libm.a(mod32.o)
                              E:/Olimex/Compilers/Microchip/MPLAB C32 1_11B/bin/../lib/gcc/pic32mx/3.4.4/../../../../pic32mx/lib/speed\libc.a(_doprnt.o) (modf)
E:/Olimex/Compilers/Microchip/MPLAB C32 1_11B/bin/../lib/gcc/pic32mx/3.4.4/../../../../pic32mx/lib/speed\libm.a(w_pow.o)
                              build/OLIMEX/production/_ext/2012694729/Graphics.o (pow)
E:/Olimex/Compilers/Microchip/MPLAB C32 1_11B/bin/../lib/gcc/pic32mx/3.4.4/../../../../pic32mx/lib/speed\libm.a(fparc32.o)
                              build/OLIMEX/production/_ext/2012694729/Functions.o (atanf)
E:/Olimex/Compilers/Microchip/MPLAB C32 1_11B/bin/../lib/gcc/pic32mx/3.4.4/../../../../pic32mx/lib/speed\libm.a(fpfloo32.o)
                              build/OLIMEX/production/_ext/2012694729/Functions.o (floorf)
E:/Olimex/Compilers/Microchip/MPLAB C32 1_11B/bin/../lib/gcc/pic32mx/3.4.4/../../../../pic32mx/lib/speed\libm.a(dp32.o)
                              build/OLIMEX/production/_ext/2012694729/MMBasic.o (dpsub)
E:/Olimex/Compilers/Microchip/MPLAB C32 1_11B/bin/../lib/gcc/pic32mx/3.4.4/../../../../pic32mx/lib/speed\libm.a(fpsqrt32.o)
                              E:/Olimex/Compilers/Microchip/MPLAB C32 1_11B/bin/../lib/gcc/pic32mx/3.4.4/../../../../pic32mx/lib/speed\libm.a(fparc32.o) (fpexsqrt)
E:/Olimex/Compilers/Microchip/MPLAB C32 1_11B/bin/../lib/gcc/pic32mx/3.4.4/../../../../pic32mx/lib/speed\libm.a(w_sqrtf.o)
                              build/OLIMEX/production/_ext/2012694729/Functions.o (sqrtf)
E:/Olimex/Compilers/Microchip/MPLAB C32 1_11B/bin/../lib/gcc/pic32mx/3.4.4/../../../../pic32mx/lib/speed\libm.a(fp32.o)
                              build/OLIMEX/production/_ext/2012694729/Operators.o (fpsub)
E:/Olimex/Compilers/Microchip/MPLAB C32 1_11B/bin/../lib/gcc/pic32mx/3.4.4/../../../../pic32mx/lib/speed\libm.a(w_logf.o)
                              build/OLIMEX/production/_ext/2012694729/Functions.o (logf)
E:/Olimex/Compilers/Microchip/MPLAB C32 1_11B/bin/../lib/gcc/pic32mx/3.4.4/../../../../pic32mx/lib/speed\libm.a(w_expf.o)
                              build/OLIMEX/production/_ext/2012694729/Functions.o (expf)
E:/Olimex/Compilers/Microchip/MPLAB C32 1_11B/bin/../lib/gcc/pic32mx/3.4.4/../../../../pic32mx/lib/speed\libm.a(fptan32.o)
                              build/OLIMEX/production/_ext/2012694729/Functions.o (tanf)
E:/Olimex/Compilers/Microchip/MPLAB C32 1_11B/bin/../lib/gcc/pic32mx/3.4.4/../../../../pic32mx/lib/speed\libm.a(fpcos32.o)
                              build/OLIMEX/production/_ext/2012694729/Functions.o (cosf)
E:/Olimex/Compilers/Microchip/MPLAB C32 1_11B/bin/../lib/gcc/pic32mx/3.4.4/../../../../pic32mx/lib/speed\libm.a(fpsin32.o)
                              build/OLIMEX/production/_ext/2012694729/Functions.o (sinf)
E:/Olimex/Compilers/Microchip/MPLAB C32 1_11B/bin/../lib/gcc/pic32mx/3.4.4/../../../../pic32mx/lib/speed\libm.a(fpreduct32.o)
                              E:/Olimex/Compilers/Microchip/MPLAB C32 1_11B/bin/../lib/gcc/pic32mx/3.4.4/../../../../pic32mx/lib/speed\libm.a(fptan32.o) (fpreduct)
E:/Olimex/Compilers/Microchip/MPLAB C32 1_11B/bin/../lib/gcc/pic32mx/3.4.4/../../../../pic32mx/lib/speed\libm.a(sincof32.o)
                              E:/Olimex/Compilers/Microchip/MPLAB C32 1_11B/bin/../lib/gcc/pic32mx/3.4.4/../../../../pic32mx/lib/speed\libm.a(fpcos32.o) (_sincof)
E:/Olimex/Compilers/Microchip/MPLAB C32 1_11B/bin/../lib/gcc/pic32mx/3.4.4/../../../../pic32mx/lib/speed\libm.a(s_lib_ver.o)
                              E:/Olimex/Compilers/Microchip/MPLAB C32 1_11B/bin/../lib/gcc/pic32mx/3.4.4/../../../../pic32mx/lib/speed\libm.a(w_pow.o) (math_errhandling)
E:/Olimex/Compilers/Microchip/MPLAB C32 1_11B/bin/../lib/gcc/pic32mx/3.4.4/../../../../pic32mx/lib/speed\libm.a(pow32.o)
                              E:/Olimex/Compilers/Microchip/MPLAB C32 1_11B/bin/../lib/gcc/pic32mx/3.4.4/../../../../pic32mx/lib/speed\libm.a(w_pow.o) (__mchp_pow)
E:/Olimex/Compilers/Microchip/MPLAB C32 1_11B/bin/../lib/gcc/pic32mx/3.4.4/../../../../pic32mx/lib/speed\libm.a(log32.o)
                              E:/Olimex/Compilers/Microchip/MPLAB C32 1_11B/bin/../lib/gcc/pic32mx/3.4.4/../../../../pic32mx/lib/speed\libm.a(pow32.o) (exlog)
E:/Olimex/Compilers/Microchip/MPLAB C32 1_11B/bin/../lib/gcc/pic32mx/3.4.4/../../../../pic32mx/lib/speed\libm.a(func32.o)
                              E:/Olimex/Compilers/Microchip/MPLAB C32 1_11B/bin/../lib/gcc/pic32mx/3.4.4/../../../../pic32mx/lib/speed\libm.a(log32.o) (sigmax)
E:/Olimex/Compilers/Microchip/MPLAB C32 1_11B/bin/../lib/gcc/pic32mx/3.4.4/../../../../pic32mx/lib/speed\libm.a(fplog32.o)
                              E:/Olimex/Compilers/Microchip/MPLAB C32 1_11B/bin/../lib/gcc/pic32mx/3.4.4/../../../../pic32mx/lib/speed\libm.a(w_logf.o) (__mchp_logf)
E:/Olimex/Compilers/Microchip/MPLAB C32 1_11B/bin/../lib/gcc/pic32mx/3.4.4/../../../../pic32mx/lib/speed\libm.a(fpexp32.o)
                              E:/Olimex/Compilers/Microchip/MPLAB C32 1_11B/bin/../lib/gcc/pic32mx/3.4.4/../../../../pic32mx/lib/speed\libm.a(w_expf.o) (__mchp_expf)
E:/Olimex/Compilers/Microchip/MPLAB C32 1_11B/bin/../lib/gcc/pic32mx/3.4.4/../../../../pic32mx/lib/speed\libm.a(exp32.o)
                              E:/Olimex/Compilers/Microchip/MPLAB C32 1_11B/bin/../lib/gcc/pic32mx/3.4.4/../../../../pic32mx/lib/speed\libm.a(pow32.o) (exexp)
E:/Olimex/Compilers/Microchip/MPLAB C32 1_11B/bin/../lib/gcc/pic32mx/3.4.4/../../../../pic32mx/lib/speed\libe.a(_strtod.o)
                              E:/Olimex/Compilers/Microchip/MPLAB C32 1_11B/bin/../lib/gcc/pic32mx/3.4.4/../../../../pic32mx/lib/speed\libc.a(strtod.o) (__strtod)
E:/Olimex/Compilers/Microchip/MPLAB C32 1_11B/bin/../lib/gcc/pic32mx/3.4.4/../../../../pic32mx/lib/speed\libe.a(_ldexp.o)
                              E:/Olimex/Compilers/Microchip/MPLAB C32 1_11B/bin/../lib/gcc/pic32mx/3.4.4/../../../../pic32mx/lib/speed\libe.a(_strtod.o) (__ldexp)
E:/Olimex/Compilers/Microchip/MPLAB C32 1_11B/bin/../lib/gcc/pic32mx/3.4.4/../../../../pic32mx/lib/speed\libmchp_peripheral.a(read_core_timer_lib.o)
                              build/OLIMEX/production/_ext/2012694729/Custom.o (ReadCoreTimer)
E:/Olimex/Compilers/Microchip/MPLAB C32 1_11B/bin/../lib/gcc/pic32mx/3.4.4/../../../../pic32mx/lib/speed\libmchp_peripheral.a(write_core_timer_lib.o)
                              build/OLIMEX/production/_ext/2012694729/Custom.o (WriteCoreTimer)
E:/Olimex/Compilers/Microchip/MPLAB C32 1_11B/bin/../lib/gcc/pic32mx/3.4.4/../../../../pic32mx/lib/speed\libmchp_peripheral_32MX795F512H.a(soft_reset_lib.o)
                              build/OLIMEX/production/_ext/1728301206/Main.o (SoftReset)
E:/Olimex/Compilers/Microchip/MPLAB C32 1_11B/bin/../lib/gcc/pic32mx/3.4.4/../../../../pic32mx/lib/speed\libmchp_peripheral_32MX795F512H.a(pcache.o)
                              build/OLIMEX/production/_ext/1728301206/Main.o (CheKseg0CacheOn)
E:/Olimex/Compilers/Microchip/MPLAB C32 1_11B/bin/../lib/gcc/pic32mx/3.4.4/../../../../pic32mx/lib/speed\libmchp_peripheral_32MX795F512H.a(int_enable_interrupts_lib.o)
                              build/OLIMEX/production/_ext/2012694729/External.o (INTEnableInterrupts)
E:/Olimex/Compilers/Microchip/MPLAB C32 1_11B/bin/../lib/gcc/pic32mx/3.4.4/../../../../pic32mx/lib/speed\libmchp_peripheral_32MX795F512H.a(int_disable_interrupts_lib.o)
                              build/OLIMEX/production/_ext/2012694729/External.o (INTDisableInterrupts)
E:/Olimex/Compilers/Microchip/MPLAB C32 1_11B/bin/../lib/gcc/pic32mx/3.4.4/../../../../pic32mx/lib/speed\libmchp_peripheral_32MX795F512H.a(int_restore_interrupts_lib.o)
                              build/OLIMEX/production/_ext/1728301206/Main.o (INTRestoreInterrupts)
E:/Olimex/Compilers/Microchip/MPLAB C32 1_11B/bin/../lib/gcc/pic32mx/3.4.4/../../../../pic32mx/lib/speed\libmchp_peripheral_32MX795F512H.a(int_enable_mv_int_lib.o)
                              build/OLIMEX/production/_ext/1728301206/Main.o (INTEnableSystemMultiVectoredInt)
E:/Olimex/Compilers/Microchip/MPLAB C32 1_11B/bin/../lib/gcc/pic32mx/3.4.4/../../../../pic32mx/lib/speed\libmchp_peripheral_32MX795F512H.a(int_tbl_lib.o)
                              build/OLIMEX/production/_ext/2129892895/RTC.o (INTClearFlag)
E:/Olimex/Compilers/Microchip/MPLAB C32 1_11B/bin/../lib/gcc/pic32mx/3.4.4/../../../../pic32mx/lib/speed\libmchp_peripheral_32MX795F512H.a(rtcc_alarm_disable_lib.o)
                              build/OLIMEX/production/_ext/2129892895/RTC.o (RtccAlarmDisable)
E:/Olimex/Compilers/Microchip/MPLAB C32 1_11B/bin/../lib/gcc/pic32mx/3.4.4/../../../../pic32mx/lib/speed\libmchp_peripheral_32MX795F512H.a(rtcc_alarm_enable_lib.o)
                              build/OLIMEX/production/_ext/2129892895/RTC.o (RtccAlarmEnable)
E:/Olimex/Compilers/Microchip/MPLAB C32 1_11B/bin/../lib/gcc/pic32mx/3.4.4/../../../../pic32mx/lib/speed\libmchp_peripheral_32MX795F512H.a(rtcc_chime_enable_lib.o)
                              build/OLIMEX/production/_ext/2129892895/RTC.o (RtccChimeEnable)
E:/Olimex/Compilers/Microchip/MPLAB C32 1_11B/bin/../lib/gcc/pic32mx/3.4.4/../../../../pic32mx/lib/speed\libmchp_peripheral_32MX795F512H.a(rtcc_init_lib.o)
                              build/OLIMEX/production/_ext/1728301206/Main.o (RtccInit)
E:/Olimex/Compilers/Microchip/MPLAB C32 1_11B/bin/../lib/gcc/pic32mx/3.4.4/../../../../pic32mx/lib/speed\libmchp_peripheral_32MX795F512H.a(rtcc_set_alarm_rpt_count_lib.o)
                              build/OLIMEX/production/_ext/2129892895/RTC.o (RtccSetAlarmRptCount)
E:/Olimex/Compilers/Microchip/MPLAB C32 1_11B/bin/../lib/gcc/pic32mx/3.4.4/../../../../pic32mx/lib/speed\libmchp_peripheral_32MX795F512H.a(rtcc_set_alarm_rpt_lib.o)
                              build/OLIMEX/production/_ext/2129892895/RTC.o (RtccSetAlarmRpt)
E:/Olimex/Compilers/Microchip/MPLAB C32 1_11B/bin/../lib/gcc/pic32mx/3.4.4/../../../../pic32mx/lib/speed\libmchp_peripheral_32MX795F512H.a(rtcc_set_alarm_time_date_lib.o)
                              build/OLIMEX/production/_ext/2129892895/RTC.o (RtccSetAlarmTimeDate)
E:/Olimex/Compilers/Microchip/MPLAB C32 1_11B/bin/../lib/gcc/pic32mx/3.4.4/../../../../pic32mx/lib/speed\libmchp_peripheral_32MX795F512H.a(rtcc_set_time_date_lib.o)
                              build/OLIMEX/production/_ext/2129892895/RTC.o (RtccSetTimeDate)
E:/Olimex/Compilers/Microchip/MPLAB C32 1_11B/bin/../lib/gcc/pic32mx/3.4.4/../../../../pic32mx/lib/speed\libmchp_peripheral_32MX795F512H.a(rtcc_open_lib.o)
                              build/OLIMEX/production/_ext/2129892895/RTC.o (RtccOpen)
E:/Olimex/Compilers/Microchip/MPLAB C32 1_11B/bin/../lib/gcc/pic32mx/3.4.4/../../../../pic32mx/lib/speed\libmchp_peripheral_32MX795F512H.a(spi_chn_close_lib.o)
                              build/OLIMEX/production/_ext/2129892895/RTC.o (SpiChnClose)
E:/Olimex/Compilers/Microchip/MPLAB C32 1_11B/bin/../lib/gcc/pic32mx/3.4.4/../../../../pic32mx/lib/speed\libmchp_peripheral_32MX795F512H.a(spi_chn_getc_lib.o)
                              build/OLIMEX/production/_ext/2012694729/Misc.o (SpiChnGetC)
E:/Olimex/Compilers/Microchip/MPLAB C32 1_11B/bin/../lib/gcc/pic32mx/3.4.4/../../../../pic32mx/lib/speed\libmchp_peripheral_32MX795F512H.a(spi_chn_open_lib.o)
                              build/OLIMEX/production/_ext/779736424/SD-SPI.o (SpiChnOpen)
E:/Olimex/Compilers/Microchip/MPLAB C32 1_11B/bin/../lib/gcc/pic32mx/3.4.4/../../../../pic32mx/lib/speed\libmchp_peripheral_32MX795F512H.a(spi_chn_putc_lib.o)
                              build/OLIMEX/production/_ext/2012694729/Misc.o (SpiChnPutC)
E:/Olimex/Compilers/Microchip/MPLAB C32 1_11B/bin/../lib/gcc/pic32mx/3.4.4/../../../../pic32mx/lib/speed\libmchp_peripheral_32MX795F512H.a(spi_io_tbl_libp.o)
                              E:/Olimex/Compilers/Microchip/MPLAB C32 1_11B/bin/../lib/gcc/pic32mx/3.4.4/../../../../pic32mx/lib/speed\libmchp_peripheral_32MX795F512H.a(spi_chn_close_lib.o) (_SpiIoTbl)
E:/Olimex/Compilers/Microchip/MPLAB C32 1_11B/bin/../lib/gcc/pic32mx/3.4.4/../../../../pic32mx/lib/speed\libmchp_peripheral_32MX795F512H.a(spi_map_tbl_libp.o)
                              E:/Olimex/Compilers/Microchip/MPLAB C32 1_11B/bin/../lib/gcc/pic32mx/3.4.4/../../../../pic32mx/lib/speed\libmchp_peripheral_32MX795F512H.a(spi_chn_close_lib.o) (_SpiMapTbl)
E:/Olimex/Compilers/Microchip/MPLAB C32 1_11B/bin/../lib/gcc/pic32mx/3.4.4/../../../../pic32mx/lib/speed\libmchp_peripheral_32MX795F512H.a(power_sleep_lib.o)
                              build/OLIMEX/production/_ext/2129892895/RTC.o (PowerSaveSleep)
E:/Olimex/Compilers/Microchip/MPLAB C32 1_11B/bin/../lib/gcc/pic32mx/3.4.4/../../../../pic32mx/lib/speed\libmchp_peripheral_32MX795F512H.a(nvm_erase_page_lib.o)
                              build/OLIMEX/production/_ext/2012694729/Files.o (NVMErasePage)
E:/Olimex/Compilers/Microchip/MPLAB C32 1_11B/bin/../lib/gcc/pic32mx/3.4.4/../../../../pic32mx/lib/speed\libmchp_peripheral_32MX795F512H.a(nvm_operation_lib.o)
                              E:/Olimex/Compilers/Microchip/MPLAB C32 1_11B/bin/../lib/gcc/pic32mx/3.4.4/../../../../pic32mx/lib/speed\libmchp_peripheral_32MX795F512H.a(nvm_erase_page_lib.o) (_NVMOperation)
E:/Olimex/Compilers/Microchip/MPLAB C32 1_11B/bin/../lib/gcc/pic32mx/3.4.4/../../../../pic32mx/lib/speed\libmchp_peripheral_32MX795F512H.a(nvm_write_row_lib.o)
                              build/OLIMEX/production/_ext/1728301206/Setup.o (NVMWriteRow)
E:/Olimex/Compilers/Microchip/MPLAB C32 1_11B/bin/../lib/gcc/pic32mx/3.4.4/../../../../pic32mx/lib/speed\libmchp_peripheral_32MX795F512H.a(nvm_write_word_lib.o)
                              build/OLIMEX/production/_ext/2012694729/Files.o (NVMWriteWord)
E:/Olimex/Compilers/Microchip/MPLAB C32 1_11B/bin/../lib/gcc/pic32mx/3.4.4/../../../../pic32mx/lib/speed\libmchp_peripheral_32MX795F512H.a(dma_chn_open_lib.o)
                              build/OLIMEX/production/_ext/1624479370/Video.o (DmaChnOpen)
E:/Olimex/Compilers/Microchip/MPLAB C32 1_11B/bin/../lib/gcc/pic32mx/3.4.4/../../../../pic32mx/lib/speed\libmchp_peripheral_32MX795F512H.a(dma_chn_enable_lib.o)
                              build/OLIMEX/production/_ext/1624479370/Video.o (DmaChnEnable)
E:/Olimex/Compilers/Microchip/MPLAB C32 1_11B/bin/../lib/gcc/pic32mx/3.4.4/../../../../pic32mx/lib/speed\libmchp_peripheral_32MX795F512H.a(dma_chn_set_control_flags_lib.o)
                              build/OLIMEX/production/_ext/1624479370/Video.o (DmaChnSetControlFlags)
E:/Olimex/Compilers/Microchip/MPLAB C32 1_11B/bin/../lib/gcc/pic32mx/3.4.4/../../../../pic32mx/lib/speed\libmchp_peripheral_32MX795F512H.a(dma_chn_write_event_control_flags_lib.o)
                              build/OLIMEX/production/_ext/1624479370/Video.o (DmaChnWriteEventControlFlags)
E:/Olimex/Compilers/Microchip/MPLAB C32 1_11B/bin/../lib/gcc/pic32mx/3.4.4/../../../../pic32mx/lib/speed\libmchp_peripheral_32MX795F512H.a(dma_chn_set_txfer_lib.o)
                              build/OLIMEX/production/_ext/1624479370/Video.o (DmaChnSetTxfer)
E:/Olimex/Compilers/Microchip/MPLAB C32 1_11B/bin/../lib/gcc/pic32mx/3.4.4/../../../../pic32mx/lib/speed\libmchp_peripheral_32MX795F512H.a(dma_reg_map_tbl_lib.o)
                              E:/Olimex/Compilers/Microchip/MPLAB C32 1_11B/bin/../lib/gcc/pic32mx/3.4.4/../../../../pic32mx/lib/speed\libmchp_peripheral_32MX795F512H.a(dma_chn_open_lib.o) (_DmaMapTbl)
E:/Olimex/Compilers/Microchip/MPLAB C32 1_11B/bin/../lib/gcc/pic32mx/3.4.4/../../../../pic32mx/lib/speed\libmchp_peripheral_32MX795F512H.a(port_reset_pins_lib.o)
                              E:/Olimex/Compilers/Microchip/MPLAB C32 1_11B/bin/../lib/gcc/pic32mx/3.4.4/../../../../pic32mx/lib/speed\libmchp_peripheral_32MX795F512H.a(spi_chn_close_lib.o) (PORTResetPins)
E:/Olimex/Compilers/Microchip/MPLAB C32 1_11B/bin/../lib/gcc/pic32mx/3.4.4/../../../../pic32mx/lib/speed\libmchp_peripheral_32MX795F512H.a(port_set_pins_digital_in_lib.o)
                              E:/Olimex/Compilers/Microchip/MPLAB C32 1_11B/bin/../lib/gcc/pic32mx/3.4.4/../../../../pic32mx/lib/speed\libmchp_peripheral_32MX795F512H.a(spi_chn_open_lib.o) (PORTSetPinsDigitalIn)
E:/Olimex/Compilers/Microchip/MPLAB C32 1_11B/bin/../lib/gcc/pic32mx/3.4.4/../../../../pic32mx/lib/speed\libmchp_peripheral_32MX795F512H.a(port_set_pins_digital_out_lib.o)
                              E:/Olimex/Compilers/Microchip/MPLAB C32 1_11B/bin/../lib/gcc/pic32mx/3.4.4/../../../../pic32mx/lib/speed\libmchp_peripheral_32MX795F512H.a(spi_chn_open_lib.o) (PORTSetPinsDigitalOut)
E:/Olimex/Compilers/Microchip/MPLAB C32 1_11B/bin/../lib/gcc/pic32mx/3.4.4/../../../../pic32mx/lib/speed\libmchp_peripheral_32MX795F512H.a(_ports_tbl_libp.o)
                              E:/Olimex/Compilers/Microchip/MPLAB C32 1_11B/bin/../lib/gcc/pic32mx/3.4.4/../../../../pic32mx/lib/speed\libmchp_peripheral_32MX795F512H.a(port_reset_pins_lib.o) (PortRegTbl)
E:/Olimex/Compilers/Microchip/MPLAB C32 1_11B/bin/../lib/gcc/pic32mx/3.4.4/../../../../pic32mx/lib/speed\libmchp_peripheral_32MX795F512H.a(uart_lib.o)
                              build/OLIMEX/production/_ext/1091586137/serial.o (UARTEnable)
E:/Olimex/Compilers/Microchip/MPLAB C32 1_11B/bin/../lib/gcc/pic32mx/3.4.4/../../../../pic32mx/lib/speed\libmchp_peripheral_32MX795F512H.a(I2CByteWasAcknowledged.o)
                              build/OLIMEX/production/_ext/2129892895/RTC.o (I2CByteWasAcknowledged)
E:/Olimex/Compilers/Microchip/MPLAB C32 1_11B/bin/../lib/gcc/pic32mx/3.4.4/../../../../pic32mx/lib/speed\libmchp_peripheral_32MX795F512H.a(I2CConfigure.o)
                              build/OLIMEX/production/_ext/2129892895/RTC.o (I2CConfigure)
E:/Olimex/Compilers/Microchip/MPLAB C32 1_11B/bin/../lib/gcc/pic32mx/3.4.4/../../../../pic32mx/lib/speed\libmchp_peripheral_32MX795F512H.a(I2CEnable.o)
                              build/OLIMEX/production/_ext/2129892895/RTC.o (I2CEnable)
E:/Olimex/Compilers/Microchip/MPLAB C32 1_11B/bin/../lib/gcc/pic32mx/3.4.4/../../../../pic32mx/lib/speed\libmchp_peripheral_32MX795F512H.a(I2CGetByte.o)
                              build/OLIMEX/production/_ext/2129892895/RTC.o (I2CGetByte)
E:/Olimex/Compilers/Microchip/MPLAB C32 1_11B/bin/../lib/gcc/pic32mx/3.4.4/../../../../pic32mx/lib/speed\libmchp_peripheral_32MX795F512H.a(I2CReceivedDataIsAvailable.o)
                              build/OLIMEX/production/_ext/2129892895/RTC.o (I2CReceivedDataIsAvailable)
E:/Olimex/Compilers/Microchip/MPLAB C32 1_11B/bin/../lib/gcc/pic32mx/3.4.4/../../../../pic32mx/lib/speed\libmchp_peripheral_32MX795F512H.a(I2CReceiverEnable.o)
                              build/OLIMEX/production/_ext/2129892895/RTC.o (I2CReceiverEnable)
E:/Olimex/Compilers/Microchip/MPLAB C32 1_11B/bin/../lib/gcc/pic32mx/3.4.4/../../../../pic32mx/lib/speed\libmchp_peripheral_32MX795F512H.a(I2CRepeatStart.o)
                              build/OLIMEX/production/_ext/2129892895/RTC.o (I2CRepeatStart)
E:/Olimex/Compilers/Microchip/MPLAB C32 1_11B/bin/../lib/gcc/pic32mx/3.4.4/../../../../pic32mx/lib/speed\libmchp_peripheral_32MX795F512H.a(I2CSendByte.o)
                              build/OLIMEX/production/_ext/2129892895/RTC.o (I2CSendByte)
E:/Olimex/Compilers/Microchip/MPLAB C32 1_11B/bin/../lib/gcc/pic32mx/3.4.4/../../../../pic32mx/lib/speed\libmchp_peripheral_32MX795F512H.a(I2CSetFrequency.o)
                              build/OLIMEX/production/_ext/2129892895/RTC.o (I2CSetFrequency)
E:/Olimex/Compilers/Microchip/MPLAB C32 1_11B/bin/../lib/gcc/pic32mx/3.4.4/../../../../pic32mx/lib/speed\libmchp_peripheral_32MX795F512H.a(I2CStart.o)
                              build/OLIMEX/production/_ext/2129892895/RTC.o (I2CStart)
E:/Olimex/Compilers/Microchip/MPLAB C32 1_11B/bin/../lib/gcc/pic32mx/3.4.4/../../../../pic32mx/lib/speed\libmchp_peripheral_32MX795F512H.a(I2CStop.o)
                              build/OLIMEX/production/_ext/2129892895/RTC.o (I2CStop)
E:/Olimex/Compilers/Microchip/MPLAB C32 1_11B/bin/../lib/gcc/pic32mx/3.4.4/../../../../pic32mx/lib/speed\libmchp_peripheral_32MX795F512H.a(_rtcc_set_alrm_time_and_date_lib.o)
                              E:/Olimex/Compilers/Microchip/MPLAB C32 1_11B/bin/../lib/gcc/pic32mx/3.4.4/../../../../pic32mx/lib/speed\libmchp_peripheral_32MX795F512H.a(rtcc_set_alarm_time_date_lib.o) (_RtccSetAlrmTimeAndDate)
E:/Olimex/Compilers/Microchip/MPLAB C32 1_11B/bin/../lib/gcc/pic32mx/3.4.4/../../../../pic32mx/lib/speed\libmchp_peripheral_32MX795F512H.a(_rtcc_set_time_and_date_lib.o)
                              E:/Olimex/Compilers/Microchip/MPLAB C32 1_11B/bin/../lib/gcc/pic32mx/3.4.4/../../../../pic32mx/lib/speed\libmchp_peripheral_32MX795F512H.a(rtcc_set_time_date_lib.o) (_RtccSetTimeAndDate)
E:/Olimex/Compilers/Microchip/MPLAB C32 1_11B/bin/../lib/gcc/pic32mx/3.4.4/../../../../pic32mx/lib/speed\libmchp_peripheral_32MX795F512H.a(_rtcc_write_in_alarm_window_lib.o)
                              E:/Olimex/Compilers/Microchip/MPLAB C32 1_11B/bin/../lib/gcc/pic32mx/3.4.4/../../../../pic32mx/lib/speed\libmchp_peripheral_32MX795F512H.a(rtcc_alarm_disable_lib.o) (_RtccWriteInAlarmWindow)
E:/Olimex/Compilers/Microchip/MPLAB C32 1_11B/bin/../lib/gcc/pic32mx/3.4.4/../../../../pic32mx/lib/speed\libmchp_peripheral_32MX795F512H.a(_rtcc_wait_clock_off_lib.o)
                              E:/Olimex/Compilers/Microchip/MPLAB C32 1_11B/bin/../lib/gcc/pic32mx/3.4.4/../../../../pic32mx/lib/speed\libmchp_peripheral_32MX795F512H.a(rtcc_init_lib.o) (_RtccWaitClockOff)
E:/Olimex/Compilers/Microchip/MPLAB C32 1_11B/bin/../lib/gcc/pic32mx/3.4.4/../../../../pic32mx/lib/speed\libmchp_peripheral_32MX795F512H.a(I2CPrivate.o)
                              E:/Olimex/Compilers/Microchip/MPLAB C32 1_11B/bin/../lib/gcc/pic32mx/3.4.4/../../../../pic32mx/lib/speed\libmchp_peripheral_32MX795F512H.a(I2CByteWasAcknowledged.o) (i2cBase)
E:/Olimex/Compilers/Microchip/MPLAB C32 1_11B/bin/../lib/gcc/pic32mx/3.4.4/../../../../pic32mx/lib/speed\libc.a(isinf.o)
                              E:/Olimex/Compilers/Microchip/MPLAB C32 1_11B/bin/../lib/gcc/pic32mx/3.4.4/../../../../pic32mx/lib/speed\libm.a(w_pow.o) (isinf)
E:/Olimex/Compilers/Microchip/MPLAB C32 1_11B/bin/../lib/gcc/pic32mx/3.4.4/speed\libgcc.a(_udivdi3.o)
                              E:/Olimex/Compilers/Microchip/MPLAB C32 1_11B/bin/../lib/gcc/pic32mx/3.4.4/../../../../pic32mx/lib/speed\libc.a(_doprnt.o) (__udivdi3)
E:/Olimex/Compilers/Microchip/MPLAB C32 1_11B/bin/../lib/gcc/pic32mx/3.4.4/speed\libgcc.a(_umoddi3.o)
                              E:/Olimex/Compilers/Microchip/MPLAB C32 1_11B/bin/../lib/gcc/pic32mx/3.4.4/../../../../pic32mx/lib/speed\libc.a(_doprnt.o) (__umoddi3)

Allocating common symbols
Common symbol       size              file

Average             0x18              build/OLIMEX/production/_ext/2012694729/External.o
com3Rx_head         0x4               build/OLIMEX/production/_ext/1091586137/serial.o
HeapUsed            0x4               build/OLIMEX/production/_ext/2012694729/MMBasic.o
InpQueueHead        0x4               build/OLIMEX/production/_ext/1728301206/Main.o
anim                0x4               build/OLIMEX/production/_ext/2129892895/GameDuino.o
tm                  0x4               build/OLIMEX/production/_ext/2129892895/RTC.o
TokenTableSize      0x4               build/OLIMEX/production/_ext/2012694729/MMBasic.o
SleepMMVal          0x4               build/OLIMEX/production/_ext/2129892895/RTC.o
ep_data_in          0x4               build/OLIMEX/production/_ext/678306549/usb_device.o
SS                  0x44              build/OLIMEX/production/_ext/1728301206/Setup.o
tempCWDobj          0x3c              build/OLIMEX/production/_ext/779736424/FSIO.o
SoundPlay           0x4               build/OLIMEX/production/_ext/1123757107/Timers.o
com4Tx_buf          0x4               build/OLIMEX/production/_ext/1091586137/serial.o
gMediaSectorSize    0x2               build/OLIMEX/production/_ext/779736424/SD-SPI.o
gosubstack          0x3e8             build/OLIMEX/production/_ext/2012694729/Commands.o
inPipes             0x10              build/OLIMEX/production/_ext/678306549/usb_device.o
com1_ilevel         0x4               build/OLIMEX/production/_ext/1091586137/serial.o
gSDMode             0x1               build/OLIMEX/production/_ext/779736424/SD-SPI.o
control_signal_bitmap
                    0x4               build/OLIMEX/production/_ext/488640762/usb_function_cdc.o
com3_ilevel         0x4               build/OLIMEX/production/_ext/1091586137/serial.o
LastFile            0xf               build/OLIMEX/production/_ext/2012694729/Commands.o
psize               0x4               build/OLIMEX/production/_ext/2012694729/MMBasic.o
com4_div            0x4               build/OLIMEX/production/_ext/1091586137/serial.o
I2CAdd              0x1               build/OLIMEX/production/_ext/2129892895/RTC.o
com3_div            0x4               build/OLIMEX/production/_ext/1091586137/serial.o
gblMediaPresent     0x2               build/OLIMEX/production/_ext/718657706/usb_function_msd.o
I2C_Timer           0x4               build/OLIMEX/production/_ext/2012694729/I2C.o
USBDeferStatusStagePacket
                    0x4               build/OLIMEX/production/_ext/678306549/usb_device.o
msd_csw             0x10              build/OLIMEX/production/_ext/678306549/usb_device.o
USTATcopy           0x1               build/OLIMEX/production/_ext/678306549/usb_device.o
farg1               0x4               build/OLIMEX/production/_ext/2012694729/MMBasic.o
vga                 0x4               build/OLIMEX/production/_ext/1624479370/Video.o
fontBinary          0x4               build/OLIMEX/production/_ext/1624479370/DrawChar.o
VCount              0x4               build/OLIMEX/production/_ext/1624479370/Video.o
fontStart           0x4               build/OLIMEX/production/_ext/1624479370/DrawChar.o
MDD_SDSPI_finalLBA  0x4               build/OLIMEX/production/_ext/779736424/SD-SPI.o
fontEnd             0x4               build/OLIMEX/production/_ext/1624479370/DrawChar.o
VarIndex            0x4               build/OLIMEX/production/_ext/2012694729/MMBasic.o
fret                0x4               build/OLIMEX/production/_ext/2012694729/MMBasic.o
InpQueueTail        0x4               build/OLIMEX/production/_ext/1728301206/Main.o
dt1                 0x4               build/OLIMEX/production/_ext/2129892895/RTC.o
com2Rx_head         0x4               build/OLIMEX/production/_ext/1091586137/serial.o
curloc              0x4               build/OLIMEX/production/_ext/2012694729/Editor.o
CtrlTrfData         0x8               build/OLIMEX/production/_ext/678306549/usb_device.o
RemoteWakeup        0x4               build/OLIMEX/production/_ext/678306549/usb_device.o
TempClusterCalc     0x4               build/OLIMEX/production/_ext/779736424/FSIO.o
cdc_tx_len          0x1               build/OLIMEX/production/_ext/488640762/usb_function_cdc.o
controlTransferState
                    0x1               build/OLIMEX/production/_ext/678306549/usb_device.o
INT2Count           0x4               build/OLIMEX/production/_ext/2012694729/External.o
gTimeCrtTime        0x2               build/OLIMEX/production/_ext/779736424/FSIO.o
MAX_LINES           0x1               build/OLIMEX/production/_ext/2012694729/Editor.o
USB_NbrCharsInTxBuf
                    0x4               build/OLIMEX/production/_ext/1728301206/Main.o
killbuf             0x13c             build/OLIMEX/production/_ext/2012694729/Editor.o
TraceOn             0x4               build/OLIMEX/production/_ext/2012694729/MMBasic.o
T                   0x1               build/OLIMEX/production/_ext/2012694729/Editor.o
gblBLKLen           0x4               build/OLIMEX/production/_ext/718657706/usb_function_msd.o
cdc_trf_state       0x1               build/OLIMEX/production/_ext/488640762/usb_function_cdc.o
ScreenSaveTime      0x4               build/OLIMEX/production/_ext/1728301206/Setup.o
MSDHostNoData       0x4               build/OLIMEX/production/_ext/718657706/usb_function_msd.o
com1_div            0x4               build/OLIMEX/production/_ext/1091586137/serial.o
targ                0x4               build/OLIMEX/production/_ext/2012694729/MMBasic.o
USBStatusStageTimeoutCounter
                    0x1               build/OLIMEX/production/_ext/678306549/usb_device.o
I2C_Slave_Send_IntLine
                    0x4               build/OLIMEX/production/_ext/2012694729/I2C.o
helpline            0x140             build/OLIMEX/production/_ext/2012694729/Editor.o
tknbuf              0x100             build/OLIMEX/production/_ext/2012694729/MMBasic.o
USB_RxBuf           0x80              build/OLIMEX/production/_ext/1728301206/Main.o
com3Rx_buf          0x4               build/OLIMEX/production/_ext/1091586137/serial.o
MMPosY              0x4               build/OLIMEX/production/_ext/1624479370/DrawChar.o
com2Tx_start_cnt    0x4               build/OLIMEX/production/_ext/1091586137/serial.o
com1Tx_buf          0x4               build/OLIMEX/production/_ext/1091586137/serial.o
cdc_data_tx         0x40              build/OLIMEX/production/_ext/488640762/usb_function_cdc.o
scrny               0x4               build/OLIMEX/production/_ext/2012694729/Editor.o
pmemory             0x7800            build/OLIMEX/production/_ext/2012694729/MMBasic.o
gblNumBLKS          0x4               build/OLIMEX/production/_ext/718657706/usb_function_msd.o
inttbl              0x138             build/OLIMEX/production/_ext/2012694729/Misc.o
sret                0x4               build/OLIMEX/production/_ext/2012694729/MMBasic.o
t                   0x1               build/OLIMEX/production/_ext/2012694729/Help.o
com4_ilevel         0x4               build/OLIMEX/production/_ext/1091586137/serial.o
p                   0x4               build/OLIMEX/production/_ext/2012694729/Help.o
com4Rx_buf          0x4               build/OLIMEX/production/_ext/1091586137/serial.o
USBMSDOutHandle     0x4               build/OLIMEX/production/_ext/718657706/usb_function_msd.o
com4Tx_start_cnt    0x4               build/OLIMEX/production/_ext/1091586137/serial.o
com4_buf_size       0x4               build/OLIMEX/production/_ext/1091586137/serial.o
x                   0x4               build/OLIMEX/production/_ext/2129892895/GameDuino.o
pDst                0x4               build/OLIMEX/production/_ext/678306549/usb_device.o
ptrNextData         0x4               build/OLIMEX/production/_ext/718657706/usb_function_msd.o
gFileSlotOpen       0x6               build/OLIMEX/production/_ext/779736424/FSIO.o
dostack             0x140             build/OLIMEX/production/_ext/2012694729/Commands.o
INT3Count           0x4               build/OLIMEX/production/_ext/2012694729/External.o
com4Rx_start_cnt    0x4               build/OLIMEX/production/_ext/1091586137/serial.o
InterruptReturn     0x4               build/OLIMEX/production/_ext/2012694729/Misc.o
com1_fc             0x4               build/OLIMEX/production/_ext/1091586137/serial.o
_nofpu              0x4               E:/Olimex/Compilers/Microchip/MPLAB C32 1_11B/bin/../lib/gcc/pic32mx/3.4.4/../../../../pic32mx/lib/speed\libc.a(setjmp.o)
com3Tx_start_cnt    0x4               build/OLIMEX/production/_ext/1091586137/serial.o
HRes                0x4               build/OLIMEX/production/_ext/1624479370/Video.o
MSD_State           0x1               build/OLIMEX/production/_ext/718657706/usb_function_msd.o
com1Rx_cnt          0x4               build/OLIMEX/production/_ext/1091586137/serial.o
USBDeferINDataStagePackets
                    0x4               build/OLIMEX/production/_ext/678306549/usb_device.o
cdc_notice          0x8               build/OLIMEX/production/_ext/488640762/usb_function_cdc.o
com3Rx_cnt          0x4               build/OLIMEX/production/_ext/1091586137/serial.o
buf2                0x4               build/OLIMEX/production/_ext/2012694729/Editor.o
ep_data_out         0x4               build/OLIMEX/production/_ext/678306549/usb_device.o
com1Rx_buf          0x4               build/OLIMEX/production/_ext/1091586137/serial.o
cdc_mem_type        0x1               build/OLIMEX/production/_ext/488640762/usb_function_cdc.o
farg2               0x4               build/OLIMEX/production/_ext/2012694729/MMBasic.o
SetupPkt            0x8               build/OLIMEX/production/_ext/678306549/usb_device.o
INT3Value           0x4               build/OLIMEX/production/_ext/2012694729/External.o
pBDTEntryEP0OutNext
                    0x4               build/OLIMEX/production/_ext/678306549/usb_device.o
USBAlternateInterface
                    0x3               build/OLIMEX/production/_ext/678306549/usb_device.o
com4Tx_tail         0x4               build/OLIMEX/production/_ext/1091586137/serial.o
fontReverse         0x4               build/OLIMEX/production/_ext/1624479370/DrawChar.o
outPipes            0xb               build/OLIMEX/production/_ext/678306549/usb_device.o
FunKey              0x9c              build/OLIMEX/production/_ext/2012694729/MMBasic.o
gDiskData           0x26              build/OLIMEX/production/_ext/779736424/FSIO.o
com2Rx_cnt          0x4               build/OLIMEX/production/_ext/1091586137/serial.o
msd_buffer          0x200             build/OLIMEX/production/_ext/678306549/usb_device.o
CommandTableSize    0x4               build/OLIMEX/production/_ext/2012694729/MMBasic.o
com1Tx_cnt          0x4               build/OLIMEX/production/_ext/1091586137/serial.o
nextstmt            0x4               build/OLIMEX/production/_ext/2012694729/MMBasic.o
CurrentDir          0x40              build/OLIMEX/production/_ext/2012694729/Help.o
tokenvalue          0xb               build/OLIMEX/production/_ext/2012694729/MMBasic.o
InpQueue            0x100             build/OLIMEX/production/_ext/1728301206/Main.o
PS2State            0x4               build/OLIMEX/production/_ext/179026188/Keyboard.o
gFATBuffer          0x200             build/OLIMEX/production/_ext/779736424/FSIO.o
CDCDataInHandle     0x4               build/OLIMEX/production/_ext/488640762/usb_function_cdc.o
VA                  0x6540            build/OLIMEX/production/_ext/1624479370/Video.o
com3Tx_cnt          0x4               build/OLIMEX/production/_ext/1091586137/serial.o
USBStatusStageEnabledFlag2
                    0x4               build/OLIMEX/production/_ext/678306549/usb_device.o
ContinuePoint       0x4               build/OLIMEX/production/_ext/2012694729/MMBasic.o
USB_Current_TxBuf   0x4               build/OLIMEX/production/_ext/1728301206/Main.o
com2_ilevel         0x4               build/OLIMEX/production/_ext/1091586137/serial.o
BothEP0OutUOWNsSet  0x4               build/OLIMEX/production/_ext/678306549/usb_device.o
Val                 0x4               build/OLIMEX/production/_ext/2129892895/GameDuino.o
cwd                 0x3c              build/OLIMEX/production/_ext/779736424/FSIO.o
gTimeAccDate        0x2               build/OLIMEX/production/_ext/779736424/FSIO.o
cmdline             0x4               build/OLIMEX/production/_ext/2012694729/MMBasic.o
i                   0x4               build/OLIMEX/production/_ext/1728301206/Setup.o
MSBBufferIndex      0x2               build/OLIMEX/production/_ext/718657706/usb_function_msd.o
scrnx               0x4               build/OLIMEX/production/_ext/2012694729/Editor.o
pp                  0x4               build/OLIMEX/production/_ext/2012694729/MMBasic.o
USBBusIsSuspended   0x4               build/OLIMEX/production/_ext/678306549/usb_device.o
tokencnt            0x4               build/OLIMEX/production/_ext/2012694729/MMBasic.o
USBDeferOUTDataStagePackets
                    0x4               build/OLIMEX/production/_ext/678306549/usb_device.o
I2C_IntLine         0x4               build/OLIMEX/production/_ext/2012694729/I2C.o
INT1Value           0x4               build/OLIMEX/production/_ext/2012694729/External.o
pCDCSrc             0x4               build/OLIMEX/production/_ext/488640762/usb_function_cdc.o
varcnt              0x4               build/OLIMEX/production/_ext/2012694729/MMBasic.o
y                   0x4               build/OLIMEX/production/_ext/2129892895/GameDuino.o
MMPosX              0x4               build/OLIMEX/production/_ext/1624479370/DrawChar.o
com4_interrupt      0x4               build/OLIMEX/production/_ext/1091586137/serial.o
MSDCommandState     0x1               build/OLIMEX/production/_ext/718657706/usb_function_msd.o
MMFilePtr           0x28              build/OLIMEX/production/_ext/2012694729/Files.o
gTimeCrtDate        0x2               build/OLIMEX/production/_ext/779736424/FSIO.o
doindex             0x4               build/OLIMEX/production/_ext/2012694729/Commands.o
Temp                0x50              build/OLIMEX/production/_ext/1728301206/Term.o
OptionBase          0x4               build/OLIMEX/production/_ext/2012694729/MMBasic.o
KParity             0x4               build/OLIMEX/production/_ext/179026188/Keyboard.o
ExtCurrentConfig    0x64              build/OLIMEX/production/_ext/2012694729/External.o
com4Rx_tail         0x4               build/OLIMEX/production/_ext/1091586137/serial.o
fontPtr8            0x4               build/OLIMEX/production/_ext/1624479370/DrawChar.o
com2Tx_cnt          0x4               build/OLIMEX/production/_ext/1091586137/serial.o
USBOn               0x4               build/OLIMEX/production/_ext/1728301206/Main.o
RCnt                0x4               build/OLIMEX/production/_ext/2012694729/Files.o
com3Rx_start_cnt    0x4               build/OLIMEX/production/_ext/1091586137/serial.o
fontHeight          0x4               build/OLIMEX/production/_ext/1624479370/DrawChar.o
com2Tx_tail         0x4               build/OLIMEX/production/_ext/1091586137/serial.o
pBDTEntryOut        0x10              build/OLIMEX/production/_ext/678306549/usb_device.o
fnbuf               0x10              build/OLIMEX/production/_ext/2012694729/Files.o
USBActiveConfiguration
                    0x1               build/OLIMEX/production/_ext/678306549/usb_device.o
INT4Value           0x4               build/OLIMEX/production/_ext/2012694729/External.o
temp                0x50              build/OLIMEX/production/_ext/1728301206/Setup.o
fontPtr32           0x4               build/OLIMEX/production/_ext/1624479370/DrawChar.o
com2Rx_tail         0x4               build/OLIMEX/production/_ext/1091586137/serial.o
asciiFilename       0x4               build/OLIMEX/production/_ext/779736424/FSIO.o
gblCBWLength        0x1               build/OLIMEX/production/_ext/718657706/usb_function_msd.o
com3Tx_buf          0x4               build/OLIMEX/production/_ext/1091586137/serial.o
cdc_rx_len          0x1               build/OLIMEX/production/_ext/488640762/usb_function_cdc.o
VRes                0x4               build/OLIMEX/production/_ext/1624479370/Video.o
ep                  0x4               build/OLIMEX/production/_ext/2012694729/MMBasic.o
endloc              0x4               build/OLIMEX/production/_ext/2012694729/Editor.o
FSerrno             0x1               build/OLIMEX/production/_ext/779736424/FSIO.o
inpbuf              0x100             build/OLIMEX/production/_ext/2012694729/MMBasic.o
ListCnt             0x4               build/OLIMEX/production/_ext/1624479370/DrawChar.o
sarg2               0x4               build/OLIMEX/production/_ext/2012694729/MMBasic.o
BaudRateGen         0x4               build/OLIMEX/production/_ext/488640762/usb_function_cdc.o
com1Tx_tail         0x4               build/OLIMEX/production/_ext/1091586137/serial.o
com3_buf_size       0x4               build/OLIMEX/production/_ext/1091586137/serial.o
com3Tx_tail         0x4               build/OLIMEX/production/_ext/1091586137/serial.o
gDataBuffer         0x200             build/OLIMEX/production/_ext/779736424/FSIO.o
USBMSDInHandle      0x4               build/OLIMEX/production/_ext/718657706/usb_function_msd.o
gosubindex          0x4               build/OLIMEX/production/_ext/2012694729/Commands.o
PrintSignonToUSB    0x1               build/OLIMEX/production/_ext/1728301206/Main.o
pCDCDst             0x4               build/OLIMEX/production/_ext/488640762/usb_function_cdc.o
fileNameLength      0x2               build/OLIMEX/production/_ext/779736424/FSIO.o
MSDReadState        0x1               build/OLIMEX/production/_ext/718657706/usb_function_msd.o
dirCleared          0x1               build/OLIMEX/production/_ext/779736424/FSIO.o
com2Tx_head         0x4               build/OLIMEX/production/_ext/1091586137/serial.o
I2C_Status          0x4               build/OLIMEX/production/_ext/2012694729/I2C.o
com3Tx_head         0x4               build/OLIMEX/production/_ext/1091586137/serial.o
MSDRetryAttempt     0x1               build/OLIMEX/production/_ext/718657706/usb_function_msd.o
strtmp              0xc0              build/OLIMEX/production/_ext/2012694729/MMBasic.o
gTimeWrtTime        0x2               build/OLIMEX/production/_ext/779736424/FSIO.o
com4Tx_cnt          0x4               build/OLIMEX/production/_ext/1091586137/serial.o
MSDStatus           0x1               build/OLIMEX/production/_ext/1728301206/Main.o
Autorun             0x4               build/OLIMEX/production/_ext/1728301206/Main.o
KCount              0x4               build/OLIMEX/production/_ext/179026188/Keyboard.o
USBStatusStageEnabledFlag1
                    0x4               build/OLIMEX/production/_ext/678306549/usb_device.o
StackLimit          0x4               build/OLIMEX/production/_ext/2012694729/MMBasic.o
com1Rx_head         0x4               build/OLIMEX/production/_ext/1091586137/serial.o
com2_interrupt      0x4               build/OLIMEX/production/_ext/1091586137/serial.o
NextData            0x4               build/OLIMEX/production/_ext/2012694729/MMBasic.o
fontWidth           0x4               build/OLIMEX/production/_ext/1624479370/DrawChar.o
com2Rx_start_cnt    0x4               build/OLIMEX/production/_ext/1091586137/serial.o
forindex            0x4               build/OLIMEX/production/_ext/2012694729/Commands.o
lastcmd             0x100             build/OLIMEX/production/_ext/2012694729/MMBasic.o
com2_buf_size       0x4               build/OLIMEX/production/_ext/1091586137/serial.o
com1_interrupt      0x4               build/OLIMEX/production/_ext/1091586137/serial.o
tm1                 0x4               build/OLIMEX/production/_ext/2129892895/RTC.o
WBuf                0x4               build/OLIMEX/production/_ext/2012694729/Files.o
USBDeviceState      0x4               build/OLIMEX/production/_ext/678306549/usb_device.o
com4Rx_head         0x4               build/OLIMEX/production/_ext/1091586137/serial.o
gFileArray          0x168             build/OLIMEX/production/_ext/779736424/FSIO.o
forstack            0x1e0             build/OLIMEX/production/_ext/2012694729/Commands.o
com2Rx_buf          0x4               build/OLIMEX/production/_ext/1091586137/serial.o
gblCBW              0x20              build/OLIMEX/production/_ext/718657706/usb_function_msd.o
cmdtoken            0x4               build/OLIMEX/production/_ext/2012694729/MMBasic.o
INT1Count           0x4               build/OLIMEX/production/_ext/2012694729/External.o
INT2Value           0x4               build/OLIMEX/production/_ext/2012694729/External.o
com2Tx_buf          0x4               build/OLIMEX/production/_ext/1091586137/serial.o
com1Tx_head         0x4               build/OLIMEX/production/_ext/1091586137/serial.o
SoftDetach          0x4               build/OLIMEX/production/_ext/718657706/usb_function_msd.o
VideoOn             0x4               build/OLIMEX/production/_ext/1728301206/Main.o
com4Tx_head         0x4               build/OLIMEX/production/_ext/1091586137/serial.o
RPtr                0x4               build/OLIMEX/production/_ext/2012694729/Files.o
MSDWriteState       0x1               build/OLIMEX/production/_ext/718657706/usb_function_msd.o
buf                 0x4               build/OLIMEX/production/_ext/2012694729/Editor.o
pBDTEntryIn         0x10              build/OLIMEX/production/_ext/678306549/usb_device.o
I2C_State           0x4               build/OLIMEX/production/_ext/2012694729/I2C.o
pBDTEntryEP0OutCurrent
                    0x4               build/OLIMEX/production/_ext/678306549/usb_device.o
line_coding         0x8               build/OLIMEX/production/_ext/488640762/usb_function_cdc.o
gblSenseData        0x12              build/OLIMEX/production/_ext/718657706/usb_function_msd.o
com1_buf_size       0x4               build/OLIMEX/production/_ext/1091586137/serial.o
USB_TxBuf           0x80              build/OLIMEX/production/_ext/1728301206/Main.o
LINE_LEN            0x1               build/OLIMEX/production/_ext/2012694729/Editor.o
fname               0x4               build/OLIMEX/production/_ext/1728301206/Term.o
I2C_Slave_Receive_IntLine
                    0x4               build/OLIMEX/production/_ext/2012694729/I2C.o
FatRootDirClusterValue
                    0x4               build/OLIMEX/production/_ext/779736424/FSIO.o
fontScale           0x4               build/OLIMEX/production/_ext/1624479370/DrawChar.o
shortPacketStatus   0x1               build/OLIMEX/production/_ext/678306549/usb_device.o
com2_div            0x4               build/OLIMEX/production/_ext/1091586137/serial.o
ftbl                0x78              build/OLIMEX/production/_ext/1624479370/DrawChar.o
STATUS_LINE         0x1               build/OLIMEX/production/_ext/2012694729/Editor.o
HelpCommand         0x40              build/OLIMEX/production/_ext/2012694729/Help.o
autoOn              0x4               build/OLIMEX/production/_ext/2012694729/MMBasic.o
dt                  0x4               build/OLIMEX/production/_ext/2129892895/RTC.o
WBufPtr             0x4               build/OLIMEX/production/_ext/2012694729/Files.o
gTimeCrtMS          0x1               build/OLIMEX/production/_ext/779736424/FSIO.o
gFileTemp           0x3c              build/OLIMEX/production/_ext/779736424/FSIO.o
mark                0xc0              build/OLIMEX/production/_ext/2012694729/MMBasic.o
KBDBuf              0x1               build/OLIMEX/production/_ext/179026188/Keyboard.o
cdc_data_rx         0x40              build/OLIMEX/production/_ext/488640762/usb_function_cdc.o
tempDirectoryString
                    0xe               build/OLIMEX/production/_ext/779736424/FSIO.o
INT4Count           0x4               build/OLIMEX/production/_ext/2012694729/External.o
sarg1               0x4               build/OLIMEX/production/_ext/2012694729/MMBasic.o
com3_interrupt      0x4               build/OLIMEX/production/_ext/1091586137/serial.o
CDCDataOutHandle    0x4               build/OLIMEX/production/_ext/488640762/usb_function_cdc.o
defaultArray        0xa               build/OLIMEX/production/_ext/779736424/FSIO.o
bnbr                0x1               build/OLIMEX/production/_ext/2012694729/Files.o
com1Rx_start_cnt    0x4               build/OLIMEX/production/_ext/1091586137/serial.o
vartbl              0x36b0            build/OLIMEX/production/_ext/2012694729/MMBasic.o
gTimeWrtDate        0x2               build/OLIMEX/production/_ext/779736424/FSIO.o
WBufCnt             0x4               build/OLIMEX/production/_ext/2012694729/Files.o
MSDCBWValid         0x4               build/OLIMEX/production/_ext/718657706/usb_function_msd.o
com1Rx_tail         0x4               build/OLIMEX/production/_ext/1091586137/serial.o
VC                  0x10              build/OLIMEX/production/_ext/1624479370/Video.o
VT100Buff           0x4               build/OLIMEX/production/_ext/1624479370/VT100.o
KState              0x4               build/OLIMEX/production/_ext/179026188/Keyboard.o
msd_cbw             0x20              build/OLIMEX/production/_ext/678306549/usb_device.o
BDT                 0x80              build/OLIMEX/production/_ext/678306549/usb_device.o
fontPtr16           0x4               build/OLIMEX/production/_ext/1624479370/DrawChar.o
com1Tx_start_cnt    0x4               build/OLIMEX/production/_ext/1091586137/serial.o
S                   0x44              build/OLIMEX/production/_ext/2012694729/External.o
com4Rx_cnt          0x4               build/OLIMEX/production/_ext/1091586137/serial.o
MMCharPos           0x4               build/OLIMEX/production/_ext/1624479370/DrawChar.o
dummy_encapsulated_cmd_response
                    0x8               build/OLIMEX/production/_ext/488640762/usb_function_cdc.o
VState              0x4               build/OLIMEX/production/_ext/1624479370/Video.o
CurrentLineNbr      0x4               build/OLIMEX/production/_ext/2012694729/MMBasic.o
c                   0x4               build/OLIMEX/production/_ext/1728301206/Term.o
endpoint_number     0x1               build/OLIMEX/production/_ext/678306549/usb_device.o
com3Rx_tail         0x4               build/OLIMEX/production/_ext/1091586137/serial.o

Microchip PIC32 Memory-Usage Report

kseg0 Program-Memory Usage
section                    address  length [bytes]      (dec)  Description
-------                 ----------  -------------------------  -----------
.text                   0x9d004a00        0x68fa8      429992  Application's executable code 
.rodata                 0x9d06d9a8         0x739c       29596  Read-only constant data 
.eh_frame               0x9d074d44           0x50          80  Stack unwind info 
.data                   0x9d074d94         0x12f4        4852  Data-initialization template 
.sdata                  0x9d076088           0x54          84  Small data-initialization template 
      Total kseg0_program_mem used  :     0x716dc      464604  91.9% of 0x7b600

kseg0 Boot-Memory Usage
section                    address  length [bytes]      (dec)  Description
-------                 ----------  -------------------------  -----------
.startup                0x9d004490          0x1e0         480  C startup code 
         Total kseg0_boot_mem used  :       0x1e0         480  19.9% of 0x970

Exception-Memory Usage 
section                    address  length [bytes]      (dec)  Description
-------                 ----------  -------------------------  -----------
.app_excpt              0x9d003180           0x10          16  General-Exception handler 
.vector_4               0x9d003280            0x8           8  Interrupt Vector 4 
.vector_7               0x9d0032e0            0x8           8  Interrupt Vector 7 
.vector_11              0x9d003360            0x8           8  Interrupt Vector 11 
.vector_12              0x9d003380            0x8           8  Interrupt Vector 12 
.vector_15              0x9d0033e0            0x8           8  Interrupt Vector 15 
.vector_16              0x9d003400            0x8           8  Interrupt Vector 16 
.vector_19              0x9d003460            0x8           8  Interrupt Vector 19 
.vector_20              0x9d003480            0x8           8  Interrupt Vector 20 
.vector_25              0x9d003520            0x8           8  Interrupt Vector 25 
.vector_26              0x9d003540            0x8           8  Interrupt Vector 26 
.vector_32              0x9d003600            0x8           8  Interrupt Vector 32 
.vector_35              0x9d003660            0x8           8  Interrupt Vector 35 
          Total exception_mem used  :        0x70         112  2.7% of 0x1000

kseg1 Boot-Memory Usage
section                    address  length [bytes]      (dec)  Description
-------                 ----------  -------------------------  -----------
.reset                  0x9d004000           0x10          16  Reset handler 
.bev_excpt              0x9d004380           0x10          16  BEV-Exception handler 
         Total kseg1_boot_mem used  :        0x20          32  2.7% of 0x490
        --------------------------------------------------------------------------
         Total Program Memory used  :     0x7194c      465228  90.7% of 0x7d400
        --------------------------------------------------------------------------


kseg1 Data-Memory Usage
section                    address  length [bytes]      (dec)  Description
-------                 ----------  -------------------------  -----------
.data                   0xa0000000         0x12f4        4852  Initialized data 
.sdata                  0xa00012f4           0x54          84  Small initialized data 
.sbss                   0xa0001348          0x4f0        1264  Small uninitialized data 
.bss                    0xa0001838        0x137a8       79784  Uninitialized data 
.grg                    0xa0014fe0            0xc          12   
.stack                  0xa0014ff0          0x400        1024  Minimum space reserved for stack 
         Total kseg1_data_mem used  :     0x153ec       87020  66.4% of 0x20000
        --------------------------------------------------------------------------
            Total Data Memory used  :     0x153ec       87020  66.4% of 0x20000
        --------------------------------------------------------------------------

Discarded input sections

 .data          0x00000000        0x0 E:/Olimex/Compilers/Microchip/MPLAB C32 1_11B/bin/../lib/gcc/pic32mx/3.4.4/../../../../pic32mx/lib/speed/crt0.o
 .bss           0x00000000        0x0 E:/Olimex/Compilers/Microchip/MPLAB C32 1_11B/bin/../lib/gcc/pic32mx/3.4.4/../../../../pic32mx/lib/speed/crt0.o
 .reginfo       0x00000000       0x18 E:/Olimex/Compilers/Microchip/MPLAB C32 1_11B/bin/../lib/gcc/pic32mx/3.4.4/../../../../pic32mx/lib/speed/crt0.o
 .pdr           0x00000000       0xa0 E:/Olimex/Compilers/Microchip/MPLAB C32 1_11B/bin/../lib/gcc/pic32mx/3.4.4/../../../../pic32mx/lib/speed/crt0.o
 .data          0x00000000        0x0 build/OLIMEX/production/_ext/2012694729/Commands.o
 .bss           0x00000000        0x0 build/OLIMEX/production/_ext/2012694729/Commands.o
 .reginfo       0x00000000       0x18 build/OLIMEX/production/_ext/2012694729/Commands.o
 .pdr           0x00000000      0x5c0 build/OLIMEX/production/_ext/2012694729/Commands.o
 .data          0x00000000        0x0 build/OLIMEX/production/_ext/2012694729/Custom.o
 .bss           0x00000000        0x0 build/OLIMEX/production/_ext/2012694729/Custom.o
 .reginfo       0x00000000       0x18 build/OLIMEX/production/_ext/2012694729/Custom.o
 .pdr           0x00000000      0x4c0 build/OLIMEX/production/_ext/2012694729/Custom.o
 .data          0x00000000        0x0 build/OLIMEX/production/_ext/2012694729/External.o
 .bss           0x00000000        0x0 build/OLIMEX/production/_ext/2012694729/External.o
 .reginfo       0x00000000       0x18 build/OLIMEX/production/_ext/2012694729/External.o
 .pdr           0x00000000      0x200 build/OLIMEX/production/_ext/2012694729/External.o
 .bss           0x00000000        0x0 build/OLIMEX/production/_ext/2012694729/Files.o
 .reginfo       0x00000000       0x18 build/OLIMEX/production/_ext/2012694729/Files.o
 .pdr           0x00000000      0x740 build/OLIMEX/production/_ext/2012694729/Files.o
 .data          0x00000000        0x0 build/OLIMEX/production/_ext/2012694729/Functions.o
 .bss           0x00000000        0x0 build/OLIMEX/production/_ext/2012694729/Functions.o
 .reginfo       0x00000000       0x18 build/OLIMEX/production/_ext/2012694729/Functions.o
 .pdr           0x00000000      0x3e0 build/OLIMEX/production/_ext/2012694729/Functions.o
 .data          0x00000000        0x0 build/OLIMEX/production/_ext/2012694729/Graphics.o
 .bss           0x00000000        0x0 build/OLIMEX/production/_ext/2012694729/Graphics.o
 .reginfo       0x00000000       0x18 build/OLIMEX/production/_ext/2012694729/Graphics.o
 .pdr           0x00000000      0x1a0 build/OLIMEX/production/_ext/2012694729/Graphics.o
 .data          0x00000000        0x0 build/OLIMEX/production/_ext/2012694729/Help.o
 .bss           0x00000000        0x0 build/OLIMEX/production/_ext/2012694729/Help.o
 .reginfo       0x00000000       0x18 build/OLIMEX/production/_ext/2012694729/Help.o
 .pdr           0x00000000       0x20 build/OLIMEX/production/_ext/2012694729/Help.o
 .data          0x00000000        0x0 build/OLIMEX/production/_ext/2012694729/I2C.o
 .reginfo       0x00000000       0x18 build/OLIMEX/production/_ext/2012694729/I2C.o
 .pdr           0x00000000      0x280 build/OLIMEX/production/_ext/2012694729/I2C.o
 .bss           0x00000000        0x0 build/OLIMEX/production/_ext/2012694729/MMBasic.o
 .reginfo       0x00000000       0x18 build/OLIMEX/production/_ext/2012694729/MMBasic.o
 .pdr           0x00000000      0x540 build/OLIMEX/production/_ext/2012694729/MMBasic.o
 .data          0x00000000        0x0 build/OLIMEX/production/_ext/2012694729/Misc.o
 .bss           0x00000000        0x0 build/OLIMEX/production/_ext/2012694729/Misc.o
 .reginfo       0x00000000       0x18 build/OLIMEX/production/_ext/2012694729/Misc.o
 .pdr           0x00000000      0x240 build/OLIMEX/production/_ext/2012694729/Misc.o
 .data          0x00000000        0x0 build/OLIMEX/production/_ext/2012694729/Operators.o
 .bss           0x00000000        0x0 build/OLIMEX/production/_ext/2012694729/Operators.o
 .reginfo       0x00000000       0x18 build/OLIMEX/production/_ext/2012694729/Operators.o
 .pdr           0x00000000      0x240 build/OLIMEX/production/_ext/2012694729/Operators.o
 .data          0x00000000        0x0 build/OLIMEX/production/_ext/2012694729/XModem.o
 .bss           0x00000000        0x0 build/OLIMEX/production/_ext/2012694729/XModem.o
 .reginfo       0x00000000       0x18 build/OLIMEX/production/_ext/2012694729/XModem.o
 .pdr           0x00000000       0x80 build/OLIMEX/production/_ext/2012694729/XModem.o
 .data          0x00000000        0x0 build/OLIMEX/production/_ext/2012694729/Editor.o
 .bss           0x00000000        0x0 build/OLIMEX/production/_ext/2012694729/Editor.o
 .reginfo       0x00000000       0x18 build/OLIMEX/production/_ext/2012694729/Editor.o
 .pdr           0x00000000      0x440 build/OLIMEX/production/_ext/2012694729/Editor.o
 .sdata         0x00000000        0x4 build/OLIMEX/production/_ext/2012694729/Editor.o
 .data          0x00000000        0x0 build/OLIMEX/production/_ext/779736424/FSIO.o
 .bss           0x00000000        0x0 build/OLIMEX/production/_ext/779736424/FSIO.o
 .reginfo       0x00000000       0x18 build/OLIMEX/production/_ext/779736424/FSIO.o
 .pdr           0x00000000      0x7a0 build/OLIMEX/production/_ext/779736424/FSIO.o
 .data          0x00000000        0x0 build/OLIMEX/production/_ext/779736424/SD-SPI.o
 .reginfo       0x00000000       0x18 build/OLIMEX/production/_ext/779736424/SD-SPI.o
 .pdr           0x00000000      0x240 build/OLIMEX/production/_ext/779736424/SD-SPI.o
 .text          0x00000000        0x0 build/OLIMEX/production/_ext/940238529/usb_descriptors.o
 .data          0x00000000        0x0 build/OLIMEX/production/_ext/940238529/usb_descriptors.o
 .bss           0x00000000        0x0 build/OLIMEX/production/_ext/940238529/usb_descriptors.o
 .reginfo       0x00000000       0x18 build/OLIMEX/production/_ext/940238529/usb_descriptors.o
 .pdr           0x00000000        0x0 build/OLIMEX/production/_ext/940238529/usb_descriptors.o
 .data          0x00000000        0x0 build/OLIMEX/production/_ext/678306549/usb_device.o
 .bss           0x00000000        0x0 build/OLIMEX/production/_ext/678306549/usb_device.o
 .reginfo       0x00000000       0x18 build/OLIMEX/production/_ext/678306549/usb_device.o
 .pdr           0x00000000      0x100 build/OLIMEX/production/_ext/678306549/usb_device.o
 .data          0x00000000        0x0 build/OLIMEX/production/_ext/488640762/usb_function_cdc.o
 .bss           0x00000000        0x0 build/OLIMEX/production/_ext/488640762/usb_function_cdc.o
 .reginfo       0x00000000       0x18 build/OLIMEX/production/_ext/488640762/usb_function_cdc.o
 .pdr           0x00000000      0x100 build/OLIMEX/production/_ext/488640762/usb_function_cdc.o
 .data          0x00000000        0x0 build/OLIMEX/production/_ext/718657706/usb_function_msd.o
 .bss           0x00000000        0x0 build/OLIMEX/production/_ext/718657706/usb_function_msd.o
 .reginfo       0x00000000       0x18 build/OLIMEX/production/_ext/718657706/usb_function_msd.o
 .pdr           0x00000000      0x160 build/OLIMEX/production/_ext/718657706/usb_function_msd.o
 .data          0x00000000        0x0 build/OLIMEX/production/_ext/1624479370/DrawChar.o
 .bss           0x00000000        0x0 build/OLIMEX/production/_ext/1624479370/DrawChar.o
 .reginfo       0x00000000       0x18 build/OLIMEX/production/_ext/1624479370/DrawChar.o
 .pdr           0x00000000       0xc0 build/OLIMEX/production/_ext/1624479370/DrawChar.o
 .data          0x00000000        0x0 build/OLIMEX/production/_ext/1624479370/VT100.o
 .bss           0x00000000        0x0 build/OLIMEX/production/_ext/1624479370/VT100.o
 .reginfo       0x00000000       0x18 build/OLIMEX/production/_ext/1624479370/VT100.o
 .pdr           0x00000000       0x40 build/OLIMEX/production/_ext/1624479370/VT100.o
 .reginfo       0x00000000       0x18 build/OLIMEX/production/_ext/1624479370/Video.o
 .pdr           0x00000000      0x120 build/OLIMEX/production/_ext/1624479370/Video.o
 .data          0x00000000        0x0 build/OLIMEX/production/_ext/2129892895/GameDuino.o
 .bss           0x00000000        0x0 build/OLIMEX/production/_ext/2129892895/GameDuino.o
 .reginfo       0x00000000       0x18 build/OLIMEX/production/_ext/2129892895/GameDuino.o
 .pdr           0x00000000      0x2a0 build/OLIMEX/production/_ext/2129892895/GameDuino.o
 .data          0x00000000        0x0 build/OLIMEX/production/_ext/179026188/Keyboard.o
 .bss           0x00000000        0x0 build/OLIMEX/production/_ext/179026188/Keyboard.o
 .reginfo       0x00000000       0x18 build/OLIMEX/production/_ext/179026188/Keyboard.o
 .pdr           0x00000000       0x60 build/OLIMEX/production/_ext/179026188/Keyboard.o
 .bss           0x00000000        0x0 build/OLIMEX/production/_ext/1728301206/Main.o
 .reginfo       0x00000000       0x18 build/OLIMEX/production/_ext/1728301206/Main.o
 .pdr           0x00000000      0x280 build/OLIMEX/production/_ext/1728301206/Main.o
 .bss           0x00000000        0x0 build/OLIMEX/production/_ext/2129892895/RTC.o
 .reginfo       0x00000000       0x18 build/OLIMEX/production/_ext/2129892895/RTC.o
 .pdr           0x00000000      0x1e0 build/OLIMEX/production/_ext/2129892895/RTC.o
 COMMON         0x00000000        0x0 build/OLIMEX/production/_ext/2129892895/RTC.o
 .data          0x00000000        0x0 build/OLIMEX/production/_ext/1728301206/Setup.o
 .bss           0x00000000        0x0 build/OLIMEX/production/_ext/1728301206/Setup.o
 .reginfo       0x00000000       0x18 build/OLIMEX/production/_ext/1728301206/Setup.o
 .pdr           0x00000000      0x140 build/OLIMEX/production/_ext/1728301206/Setup.o
 .data          0x00000000        0x0 build/OLIMEX/production/_ext/1728301206/Term.o
 .bss           0x00000000        0x0 build/OLIMEX/production/_ext/1728301206/Term.o
 .reginfo       0x00000000       0x18 build/OLIMEX/production/_ext/1728301206/Term.o
 .pdr           0x00000000       0x60 build/OLIMEX/production/_ext/1728301206/Term.o
 .data          0x00000000        0x0 build/OLIMEX/production/_ext/1123757107/Timers.o
 .bss           0x00000000        0x0 build/OLIMEX/production/_ext/1123757107/Timers.o
 .reginfo       0x00000000       0x18 build/OLIMEX/production/_ext/1123757107/Timers.o
 .pdr           0x00000000       0x60 build/OLIMEX/production/_ext/1123757107/Timers.o
 .rodata        0x00000000       0x10 build/OLIMEX/production/_ext/1123757107/Timers.o
 .data          0x00000000        0x0 build/OLIMEX/production/_ext/1091586137/serial.o
 .bss           0x00000000        0x0 build/OLIMEX/production/_ext/1091586137/serial.o
 .reginfo       0x00000000       0x18 build/OLIMEX/production/_ext/1091586137/serial.o
 .pdr           0x00000000      0x140 build/OLIMEX/production/_ext/1091586137/serial.o
 .text          0x00000000        0x0 E:/Olimex/Compilers/Microchip/MPLAB C32 1_11B/bin/../lib/gcc/pic32mx/3.4.4/../../../../pic32mx/lib/./proc/32MX795F512H\processor.o
 .data          0x00000000        0x0 E:/Olimex/Compilers/Microchip/MPLAB C32 1_11B/bin/../lib/gcc/pic32mx/3.4.4/../../../../pic32mx/lib/./proc/32MX795F512H\processor.o
 .bss           0x00000000        0x0 E:/Olimex/Compilers/Microchip/MPLAB C32 1_11B/bin/../lib/gcc/pic32mx/3.4.4/../../../../pic32mx/lib/./proc/32MX795F512H\processor.o
 .reginfo       0x00000000       0x18 E:/Olimex/Compilers/Microchip/MPLAB C32 1_11B/bin/../lib/gcc/pic32mx/3.4.4/../../../../pic32mx/lib/./proc/32MX795F512H\processor.o
 .pdr           0x00000000        0x0 E:/Olimex/Compilers/Microchip/MPLAB C32 1_11B/bin/../lib/gcc/pic32mx/3.4.4/../../../../pic32mx/lib/./proc/32MX795F512H\processor.o
 .data          0x00000000        0x0 E:/Olimex/Compilers/Microchip/MPLAB C32 1_11B/bin/../lib/gcc/pic32mx/3.4.4/../../../../pic32mx/lib/speed\libc.a(setjmp.o)
 .bss           0x00000000        0x0 E:/Olimex/Compilers/Microchip/MPLAB C32 1_11B/bin/../lib/gcc/pic32mx/3.4.4/../../../../pic32mx/lib/speed\libc.a(setjmp.o)
 .reginfo       0x00000000       0x18 E:/Olimex/Compilers/Microchip/MPLAB C32 1_11B/bin/../lib/gcc/pic32mx/3.4.4/../../../../pic32mx/lib/speed\libc.a(setjmp.o)
 .pdr           0x00000000       0xe0 E:/Olimex/Compilers/Microchip/MPLAB C32 1_11B/bin/../lib/gcc/pic32mx/3.4.4/../../../../pic32mx/lib/speed\libc.a(setjmp.o)
 .data          0x00000000        0x0 E:/Olimex/Compilers/Microchip/MPLAB C32 1_11B/bin/../lib/gcc/pic32mx/3.4.4/../../../../pic32mx/lib/speed\libc.a(memcmp.o)
 .bss           0x00000000        0x0 E:/Olimex/Compilers/Microchip/MPLAB C32 1_11B/bin/../lib/gcc/pic32mx/3.4.4/../../../../pic32mx/lib/speed\libc.a(memcmp.o)
 .reginfo       0x00000000       0x18 E:/Olimex/Compilers/Microchip/MPLAB C32 1_11B/bin/../lib/gcc/pic32mx/3.4.4/../../../../pic32mx/lib/speed\libc.a(memcmp.o)
 .pdr           0x00000000       0x20 E:/Olimex/Compilers/Microchip/MPLAB C32 1_11B/bin/../lib/gcc/pic32mx/3.4.4/../../../../pic32mx/lib/speed\libc.a(memcmp.o)
 .data          0x00000000        0x0 E:/Olimex/Compilers/Microchip/MPLAB C32 1_11B/bin/../lib/gcc/pic32mx/3.4.4/../../../../pic32mx/lib/speed\libc.a(memcpy.o)
 .bss           0x00000000        0x0 E:/Olimex/Compilers/Microchip/MPLAB C32 1_11B/bin/../lib/gcc/pic32mx/3.4.4/../../../../pic32mx/lib/speed\libc.a(memcpy.o)
 .reginfo       0x00000000       0x18 E:/Olimex/Compilers/Microchip/MPLAB C32 1_11B/bin/../lib/gcc/pic32mx/3.4.4/../../../../pic32mx/lib/speed\libc.a(memcpy.o)
 .pdr           0x00000000       0x20 E:/Olimex/Compilers/Microchip/MPLAB C32 1_11B/bin/../lib/gcc/pic32mx/3.4.4/../../../../pic32mx/lib/speed\libc.a(memcpy.o)
 .data          0x00000000        0x0 E:/Olimex/Compilers/Microchip/MPLAB C32 1_11B/bin/../lib/gcc/pic32mx/3.4.4/../../../../pic32mx/lib/speed\libc.a(memset.o)
 .bss           0x00000000        0x0 E:/Olimex/Compilers/Microchip/MPLAB C32 1_11B/bin/../lib/gcc/pic32mx/3.4.4/../../../../pic32mx/lib/speed\libc.a(memset.o)
 .reginfo       0x00000000       0x18 E:/Olimex/Compilers/Microchip/MPLAB C32 1_11B/bin/../lib/gcc/pic32mx/3.4.4/../../../../pic32mx/lib/speed\libc.a(memset.o)
 .pdr           0x00000000       0x20 E:/Olimex/Compilers/Microchip/MPLAB C32 1_11B/bin/../lib/gcc/pic32mx/3.4.4/../../../../pic32mx/lib/speed\libc.a(memset.o)
 .data          0x00000000        0x0 E:/Olimex/Compilers/Microchip/MPLAB C32 1_11B/bin/../lib/gcc/pic32mx/3.4.4/../../../../pic32mx/lib/speed\libc.a(strcmp.o)
 .bss           0x00000000        0x0 E:/Olimex/Compilers/Microchip/MPLAB C32 1_11B/bin/../lib/gcc/pic32mx/3.4.4/../../../../pic32mx/lib/speed\libc.a(strcmp.o)
 .reginfo       0x00000000       0x18 E:/Olimex/Compilers/Microchip/MPLAB C32 1_11B/bin/../lib/gcc/pic32mx/3.4.4/../../../../pic32mx/lib/speed\libc.a(strcmp.o)
 .pdr           0x00000000       0x20 E:/Olimex/Compilers/Microchip/MPLAB C32 1_11B/bin/../lib/gcc/pic32mx/3.4.4/../../../../pic32mx/lib/speed\libc.a(strcmp.o)
 .data          0x00000000        0x0 E:/Olimex/Compilers/Microchip/MPLAB C32 1_11B/bin/../lib/gcc/pic32mx/3.4.4/../../../../pic32mx/lib/speed\libc.a(strcpy.o)
 .bss           0x00000000        0x0 E:/Olimex/Compilers/Microchip/MPLAB C32 1_11B/bin/../lib/gcc/pic32mx/3.4.4/../../../../pic32mx/lib/speed\libc.a(strcpy.o)
 .reginfo       0x00000000       0x18 E:/Olimex/Compilers/Microchip/MPLAB C32 1_11B/bin/../lib/gcc/pic32mx/3.4.4/../../../../pic32mx/lib/speed\libc.a(strcpy.o)
 .pdr           0x00000000       0x20 E:/Olimex/Compilers/Microchip/MPLAB C32 1_11B/bin/../lib/gcc/pic32mx/3.4.4/../../../../pic32mx/lib/speed\libc.a(strcpy.o)
 .data          0x00000000        0x0 E:/Olimex/Compilers/Microchip/MPLAB C32 1_11B/bin/../lib/gcc/pic32mx/3.4.4/../../../../pic32mx/lib/speed\libc.a(strlen.o)
 .bss           0x00000000        0x0 E:/Olimex/Compilers/Microchip/MPLAB C32 1_11B/bin/../lib/gcc/pic32mx/3.4.4/../../../../pic32mx/lib/speed\libc.a(strlen.o)
 .reginfo       0x00000000       0x18 E:/Olimex/Compilers/Microchip/MPLAB C32 1_11B/bin/../lib/gcc/pic32mx/3.4.4/../../../../pic32mx/lib/speed\libc.a(strlen.o)
 .pdr           0x00000000       0x20 E:/Olimex/Compilers/Microchip/MPLAB C32 1_11B/bin/../lib/gcc/pic32mx/3.4.4/../../../../pic32mx/lib/speed\libc.a(strlen.o)
 .text          0x00000000        0x0 E:/Olimex/Compilers/Microchip/MPLAB C32 1_11B/bin/../lib/gcc/pic32mx/3.4.4/../../../../pic32mx/lib/speed\libc.a(general-exception.o)
 .data          0x00000000        0x0 E:/Olimex/Compilers/Microchip/MPLAB C32 1_11B/bin/../lib/gcc/pic32mx/3.4.4/../../../../pic32mx/lib/speed\libc.a(general-exception.o)
 .bss           0x00000000        0x0 E:/Olimex/Compilers/Microchip/MPLAB C32 1_11B/bin/../lib/gcc/pic32mx/3.4.4/../../../../pic32mx/lib/speed\libc.a(general-exception.o)
 .reginfo       0x00000000       0x18 E:/Olimex/Compilers/Microchip/MPLAB C32 1_11B/bin/../lib/gcc/pic32mx/3.4.4/../../../../pic32mx/lib/speed\libc.a(general-exception.o)
 .pdr           0x00000000       0x20 E:/Olimex/Compilers/Microchip/MPLAB C32 1_11B/bin/../lib/gcc/pic32mx/3.4.4/../../../../pic32mx/lib/speed\libc.a(general-exception.o)
 .text          0x00000000        0x0 E:/Olimex/Compilers/Microchip/MPLAB C32 1_11B/bin/../lib/gcc/pic32mx/3.4.4/../../../../pic32mx/lib/speed\libc.a(strcat.o)
 .data          0x00000000        0x0 E:/Olimex/Compilers/Microchip/MPLAB C32 1_11B/bin/../lib/gcc/pic32mx/3.4.4/../../../../pic32mx/lib/speed\libc.a(strcat.o)
 .bss           0x00000000        0x0 E:/Olimex/Compilers/Microchip/MPLAB C32 1_11B/bin/../lib/gcc/pic32mx/3.4.4/../../../../pic32mx/lib/speed\libc.a(strcat.o)
 .reginfo       0x00000000       0x18 E:/Olimex/Compilers/Microchip/MPLAB C32 1_11B/bin/../lib/gcc/pic32mx/3.4.4/../../../../pic32mx/lib/speed\libc.a(strcat.o)
 .pdr           0x00000000       0x20 E:/Olimex/Compilers/Microchip/MPLAB C32 1_11B/bin/../lib/gcc/pic32mx/3.4.4/../../../../pic32mx/lib/speed\libc.a(strcat.o)
 .text          0x00000000        0x0 E:/Olimex/Compilers/Microchip/MPLAB C32 1_11B/bin/../lib/gcc/pic32mx/3.4.4/../../../../pic32mx/lib/speed\libc.a(strncmp.o)
 .data          0x00000000        0x0 E:/Olimex/Compilers/Microchip/MPLAB C32 1_11B/bin/../lib/gcc/pic32mx/3.4.4/../../../../pic32mx/lib/speed\libc.a(strncmp.o)
 .bss           0x00000000        0x0 E:/Olimex/Compilers/Microchip/MPLAB C32 1_11B/bin/../lib/gcc/pic32mx/3.4.4/../../../../pic32mx/lib/speed\libc.a(strncmp.o)
 .reginfo       0x00000000       0x18 E:/Olimex/Compilers/Microchip/MPLAB C32 1_11B/bin/../lib/gcc/pic32mx/3.4.4/../../../../pic32mx/lib/speed\libc.a(strncmp.o)
 .pdr           0x00000000       0x20 E:/Olimex/Compilers/Microchip/MPLAB C32 1_11B/bin/../lib/gcc/pic32mx/3.4.4/../../../../pic32mx/lib/speed\libc.a(strncmp.o)
 .text          0x00000000        0x0 E:/Olimex/Compilers/Microchip/MPLAB C32 1_11B/bin/../lib/gcc/pic32mx/3.4.4/../../../../pic32mx/lib/speed\libc.a(strncpy.o)
 .data          0x00000000        0x0 E:/Olimex/Compilers/Microchip/MPLAB C32 1_11B/bin/../lib/gcc/pic32mx/3.4.4/../../../../pic32mx/lib/speed\libc.a(strncpy.o)
 .bss           0x00000000        0x0 E:/Olimex/Compilers/Microchip/MPLAB C32 1_11B/bin/../lib/gcc/pic32mx/3.4.4/../../../../pic32mx/lib/speed\libc.a(strncpy.o)
 .reginfo       0x00000000       0x18 E:/Olimex/Compilers/Microchip/MPLAB C32 1_11B/bin/../lib/gcc/pic32mx/3.4.4/../../../../pic32mx/lib/speed\libc.a(strncpy.o)
 .pdr           0x00000000       0x20 E:/Olimex/Compilers/Microchip/MPLAB C32 1_11B/bin/../lib/gcc/pic32mx/3.4.4/../../../../pic32mx/lib/speed\libc.a(strncpy.o)
 .text          0x00000000        0x0 E:/Olimex/Compilers/Microchip/MPLAB C32 1_11B/bin/../lib/gcc/pic32mx/3.4.4/../../../../pic32mx/lib/speed\libc.a(strchr.o)
 .data          0x00000000        0x0 E:/Olimex/Compilers/Microchip/MPLAB C32 1_11B/bin/../lib/gcc/pic32mx/3.4.4/../../../../pic32mx/lib/speed\libc.a(strchr.o)
 .bss           0x00000000        0x0 E:/Olimex/Compilers/Microchip/MPLAB C32 1_11B/bin/../lib/gcc/pic32mx/3.4.4/../../../../pic32mx/lib/speed\libc.a(strchr.o)
 .reginfo       0x00000000       0x18 E:/Olimex/Compilers/Microchip/MPLAB C32 1_11B/bin/../lib/gcc/pic32mx/3.4.4/../../../../pic32mx/lib/speed\libc.a(strchr.o)
 .pdr           0x00000000       0x20 E:/Olimex/Compilers/Microchip/MPLAB C32 1_11B/bin/../lib/gcc/pic32mx/3.4.4/../../../../pic32mx/lib/speed\libc.a(strchr.o)
 .text          0x00000000        0x0 E:/Olimex/Compilers/Microchip/MPLAB C32 1_11B/bin/../lib/gcc/pic32mx/3.4.4/../../../../pic32mx/lib/speed\libc.a(memmove.o)
 .data          0x00000000        0x0 E:/Olimex/Compilers/Microchip/MPLAB C32 1_11B/bin/../lib/gcc/pic32mx/3.4.4/../../../../pic32mx/lib/speed\libc.a(memmove.o)
 .bss           0x00000000        0x0 E:/Olimex/Compilers/Microchip/MPLAB C32 1_11B/bin/../lib/gcc/pic32mx/3.4.4/../../../../pic32mx/lib/speed\libc.a(memmove.o)
 .reginfo       0x00000000       0x18 E:/Olimex/Compilers/Microchip/MPLAB C32 1_11B/bin/../lib/gcc/pic32mx/3.4.4/../../../../pic32mx/lib/speed\libc.a(memmove.o)
 .pdr           0x00000000       0x20 E:/Olimex/Compilers/Microchip/MPLAB C32 1_11B/bin/../lib/gcc/pic32mx/3.4.4/../../../../pic32mx/lib/speed\libc.a(memmove.o)
 .text          0x00000000        0x0 E:/Olimex/Compilers/Microchip/MPLAB C32 1_11B/bin/../lib/gcc/pic32mx/3.4.4/../../../../pic32mx/lib/speed\libc.a(exit.o)
 .data          0x00000000        0x0 E:/Olimex/Compilers/Microchip/MPLAB C32 1_11B/bin/../lib/gcc/pic32mx/3.4.4/../../../../pic32mx/lib/speed\libc.a(exit.o)
 .bss           0x00000000        0x0 E:/Olimex/Compilers/Microchip/MPLAB C32 1_11B/bin/../lib/gcc/pic32mx/3.4.4/../../../../pic32mx/lib/speed\libc.a(exit.o)
 .reginfo       0x00000000       0x18 E:/Olimex/Compilers/Microchip/MPLAB C32 1_11B/bin/../lib/gcc/pic32mx/3.4.4/../../../../pic32mx/lib/speed\libc.a(exit.o)
 .pdr           0x00000000       0x20 E:/Olimex/Compilers/Microchip/MPLAB C32 1_11B/bin/../lib/gcc/pic32mx/3.4.4/../../../../pic32mx/lib/speed\libc.a(exit.o)
 .text          0x00000000        0x0 E:/Olimex/Compilers/Microchip/MPLAB C32 1_11B/bin/../lib/gcc/pic32mx/3.4.4/../../../../pic32mx/lib/speed\libc.a(ctype.o)
 .data          0x00000000        0x0 E:/Olimex/Compilers/Microchip/MPLAB C32 1_11B/bin/../lib/gcc/pic32mx/3.4.4/../../../../pic32mx/lib/speed\libc.a(ctype.o)
 .bss           0x00000000        0x0 E:/Olimex/Compilers/Microchip/MPLAB C32 1_11B/bin/../lib/gcc/pic32mx/3.4.4/../../../../pic32mx/lib/speed\libc.a(ctype.o)
 .reginfo       0x00000000       0x18 E:/Olimex/Compilers/Microchip/MPLAB C32 1_11B/bin/../lib/gcc/pic32mx/3.4.4/../../../../pic32mx/lib/speed\libc.a(ctype.o)
 .pdr           0x00000000        0x0 E:/Olimex/Compilers/Microchip/MPLAB C32 1_11B/bin/../lib/gcc/pic32mx/3.4.4/../../../../pic32mx/lib/speed\libc.a(ctype.o)
 .text          0x00000000        0x0 E:/Olimex/Compilers/Microchip/MPLAB C32 1_11B/bin/../lib/gcc/pic32mx/3.4.4/../../../../pic32mx/lib/speed\libc.a(ctypef.o)
 .data          0x00000000        0x0 E:/Olimex/Compilers/Microchip/MPLAB C32 1_11B/bin/../lib/gcc/pic32mx/3.4.4/../../../../pic32mx/lib/speed\libc.a(ctypef.o)
 .bss           0x00000000        0x0 E:/Olimex/Compilers/Microchip/MPLAB C32 1_11B/bin/../lib/gcc/pic32mx/3.4.4/../../../../pic32mx/lib/speed\libc.a(ctypef.o)
 .reginfo       0x00000000       0x18 E:/Olimex/Compilers/Microchip/MPLAB C32 1_11B/bin/../lib/gcc/pic32mx/3.4.4/../../../../pic32mx/lib/speed\libc.a(ctypef.o)
 .pdr           0x00000000      0x220 E:/Olimex/Compilers/Microchip/MPLAB C32 1_11B/bin/../lib/gcc/pic32mx/3.4.4/../../../../pic32mx/lib/speed\libc.a(ctypef.o)
 .text.isalnum  0x00000000       0x18 E:/Olimex/Compilers/Microchip/MPLAB C32 1_11B/bin/../lib/gcc/pic32mx/3.4.4/../../../../pic32mx/lib/speed\libc.a(ctypef.o)
 .text.isalpha  0x00000000       0x18 E:/Olimex/Compilers/Microchip/MPLAB C32 1_11B/bin/../lib/gcc/pic32mx/3.4.4/../../../../pic32mx/lib/speed\libc.a(ctypef.o)
 .text.isascii  0x00000000        0x8 E:/Olimex/Compilers/Microchip/MPLAB C32 1_11B/bin/../lib/gcc/pic32mx/3.4.4/../../../../pic32mx/lib/speed\libc.a(ctypef.o)
 .text.iscntrl  0x00000000       0x18 E:/Olimex/Compilers/Microchip/MPLAB C32 1_11B/bin/../lib/gcc/pic32mx/3.4.4/../../../../pic32mx/lib/speed\libc.a(ctypef.o)
 .text.isdigit  0x00000000       0x18 E:/Olimex/Compilers/Microchip/MPLAB C32 1_11B/bin/../lib/gcc/pic32mx/3.4.4/../../../../pic32mx/lib/speed\libc.a(ctypef.o)
 .text.isgraph  0x00000000       0x18 E:/Olimex/Compilers/Microchip/MPLAB C32 1_11B/bin/../lib/gcc/pic32mx/3.4.4/../../../../pic32mx/lib/speed\libc.a(ctypef.o)
 .text.islower  0x00000000       0x18 E:/Olimex/Compilers/Microchip/MPLAB C32 1_11B/bin/../lib/gcc/pic32mx/3.4.4/../../../../pic32mx/lib/speed\libc.a(ctypef.o)
 .text.isprint  0x00000000       0x18 E:/Olimex/Compilers/Microchip/MPLAB C32 1_11B/bin/../lib/gcc/pic32mx/3.4.4/../../../../pic32mx/lib/speed\libc.a(ctypef.o)
 .text.ispunct  0x00000000       0x18 E:/Olimex/Compilers/Microchip/MPLAB C32 1_11B/bin/../lib/gcc/pic32mx/3.4.4/../../../../pic32mx/lib/speed\libc.a(ctypef.o)
 .text.isspace  0x00000000       0x18 E:/Olimex/Compilers/Microchip/MPLAB C32 1_11B/bin/../lib/gcc/pic32mx/3.4.4/../../../../pic32mx/lib/speed\libc.a(ctypef.o)
 .text.isupper  0x00000000       0x18 E:/Olimex/Compilers/Microchip/MPLAB C32 1_11B/bin/../lib/gcc/pic32mx/3.4.4/../../../../pic32mx/lib/speed\libc.a(ctypef.o)
 .text.isxdigit
                0x00000000       0x18 E:/Olimex/Compilers/Microchip/MPLAB C32 1_11B/bin/../lib/gcc/pic32mx/3.4.4/../../../../pic32mx/lib/speed\libc.a(ctypef.o)
 .text.toascii  0x00000000        0x8 E:/Olimex/Compilers/Microchip/MPLAB C32 1_11B/bin/../lib/gcc/pic32mx/3.4.4/../../../../pic32mx/lib/speed\libc.a(ctypef.o)
 .text._tolower
                0x00000000        0x8 E:/Olimex/Compilers/Microchip/MPLAB C32 1_11B/bin/../lib/gcc/pic32mx/3.4.4/../../../../pic32mx/lib/speed\libc.a(ctypef.o)
 .text._toupper
                0x00000000        0x8 E:/Olimex/Compilers/Microchip/MPLAB C32 1_11B/bin/../lib/gcc/pic32mx/3.4.4/../../../../pic32mx/lib/speed\libc.a(ctypef.o)
 .text          0x00000000        0x0 E:/Olimex/Compilers/Microchip/MPLAB C32 1_11B/bin/../lib/gcc/pic32mx/3.4.4/../../../../pic32mx/lib/speed\libc.a(malloc.o)
 .reginfo       0x00000000       0x18 E:/Olimex/Compilers/Microchip/MPLAB C32 1_11B/bin/../lib/gcc/pic32mx/3.4.4/../../../../pic32mx/lib/speed\libc.a(malloc.o)
 .pdr           0x00000000       0x60 E:/Olimex/Compilers/Microchip/MPLAB C32 1_11B/bin/../lib/gcc/pic32mx/3.4.4/../../../../pic32mx/lib/speed\libc.a(malloc.o)
 .text          0x00000000        0x0 E:/Olimex/Compilers/Microchip/MPLAB C32 1_11B/bin/../lib/gcc/pic32mx/3.4.4/../../../../pic32mx/lib/speed\libc.a(malloc_calloc.o)
 .data          0x00000000        0x0 E:/Olimex/Compilers/Microchip/MPLAB C32 1_11B/bin/../lib/gcc/pic32mx/3.4.4/../../../../pic32mx/lib/speed\libc.a(malloc_calloc.o)
 .bss           0x00000000        0x0 E:/Olimex/Compilers/Microchip/MPLAB C32 1_11B/bin/../lib/gcc/pic32mx/3.4.4/../../../../pic32mx/lib/speed\libc.a(malloc_calloc.o)
 .reginfo       0x00000000       0x18 E:/Olimex/Compilers/Microchip/MPLAB C32 1_11B/bin/../lib/gcc/pic32mx/3.4.4/../../../../pic32mx/lib/speed\libc.a(malloc_calloc.o)
 .pdr           0x00000000       0x20 E:/Olimex/Compilers/Microchip/MPLAB C32 1_11B/bin/../lib/gcc/pic32mx/3.4.4/../../../../pic32mx/lib/speed\libc.a(malloc_calloc.o)
 .text          0x00000000        0x0 E:/Olimex/Compilers/Microchip/MPLAB C32 1_11B/bin/../lib/gcc/pic32mx/3.4.4/../../../../pic32mx/lib/speed\libc.a(rand.o)
 .bss           0x00000000        0x0 E:/Olimex/Compilers/Microchip/MPLAB C32 1_11B/bin/../lib/gcc/pic32mx/3.4.4/../../../../pic32mx/lib/speed\libc.a(rand.o)
 .reginfo       0x00000000       0x18 E:/Olimex/Compilers/Microchip/MPLAB C32 1_11B/bin/../lib/gcc/pic32mx/3.4.4/../../../../pic32mx/lib/speed\libc.a(rand.o)
 .pdr           0x00000000       0x60 E:/Olimex/Compilers/Microchip/MPLAB C32 1_11B/bin/../lib/gcc/pic32mx/3.4.4/../../../../pic32mx/lib/speed\libc.a(rand.o)
 .text          0x00000000        0x0 E:/Olimex/Compilers/Microchip/MPLAB C32 1_11B/bin/../lib/gcc/pic32mx/3.4.4/../../../../pic32mx/lib/speed\libc.a(errno.o)
 .data          0x00000000        0x0 E:/Olimex/Compilers/Microchip/MPLAB C32 1_11B/bin/../lib/gcc/pic32mx/3.4.4/../../../../pic32mx/lib/speed\libc.a(errno.o)
 .bss           0x00000000        0x0 E:/Olimex/Compilers/Microchip/MPLAB C32 1_11B/bin/../lib/gcc/pic32mx/3.4.4/../../../../pic32mx/lib/speed\libc.a(errno.o)
 .reginfo       0x00000000       0x18 E:/Olimex/Compilers/Microchip/MPLAB C32 1_11B/bin/../lib/gcc/pic32mx/3.4.4/../../../../pic32mx/lib/speed\libc.a(errno.o)
 .pdr           0x00000000        0x0 E:/Olimex/Compilers/Microchip/MPLAB C32 1_11B/bin/../lib/gcc/pic32mx/3.4.4/../../../../pic32mx/lib/speed\libc.a(errno.o)
 .text          0x00000000        0x0 E:/Olimex/Compilers/Microchip/MPLAB C32 1_11B/bin/../lib/gcc/pic32mx/3.4.4/../../../../pic32mx/lib/speed\libc.a(strtol.o)
 .data          0x00000000        0x0 E:/Olimex/Compilers/Microchip/MPLAB C32 1_11B/bin/../lib/gcc/pic32mx/3.4.4/../../../../pic32mx/lib/speed\libc.a(strtol.o)
 .bss           0x00000000        0x0 E:/Olimex/Compilers/Microchip/MPLAB C32 1_11B/bin/../lib/gcc/pic32mx/3.4.4/../../../../pic32mx/lib/speed\libc.a(strtol.o)
 .reginfo       0x00000000       0x18 E:/Olimex/Compilers/Microchip/MPLAB C32 1_11B/bin/../lib/gcc/pic32mx/3.4.4/../../../../pic32mx/lib/speed\libc.a(strtol.o)
 .pdr           0x00000000       0x20 E:/Olimex/Compilers/Microchip/MPLAB C32 1_11B/bin/../lib/gcc/pic32mx/3.4.4/../../../../pic32mx/lib/speed\libc.a(strtol.o)
 .text          0x00000000        0x0 E:/Olimex/Compilers/Microchip/MPLAB C32 1_11B/bin/../lib/gcc/pic32mx/3.4.4/../../../../pic32mx/lib/speed\libc.a(strtod.o)
 .data          0x00000000        0x0 E:/Olimex/Compilers/Microchip/MPLAB C32 1_11B/bin/../lib/gcc/pic32mx/3.4.4/../../../../pic32mx/lib/speed\libc.a(strtod.o)
 .bss           0x00000000        0x0 E:/Olimex/Compilers/Microchip/MPLAB C32 1_11B/bin/../lib/gcc/pic32mx/3.4.4/../../../../pic32mx/lib/speed\libc.a(strtod.o)
 .reginfo       0x00000000       0x18 E:/Olimex/Compilers/Microchip/MPLAB C32 1_11B/bin/../lib/gcc/pic32mx/3.4.4/../../../../pic32mx/lib/speed\libc.a(strtod.o)
 .pdr           0x00000000       0x20 E:/Olimex/Compilers/Microchip/MPLAB C32 1_11B/bin/../lib/gcc/pic32mx/3.4.4/../../../../pic32mx/lib/speed\libc.a(strtod.o)
 .text          0x00000000        0x0 E:/Olimex/Compilers/Microchip/MPLAB C32 1_11B/bin/../lib/gcc/pic32mx/3.4.4/../../../../pic32mx/lib/speed\libc.a(sprintf.o)
 .data          0x00000000        0x0 E:/Olimex/Compilers/Microchip/MPLAB C32 1_11B/bin/../lib/gcc/pic32mx/3.4.4/../../../../pic32mx/lib/speed\libc.a(sprintf.o)
 .bss           0x00000000        0x0 E:/Olimex/Compilers/Microchip/MPLAB C32 1_11B/bin/../lib/gcc/pic32mx/3.4.4/../../../../pic32mx/lib/speed\libc.a(sprintf.o)
 .reginfo       0x00000000       0x18 E:/Olimex/Compilers/Microchip/MPLAB C32 1_11B/bin/../lib/gcc/pic32mx/3.4.4/../../../../pic32mx/lib/speed\libc.a(sprintf.o)
 .pdr           0x00000000       0x20 E:/Olimex/Compilers/Microchip/MPLAB C32 1_11B/bin/../lib/gcc/pic32mx/3.4.4/../../../../pic32mx/lib/speed\libc.a(sprintf.o)
 .text          0x00000000        0x0 E:/Olimex/Compilers/Microchip/MPLAB C32 1_11B/bin/../lib/gcc/pic32mx/3.4.4/../../../../pic32mx/lib/speed\libc.a(__vsnprintf.o)
 .data          0x00000000        0x0 E:/Olimex/Compilers/Microchip/MPLAB C32 1_11B/bin/../lib/gcc/pic32mx/3.4.4/../../../../pic32mx/lib/speed\libc.a(__vsnprintf.o)
 .bss           0x00000000        0x0 E:/Olimex/Compilers/Microchip/MPLAB C32 1_11B/bin/../lib/gcc/pic32mx/3.4.4/../../../../pic32mx/lib/speed\libc.a(__vsnprintf.o)
 .reginfo       0x00000000       0x18 E:/Olimex/Compilers/Microchip/MPLAB C32 1_11B/bin/../lib/gcc/pic32mx/3.4.4/../../../../pic32mx/lib/speed\libc.a(__vsnprintf.o)
 .pdr           0x00000000       0x20 E:/Olimex/Compilers/Microchip/MPLAB C32 1_11B/bin/../lib/gcc/pic32mx/3.4.4/../../../../pic32mx/lib/speed\libc.a(__vsnprintf.o)
 .text          0x00000000        0x0 E:/Olimex/Compilers/Microchip/MPLAB C32 1_11B/bin/../lib/gcc/pic32mx/3.4.4/../../../../pic32mx/lib/speed\libc.a(stubs.o)
 .data          0x00000000        0x0 E:/Olimex/Compilers/Microchip/MPLAB C32 1_11B/bin/../lib/gcc/pic32mx/3.4.4/../../../../pic32mx/lib/speed\libc.a(stubs.o)
 .bss           0x00000000        0x4 E:/Olimex/Compilers/Microchip/MPLAB C32 1_11B/bin/../lib/gcc/pic32mx/3.4.4/../../../../pic32mx/lib/speed\libc.a(stubs.o)
 .reginfo       0x00000000       0x18 E:/Olimex/Compilers/Microchip/MPLAB C32 1_11B/bin/../lib/gcc/pic32mx/3.4.4/../../../../pic32mx/lib/speed\libc.a(stubs.o)
 .pdr           0x00000000      0x2c0 E:/Olimex/Compilers/Microchip/MPLAB C32 1_11B/bin/../lib/gcc/pic32mx/3.4.4/../../../../pic32mx/lib/speed\libc.a(stubs.o)
 .text._weak_pthread_mutex_init
                0x00000000        0x8 E:/Olimex/Compilers/Microchip/MPLAB C32 1_11B/bin/../lib/gcc/pic32mx/3.4.4/../../../../pic32mx/lib/speed\libc.a(stubs.o)
 .text._weak_pthread_mutex_destroy
                0x00000000        0x8 E:/Olimex/Compilers/Microchip/MPLAB C32 1_11B/bin/../lib/gcc/pic32mx/3.4.4/../../../../pic32mx/lib/speed\libc.a(stubs.o)
 .text._weak_pthread_mutex_trylock
                0x00000000        0x8 E:/Olimex/Compilers/Microchip/MPLAB C32 1_11B/bin/../lib/gcc/pic32mx/3.4.4/../../../../pic32mx/lib/speed\libc.a(stubs.o)
 .text._weak_pthread_mutex_setname_np
                0x00000000        0x8 E:/Olimex/Compilers/Microchip/MPLAB C32 1_11B/bin/../lib/gcc/pic32mx/3.4.4/../../../../pic32mx/lib/speed\libc.a(stubs.o)
 .text._weak_pthread_mutexattr_init
                0x00000000        0x8 E:/Olimex/Compilers/Microchip/MPLAB C32 1_11B/bin/../lib/gcc/pic32mx/3.4.4/../../../../pic32mx/lib/speed\libc.a(stubs.o)
 .text._weak_pthread_mutexattr_destroy
                0x00000000        0x8 E:/Olimex/Compilers/Microchip/MPLAB C32 1_11B/bin/../lib/gcc/pic32mx/3.4.4/../../../../pic32mx/lib/speed\libc.a(stubs.o)
 .text._weak_pthread_mutexattr_setname_np
                0x00000000        0x8 E:/Olimex/Compilers/Microchip/MPLAB C32 1_11B/bin/../lib/gcc/pic32mx/3.4.4/../../../../pic32mx/lib/speed\libc.a(stubs.o)
 .text._weak_pthread_mutexattr_settype_np
                0x00000000        0x8 E:/Olimex/Compilers/Microchip/MPLAB C32 1_11B/bin/../lib/gcc/pic32mx/3.4.4/../../../../pic32mx/lib/speed\libc.a(stubs.o)
 .text._weak_pthread_sysconf_np
                0x00000000        0x8 E:/Olimex/Compilers/Microchip/MPLAB C32 1_11B/bin/../lib/gcc/pic32mx/3.4.4/../../../../pic32mx/lib/speed\libc.a(stubs.o)
 .text._weak_pthread_sigdisable_np
                0x00000000        0x8 E:/Olimex/Compilers/Microchip/MPLAB C32 1_11B/bin/../lib/gcc/pic32mx/3.4.4/../../../../pic32mx/lib/speed\libc.a(stubs.o)
 .text._weak_pthread_sigrestore_np
                0x00000000        0x8 E:/Olimex/Compilers/Microchip/MPLAB C32 1_11B/bin/../lib/gcc/pic32mx/3.4.4/../../../../pic32mx/lib/speed\libc.a(stubs.o)
 .text._weak__pthread_cleanup_push
                0x00000000        0x8 E:/Olimex/Compilers/Microchip/MPLAB C32 1_11B/bin/../lib/gcc/pic32mx/3.4.4/../../../../pic32mx/lib/speed\libc.a(stubs.o)
 .text._weak__pthread_cleanup_pop
                0x00000000        0x8 E:/Olimex/Compilers/Microchip/MPLAB C32 1_11B/bin/../lib/gcc/pic32mx/3.4.4/../../../../pic32mx/lib/speed\libc.a(stubs.o)
 .text._weak__pthread_cleanup_push_defer
                0x00000000        0x8 E:/Olimex/Compilers/Microchip/MPLAB C32 1_11B/bin/../lib/gcc/pic32mx/3.4.4/../../../../pic32mx/lib/speed\libc.a(stubs.o)
 .text._weak__pthread_cleanup_pop_restore
                0x00000000        0x8 E:/Olimex/Compilers/Microchip/MPLAB C32 1_11B/bin/../lib/gcc/pic32mx/3.4.4/../../../../pic32mx/lib/speed\libc.a(stubs.o)
 .text._weak_pthread_once
                0x00000000       0x2c E:/Olimex/Compilers/Microchip/MPLAB C32 1_11B/bin/../lib/gcc/pic32mx/3.4.4/../../../../pic32mx/lib/speed\libc.a(stubs.o)
 .text._weak_pthread_key_create
                0x00000000        0x8 E:/Olimex/Compilers/Microchip/MPLAB C32 1_11B/bin/../lib/gcc/pic32mx/3.4.4/../../../../pic32mx/lib/speed\libc.a(stubs.o)
 .text._weak_pthread_setspecific
                0x00000000        0x8 E:/Olimex/Compilers/Microchip/MPLAB C32 1_11B/bin/../lib/gcc/pic32mx/3.4.4/../../../../pic32mx/lib/speed\libc.a(stubs.o)
 .text._weak_pthread_getspecific
                0x00000000        0x8 E:/Olimex/Compilers/Microchip/MPLAB C32 1_11B/bin/../lib/gcc/pic32mx/3.4.4/../../../../pic32mx/lib/speed\libc.a(stubs.o)
 .text          0x00000000        0x0 E:/Olimex/Compilers/Microchip/MPLAB C32 1_11B/bin/../lib/gcc/pic32mx/3.4.4/../../../../pic32mx/lib/speed\libc.a(sbrk.o)
 .reginfo       0x00000000       0x18 E:/Olimex/Compilers/Microchip/MPLAB C32 1_11B/bin/../lib/gcc/pic32mx/3.4.4/../../../../pic32mx/lib/speed\libc.a(sbrk.o)
 .pdr           0x00000000       0xa0 E:/Olimex/Compilers/Microchip/MPLAB C32 1_11B/bin/../lib/gcc/pic32mx/3.4.4/../../../../pic32mx/lib/speed\libc.a(sbrk.o)
 .text          0x00000000        0x0 E:/Olimex/Compilers/Microchip/MPLAB C32 1_11B/bin/../lib/gcc/pic32mx/3.4.4/../../../../pic32mx/lib/speed\libc.a(default-bootstrap-exception-handler.o)
 .data          0x00000000        0x0 E:/Olimex/Compilers/Microchip/MPLAB C32 1_11B/bin/../lib/gcc/pic32mx/3.4.4/../../../../pic32mx/lib/speed\libc.a(default-bootstrap-exception-handler.o)
 .bss           0x00000000        0x0 E:/Olimex/Compilers/Microchip/MPLAB C32 1_11B/bin/../lib/gcc/pic32mx/3.4.4/../../../../pic32mx/lib/speed\libc.a(default-bootstrap-exception-handler.o)
 .reginfo       0x00000000       0x18 E:/Olimex/Compilers/Microchip/MPLAB C32 1_11B/bin/../lib/gcc/pic32mx/3.4.4/../../../../pic32mx/lib/speed\libc.a(default-bootstrap-exception-handler.o)
 .pdr           0x00000000       0x20 E:/Olimex/Compilers/Microchip/MPLAB C32 1_11B/bin/../lib/gcc/pic32mx/3.4.4/../../../../pic32mx/lib/speed\libc.a(default-bootstrap-exception-handler.o)
 .text          0x00000000        0x0 E:/Olimex/Compilers/Microchip/MPLAB C32 1_11B/bin/../lib/gcc/pic32mx/3.4.4/../../../../pic32mx/lib/speed\libc.a(default-on-reset.o)
 .data          0x00000000        0x0 E:/Olimex/Compilers/Microchip/MPLAB C32 1_11B/bin/../lib/gcc/pic32mx/3.4.4/../../../../pic32mx/lib/speed\libc.a(default-on-reset.o)
 .bss           0x00000000        0x0 E:/Olimex/Compilers/Microchip/MPLAB C32 1_11B/bin/../lib/gcc/pic32mx/3.4.4/../../../../pic32mx/lib/speed\libc.a(default-on-reset.o)
 .reginfo       0x00000000       0x18 E:/Olimex/Compilers/Microchip/MPLAB C32 1_11B/bin/../lib/gcc/pic32mx/3.4.4/../../../../pic32mx/lib/speed\libc.a(default-on-reset.o)
 .pdr           0x00000000       0x20 E:/Olimex/Compilers/Microchip/MPLAB C32 1_11B/bin/../lib/gcc/pic32mx/3.4.4/../../../../pic32mx/lib/speed\libc.a(default-on-reset.o)
 .text          0x00000000        0x0 E:/Olimex/Compilers/Microchip/MPLAB C32 1_11B/bin/../lib/gcc/pic32mx/3.4.4/../../../../pic32mx/lib/speed\libc.a(default-on-bootstrap.o)
 .data          0x00000000        0x0 E:/Olimex/Compilers/Microchip/MPLAB C32 1_11B/bin/../lib/gcc/pic32mx/3.4.4/../../../../pic32mx/lib/speed\libc.a(default-on-bootstrap.o)
 .bss           0x00000000        0x0 E:/Olimex/Compilers/Microchip/MPLAB C32 1_11B/bin/../lib/gcc/pic32mx/3.4.4/../../../../pic32mx/lib/speed\libc.a(default-on-bootstrap.o)
 .reginfo       0x00000000       0x18 E:/Olimex/Compilers/Microchip/MPLAB C32 1_11B/bin/../lib/gcc/pic32mx/3.4.4/../../../../pic32mx/lib/speed\libc.a(default-on-bootstrap.o)
 .pdr           0x00000000       0x20 E:/Olimex/Compilers/Microchip/MPLAB C32 1_11B/bin/../lib/gcc/pic32mx/3.4.4/../../../../pic32mx/lib/speed\libc.a(default-on-bootstrap.o)
 .data          0x00000000        0x0 E:/Olimex/Compilers/Microchip/MPLAB C32 1_11B/bin/../lib/gcc/pic32mx/3.4.4/../../../../pic32mx/lib/speed\libc.a(default-nmi-handler.o)
 .bss           0x00000000        0x0 E:/Olimex/Compilers/Microchip/MPLAB C32 1_11B/bin/../lib/gcc/pic32mx/3.4.4/../../../../pic32mx/lib/speed\libc.a(default-nmi-handler.o)
 .reginfo       0x00000000       0x18 E:/Olimex/Compilers/Microchip/MPLAB C32 1_11B/bin/../lib/gcc/pic32mx/3.4.4/../../../../pic32mx/lib/speed\libc.a(default-nmi-handler.o)
 .pdr           0x00000000       0x20 E:/Olimex/Compilers/Microchip/MPLAB C32 1_11B/bin/../lib/gcc/pic32mx/3.4.4/../../../../pic32mx/lib/speed\libc.a(default-nmi-handler.o)
 .text          0x00000000        0x0 E:/Olimex/Compilers/Microchip/MPLAB C32 1_11B/bin/../lib/gcc/pic32mx/3.4.4/../../../../pic32mx/lib/speed\libc.a(_exit.o)
 .data          0x00000000        0x0 E:/Olimex/Compilers/Microchip/MPLAB C32 1_11B/bin/../lib/gcc/pic32mx/3.4.4/../../../../pic32mx/lib/speed\libc.a(_exit.o)
 .bss           0x00000000        0x0 E:/Olimex/Compilers/Microchip/MPLAB C32 1_11B/bin/../lib/gcc/pic32mx/3.4.4/../../../../pic32mx/lib/speed\libc.a(_exit.o)
 .reginfo       0x00000000       0x18 E:/Olimex/Compilers/Microchip/MPLAB C32 1_11B/bin/../lib/gcc/pic32mx/3.4.4/../../../../pic32mx/lib/speed\libc.a(_exit.o)
 .pdr           0x00000000       0x20 E:/Olimex/Compilers/Microchip/MPLAB C32 1_11B/bin/../lib/gcc/pic32mx/3.4.4/../../../../pic32mx/lib/speed\libc.a(_exit.o)
 .text          0x00000000        0x0 E:/Olimex/Compilers/Microchip/MPLAB C32 1_11B/bin/../lib/gcc/pic32mx/3.4.4/../../../../pic32mx/lib/speed\libc.a(_doprnt.o)
 .data          0x00000000        0x0 E:/Olimex/Compilers/Microchip/MPLAB C32 1_11B/bin/../lib/gcc/pic32mx/3.4.4/../../../../pic32mx/lib/speed\libc.a(_doprnt.o)
 .bss           0x00000000        0x0 E:/Olimex/Compilers/Microchip/MPLAB C32 1_11B/bin/../lib/gcc/pic32mx/3.4.4/../../../../pic32mx/lib/speed\libc.a(_doprnt.o)
 .reginfo       0x00000000       0x18 E:/Olimex/Compilers/Microchip/MPLAB C32 1_11B/bin/../lib/gcc/pic32mx/3.4.4/../../../../pic32mx/lib/speed\libc.a(_doprnt.o)
 .pdr           0x00000000       0xc0 E:/Olimex/Compilers/Microchip/MPLAB C32 1_11B/bin/../lib/gcc/pic32mx/3.4.4/../../../../pic32mx/lib/speed\libc.a(_doprnt.o)
 .text._io_exit
                0x00000000       0x40 E:/Olimex/Compilers/Microchip/MPLAB C32 1_11B/bin/../lib/gcc/pic32mx/3.4.4/../../../../pic32mx/lib/speed\libc.a(_doprnt.o)
 .text          0x00000000        0x0 E:/Olimex/Compilers/Microchip/MPLAB C32 1_11B/bin/../lib/gcc/pic32mx/3.4.4/../../../../pic32mx/lib/speed\libc.a(_iobdata.o)
 .data          0x00000000       0xd4 E:/Olimex/Compilers/Microchip/MPLAB C32 1_11B/bin/../lib/gcc/pic32mx/3.4.4/../../../../pic32mx/lib/speed\libc.a(_iobdata.o)
 .bss           0x00000000       0x88 E:/Olimex/Compilers/Microchip/MPLAB C32 1_11B/bin/../lib/gcc/pic32mx/3.4.4/../../../../pic32mx/lib/speed\libc.a(_iobdata.o)
 .reginfo       0x00000000       0x18 E:/Olimex/Compilers/Microchip/MPLAB C32 1_11B/bin/../lib/gcc/pic32mx/3.4.4/../../../../pic32mx/lib/speed\libc.a(_iobdata.o)
 .pdr           0x00000000        0x0 E:/Olimex/Compilers/Microchip/MPLAB C32 1_11B/bin/../lib/gcc/pic32mx/3.4.4/../../../../pic32mx/lib/speed\libc.a(_iobdata.o)
 .sdata         0x00000000        0x4 E:/Olimex/Compilers/Microchip/MPLAB C32 1_11B/bin/../lib/gcc/pic32mx/3.4.4/../../../../pic32mx/lib/speed\libc.a(_iobdata.o)
 .rodata        0x00000000       0x14 E:/Olimex/Compilers/Microchip/MPLAB C32 1_11B/bin/../lib/gcc/pic32mx/3.4.4/../../../../pic32mx/lib/speed\libc.a(_iobdata.o)
 .text          0x00000000        0x0 E:/Olimex/Compilers/Microchip/MPLAB C32 1_11B/bin/../lib/gcc/pic32mx/3.4.4/../../../../pic32mx/lib/speed\libc.a(_iobfuncs.o)
 .data          0x00000000        0x0 E:/Olimex/Compilers/Microchip/MPLAB C32 1_11B/bin/../lib/gcc/pic32mx/3.4.4/../../../../pic32mx/lib/speed\libc.a(_iobfuncs.o)
 .bss           0x00000000       0x20 E:/Olimex/Compilers/Microchip/MPLAB C32 1_11B/bin/../lib/gcc/pic32mx/3.4.4/../../../../pic32mx/lib/speed\libc.a(_iobfuncs.o)
 .reginfo       0x00000000       0x18 E:/Olimex/Compilers/Microchip/MPLAB C32 1_11B/bin/../lib/gcc/pic32mx/3.4.4/../../../../pic32mx/lib/speed\libc.a(_iobfuncs.o)
 .pdr           0x00000000       0xc0 E:/Olimex/Compilers/Microchip/MPLAB C32 1_11B/bin/../lib/gcc/pic32mx/3.4.4/../../../../pic32mx/lib/speed\libc.a(_iobfuncs.o)
 .text._filbuf_simple
                0x00000000       0x28 E:/Olimex/Compilers/Microchip/MPLAB C32 1_11B/bin/../lib/gcc/pic32mx/3.4.4/../../../../pic32mx/lib/speed\libc.a(_iobfuncs.o)
 .text._fflush_simple
                0x00000000       0x68 E:/Olimex/Compilers/Microchip/MPLAB C32 1_11B/bin/../lib/gcc/pic32mx/3.4.4/../../../../pic32mx/lib/speed\libc.a(_iobfuncs.o)
 .text._flsbuf_simple
                0x00000000       0xe8 E:/Olimex/Compilers/Microchip/MPLAB C32 1_11B/bin/../lib/gcc/pic32mx/3.4.4/../../../../pic32mx/lib/speed\libc.a(_iobfuncs.o)
 .text._fwrite_simple
                0x00000000       0x84 E:/Olimex/Compilers/Microchip/MPLAB C32 1_11B/bin/../lib/gcc/pic32mx/3.4.4/../../../../pic32mx/lib/speed\libc.a(_iobfuncs.o)
 .text._fsync_simple
                0x00000000       0x34 E:/Olimex/Compilers/Microchip/MPLAB C32 1_11B/bin/../lib/gcc/pic32mx/3.4.4/../../../../pic32mx/lib/speed\libc.a(_iobfuncs.o)
 .text._io_exit
                0x00000000       0x40 E:/Olimex/Compilers/Microchip/MPLAB C32 1_11B/bin/../lib/gcc/pic32mx/3.4.4/../../../../pic32mx/lib/speed\libc.a(_iobfuncs.o)
 .text          0x00000000        0x0 E:/Olimex/Compilers/Microchip/MPLAB C32 1_11B/bin/../lib/gcc/pic32mx/3.4.4/../../../../pic32mx/lib/speed\libc.a(_iobstring.o)
 .data          0x00000000        0x0 E:/Olimex/Compilers/Microchip/MPLAB C32 1_11B/bin/../lib/gcc/pic32mx/3.4.4/../../../../pic32mx/lib/speed\libc.a(_iobstring.o)
 .bss           0x00000000        0x0 E:/Olimex/Compilers/Microchip/MPLAB C32 1_11B/bin/../lib/gcc/pic32mx/3.4.4/../../../../pic32mx/lib/speed\libc.a(_iobstring.o)
 .reginfo       0x00000000       0x18 E:/Olimex/Compilers/Microchip/MPLAB C32 1_11B/bin/../lib/gcc/pic32mx/3.4.4/../../../../pic32mx/lib/speed\libc.a(_iobstring.o)
 .pdr           0x00000000       0xa0 E:/Olimex/Compilers/Microchip/MPLAB C32 1_11B/bin/../lib/gcc/pic32mx/3.4.4/../../../../pic32mx/lib/speed\libc.a(_iobstring.o)
 .text          0x00000000        0x0 E:/Olimex/Compilers/Microchip/MPLAB C32 1_11B/bin/../lib/gcc/pic32mx/3.4.4/../../../../pic32mx/lib/speed\libc.a(fputc.o)
 .data          0x00000000        0x0 E:/Olimex/Compilers/Microchip/MPLAB C32 1_11B/bin/../lib/gcc/pic32mx/3.4.4/../../../../pic32mx/lib/speed\libc.a(fputc.o)
 .bss           0x00000000        0x0 E:/Olimex/Compilers/Microchip/MPLAB C32 1_11B/bin/../lib/gcc/pic32mx/3.4.4/../../../../pic32mx/lib/speed\libc.a(fputc.o)
 .reginfo       0x00000000       0x18 E:/Olimex/Compilers/Microchip/MPLAB C32 1_11B/bin/../lib/gcc/pic32mx/3.4.4/../../../../pic32mx/lib/speed\libc.a(fputc.o)
 .pdr           0x00000000       0x60 E:/Olimex/Compilers/Microchip/MPLAB C32 1_11B/bin/../lib/gcc/pic32mx/3.4.4/../../../../pic32mx/lib/speed\libc.a(fputc.o)
 .text.putc     0x00000000        0x8 E:/Olimex/Compilers/Microchip/MPLAB C32 1_11B/bin/../lib/gcc/pic32mx/3.4.4/../../../../pic32mx/lib/speed\libc.a(fputc.o)
 .text.putchar  0x00000000       0x10 E:/Olimex/Compilers/Microchip/MPLAB C32 1_11B/bin/../lib/gcc/pic32mx/3.4.4/../../../../pic32mx/lib/speed\libc.a(fputc.o)
 .text          0x00000000        0x0 E:/Olimex/Compilers/Microchip/MPLAB C32 1_11B/bin/../lib/gcc/pic32mx/3.4.4/../../../../pic32mx/lib/speed\libc.a(_mon_getc.o)
 .data          0x00000000        0x0 E:/Olimex/Compilers/Microchip/MPLAB C32 1_11B/bin/../lib/gcc/pic32mx/3.4.4/../../../../pic32mx/lib/speed\libc.a(_mon_getc.o)
 .bss           0x00000000        0x0 E:/Olimex/Compilers/Microchip/MPLAB C32 1_11B/bin/../lib/gcc/pic32mx/3.4.4/../../../../pic32mx/lib/speed\libc.a(_mon_getc.o)
 .reginfo       0x00000000       0x18 E:/Olimex/Compilers/Microchip/MPLAB C32 1_11B/bin/../lib/gcc/pic32mx/3.4.4/../../../../pic32mx/lib/speed\libc.a(_mon_getc.o)
 .pdr           0x00000000       0x20 E:/Olimex/Compilers/Microchip/MPLAB C32 1_11B/bin/../lib/gcc/pic32mx/3.4.4/../../../../pic32mx/lib/speed\libc.a(_mon_getc.o)
 .text._mon_getc
                0x00000000        0x8 E:/Olimex/Compilers/Microchip/MPLAB C32 1_11B/bin/../lib/gcc/pic32mx/3.4.4/../../../../pic32mx/lib/speed\libc.a(_mon_getc.o)
 .text          0x00000000        0x0 E:/Olimex/Compilers/Microchip/MPLAB C32 1_11B/bin/../lib/gcc/pic32mx/3.4.4/../../../../pic32mx/lib/speed\libc.a(_mon_write.o)
 .data          0x00000000        0x0 E:/Olimex/Compilers/Microchip/MPLAB C32 1_11B/bin/../lib/gcc/pic32mx/3.4.4/../../../../pic32mx/lib/speed\libc.a(_mon_write.o)
 .bss           0x00000000        0x0 E:/Olimex/Compilers/Microchip/MPLAB C32 1_11B/bin/../lib/gcc/pic32mx/3.4.4/../../../../pic32mx/lib/speed\libc.a(_mon_write.o)
 .reginfo       0x00000000       0x18 E:/Olimex/Compilers/Microchip/MPLAB C32 1_11B/bin/../lib/gcc/pic32mx/3.4.4/../../../../pic32mx/lib/speed\libc.a(_mon_write.o)
 .pdr           0x00000000       0x20 E:/Olimex/Compilers/Microchip/MPLAB C32 1_11B/bin/../lib/gcc/pic32mx/3.4.4/../../../../pic32mx/lib/speed\libc.a(_mon_write.o)
 .text._mon_write
                0x00000000       0x4c E:/Olimex/Compilers/Microchip/MPLAB C32 1_11B/bin/../lib/gcc/pic32mx/3.4.4/../../../../pic32mx/lib/speed\libc.a(_mon_write.o)
 .text          0x00000000        0x0 E:/Olimex/Compilers/Microchip/MPLAB C32 1_11B/bin/../lib/gcc/pic32mx/3.4.4/../../../../pic32mx/lib/speed\libc.a(fullexit.o)
 .data          0x00000000       0x20 E:/Olimex/Compilers/Microchip/MPLAB C32 1_11B/bin/../lib/gcc/pic32mx/3.4.4/../../../../pic32mx/lib/speed\libc.a(fullexit.o)
 .bss           0x00000000        0x0 E:/Olimex/Compilers/Microchip/MPLAB C32 1_11B/bin/../lib/gcc/pic32mx/3.4.4/../../../../pic32mx/lib/speed\libc.a(fullexit.o)
 .reginfo       0x00000000       0x18 E:/Olimex/Compilers/Microchip/MPLAB C32 1_11B/bin/../lib/gcc/pic32mx/3.4.4/../../../../pic32mx/lib/speed\libc.a(fullexit.o)
 .pdr           0x00000000       0x20 E:/Olimex/Compilers/Microchip/MPLAB C32 1_11B/bin/../lib/gcc/pic32mx/3.4.4/../../../../pic32mx/lib/speed\libc.a(fullexit.o)
 .text._fullexit
                0x00000000       0xa4 E:/Olimex/Compilers/Microchip/MPLAB C32 1_11B/bin/../lib/gcc/pic32mx/3.4.4/../../../../pic32mx/lib/speed\libc.a(fullexit.o)
 .text          0x00000000        0x0 E:/Olimex/Compilers/Microchip/MPLAB C32 1_11B/bin/../lib/gcc/pic32mx/3.4.4/../../../../pic32mx/lib/speed\libc.a(_mon_putc.o)
 .data          0x00000000        0x0 E:/Olimex/Compilers/Microchip/MPLAB C32 1_11B/bin/../lib/gcc/pic32mx/3.4.4/../../../../pic32mx/lib/speed\libc.a(_mon_putc.o)
 .bss           0x00000000        0x0 E:/Olimex/Compilers/Microchip/MPLAB C32 1_11B/bin/../lib/gcc/pic32mx/3.4.4/../../../../pic32mx/lib/speed\libc.a(_mon_putc.o)
 .reginfo       0x00000000       0x18 E:/Olimex/Compilers/Microchip/MPLAB C32 1_11B/bin/../lib/gcc/pic32mx/3.4.4/../../../../pic32mx/lib/speed\libc.a(_mon_putc.o)
 .pdr           0x00000000       0x20 E:/Olimex/Compilers/Microchip/MPLAB C32 1_11B/bin/../lib/gcc/pic32mx/3.4.4/../../../../pic32mx/lib/speed\libc.a(_mon_putc.o)
 .text._mon_putc
                0x00000000       0x28 E:/Olimex/Compilers/Microchip/MPLAB C32 1_11B/bin/../lib/gcc/pic32mx/3.4.4/../../../../pic32mx/lib/speed\libc.a(_mon_putc.o)
 .data          0x00000000        0x0 E:/Olimex/Compilers/Microchip/MPLAB C32 1_11B/bin/../lib/gcc/pic32mx/3.4.4/../../../../pic32mx/lib/speed\libm.a(mod32.o)
 .bss           0x00000000        0x0 E:/Olimex/Compilers/Microchip/MPLAB C32 1_11B/bin/../lib/gcc/pic32mx/3.4.4/../../../../pic32mx/lib/speed\libm.a(mod32.o)
 .reginfo       0x00000000       0x18 E:/Olimex/Compilers/Microchip/MPLAB C32 1_11B/bin/../lib/gcc/pic32mx/3.4.4/../../../../pic32mx/lib/speed\libm.a(mod32.o)
 .pdr           0x00000000        0x0 E:/Olimex/Compilers/Microchip/MPLAB C32 1_11B/bin/../lib/gcc/pic32mx/3.4.4/../../../../pic32mx/lib/speed\libm.a(mod32.o)
 .text          0x00000000        0x0 E:/Olimex/Compilers/Microchip/MPLAB C32 1_11B/bin/../lib/gcc/pic32mx/3.4.4/../../../../pic32mx/lib/speed\libm.a(w_pow.o)
 .data          0x00000000        0x0 E:/Olimex/Compilers/Microchip/MPLAB C32 1_11B/bin/../lib/gcc/pic32mx/3.4.4/../../../../pic32mx/lib/speed\libm.a(w_pow.o)
 .bss           0x00000000        0x0 E:/Olimex/Compilers/Microchip/MPLAB C32 1_11B/bin/../lib/gcc/pic32mx/3.4.4/../../../../pic32mx/lib/speed\libm.a(w_pow.o)
 .reginfo       0x00000000       0x18 E:/Olimex/Compilers/Microchip/MPLAB C32 1_11B/bin/../lib/gcc/pic32mx/3.4.4/../../../../pic32mx/lib/speed\libm.a(w_pow.o)
 .pdr           0x00000000       0x20 E:/Olimex/Compilers/Microchip/MPLAB C32 1_11B/bin/../lib/gcc/pic32mx/3.4.4/../../../../pic32mx/lib/speed\libm.a(w_pow.o)
 .bss           0x00000000        0x0 E:/Olimex/Compilers/Microchip/MPLAB C32 1_11B/bin/../lib/gcc/pic32mx/3.4.4/../../../../pic32mx/lib/speed\libm.a(fparc32.o)
 .reginfo       0x00000000       0x18 E:/Olimex/Compilers/Microchip/MPLAB C32 1_11B/bin/../lib/gcc/pic32mx/3.4.4/../../../../pic32mx/lib/speed\libm.a(fparc32.o)
 .pdr           0x00000000        0x0 E:/Olimex/Compilers/Microchip/MPLAB C32 1_11B/bin/../lib/gcc/pic32mx/3.4.4/../../../../pic32mx/lib/speed\libm.a(fparc32.o)
 .data          0x00000000        0x0 E:/Olimex/Compilers/Microchip/MPLAB C32 1_11B/bin/../lib/gcc/pic32mx/3.4.4/../../../../pic32mx/lib/speed\libm.a(fpfloo32.o)
 .bss           0x00000000        0x0 E:/Olimex/Compilers/Microchip/MPLAB C32 1_11B/bin/../lib/gcc/pic32mx/3.4.4/../../../../pic32mx/lib/speed\libm.a(fpfloo32.o)
 .reginfo       0x00000000       0x18 E:/Olimex/Compilers/Microchip/MPLAB C32 1_11B/bin/../lib/gcc/pic32mx/3.4.4/../../../../pic32mx/lib/speed\libm.a(fpfloo32.o)
 .pdr           0x00000000        0x0 E:/Olimex/Compilers/Microchip/MPLAB C32 1_11B/bin/../lib/gcc/pic32mx/3.4.4/../../../../pic32mx/lib/speed\libm.a(fpfloo32.o)
 .data          0x00000000        0x0 E:/Olimex/Compilers/Microchip/MPLAB C32 1_11B/bin/../lib/gcc/pic32mx/3.4.4/../../../../pic32mx/lib/speed\libm.a(dp32.o)
 .bss           0x00000000        0x0 E:/Olimex/Compilers/Microchip/MPLAB C32 1_11B/bin/../lib/gcc/pic32mx/3.4.4/../../../../pic32mx/lib/speed\libm.a(dp32.o)
 .reginfo       0x00000000       0x18 E:/Olimex/Compilers/Microchip/MPLAB C32 1_11B/bin/../lib/gcc/pic32mx/3.4.4/../../../../pic32mx/lib/speed\libm.a(dp32.o)
 .pdr           0x00000000        0x0 E:/Olimex/Compilers/Microchip/MPLAB C32 1_11B/bin/../lib/gcc/pic32mx/3.4.4/../../../../pic32mx/lib/speed\libm.a(dp32.o)
 .data          0x00000000        0x0 E:/Olimex/Compilers/Microchip/MPLAB C32 1_11B/bin/../lib/gcc/pic32mx/3.4.4/../../../../pic32mx/lib/speed\libm.a(fpsqrt32.o)
 .bss           0x00000000        0x0 E:/Olimex/Compilers/Microchip/MPLAB C32 1_11B/bin/../lib/gcc/pic32mx/3.4.4/../../../../pic32mx/lib/speed\libm.a(fpsqrt32.o)
 .reginfo       0x00000000       0x18 E:/Olimex/Compilers/Microchip/MPLAB C32 1_11B/bin/../lib/gcc/pic32mx/3.4.4/../../../../pic32mx/lib/speed\libm.a(fpsqrt32.o)
 .pdr           0x00000000        0x0 E:/Olimex/Compilers/Microchip/MPLAB C32 1_11B/bin/../lib/gcc/pic32mx/3.4.4/../../../../pic32mx/lib/speed\libm.a(fpsqrt32.o)
 .text          0x00000000        0x0 E:/Olimex/Compilers/Microchip/MPLAB C32 1_11B/bin/../lib/gcc/pic32mx/3.4.4/../../../../pic32mx/lib/speed\libm.a(w_sqrtf.o)
 .data          0x00000000        0x0 E:/Olimex/Compilers/Microchip/MPLAB C32 1_11B/bin/../lib/gcc/pic32mx/3.4.4/../../../../pic32mx/lib/speed\libm.a(w_sqrtf.o)
 .bss           0x00000000        0x0 E:/Olimex/Compilers/Microchip/MPLAB C32 1_11B/bin/../lib/gcc/pic32mx/3.4.4/../../../../pic32mx/lib/speed\libm.a(w_sqrtf.o)
 .reginfo       0x00000000       0x18 E:/Olimex/Compilers/Microchip/MPLAB C32 1_11B/bin/../lib/gcc/pic32mx/3.4.4/../../../../pic32mx/lib/speed\libm.a(w_sqrtf.o)
 .pdr           0x00000000       0x20 E:/Olimex/Compilers/Microchip/MPLAB C32 1_11B/bin/../lib/gcc/pic32mx/3.4.4/../../../../pic32mx/lib/speed\libm.a(w_sqrtf.o)
 .data          0x00000000        0x0 E:/Olimex/Compilers/Microchip/MPLAB C32 1_11B/bin/../lib/gcc/pic32mx/3.4.4/../../../../pic32mx/lib/speed\libm.a(fp32.o)
 .bss           0x00000000        0x0 E:/Olimex/Compilers/Microchip/MPLAB C32 1_11B/bin/../lib/gcc/pic32mx/3.4.4/../../../../pic32mx/lib/speed\libm.a(fp32.o)
 .reginfo       0x00000000       0x18 E:/Olimex/Compilers/Microchip/MPLAB C32 1_11B/bin/../lib/gcc/pic32mx/3.4.4/../../../../pic32mx/lib/speed\libm.a(fp32.o)
 .pdr           0x00000000        0x0 E:/Olimex/Compilers/Microchip/MPLAB C32 1_11B/bin/../lib/gcc/pic32mx/3.4.4/../../../../pic32mx/lib/speed\libm.a(fp32.o)
 .text          0x00000000        0x0 E:/Olimex/Compilers/Microchip/MPLAB C32 1_11B/bin/../lib/gcc/pic32mx/3.4.4/../../../../pic32mx/lib/speed\libm.a(w_logf.o)
 .data          0x00000000        0x0 E:/Olimex/Compilers/Microchip/MPLAB C32 1_11B/bin/../lib/gcc/pic32mx/3.4.4/../../../../pic32mx/lib/speed\libm.a(w_logf.o)
 .bss           0x00000000        0x0 E:/Olimex/Compilers/Microchip/MPLAB C32 1_11B/bin/../lib/gcc/pic32mx/3.4.4/../../../../pic32mx/lib/speed\libm.a(w_logf.o)
 .reginfo       0x00000000       0x18 E:/Olimex/Compilers/Microchip/MPLAB C32 1_11B/bin/../lib/gcc/pic32mx/3.4.4/../../../../pic32mx/lib/speed\libm.a(w_logf.o)
 .pdr           0x00000000       0x20 E:/Olimex/Compilers/Microchip/MPLAB C32 1_11B/bin/../lib/gcc/pic32mx/3.4.4/../../../../pic32mx/lib/speed\libm.a(w_logf.o)
 .text          0x00000000        0x0 E:/Olimex/Compilers/Microchip/MPLAB C32 1_11B/bin/../lib/gcc/pic32mx/3.4.4/../../../../pic32mx/lib/speed\libm.a(w_expf.o)
 .data          0x00000000        0x0 E:/Olimex/Compilers/Microchip/MPLAB C32 1_11B/bin/../lib/gcc/pic32mx/3.4.4/../../../../pic32mx/lib/speed\libm.a(w_expf.o)
 .bss           0x00000000        0x0 E:/Olimex/Compilers/Microchip/MPLAB C32 1_11B/bin/../lib/gcc/pic32mx/3.4.4/../../../../pic32mx/lib/speed\libm.a(w_expf.o)
 .reginfo       0x00000000       0x18 E:/Olimex/Compilers/Microchip/MPLAB C32 1_11B/bin/../lib/gcc/pic32mx/3.4.4/../../../../pic32mx/lib/speed\libm.a(w_expf.o)
 .pdr           0x00000000       0x20 E:/Olimex/Compilers/Microchip/MPLAB C32 1_11B/bin/../lib/gcc/pic32mx/3.4.4/../../../../pic32mx/lib/speed\libm.a(w_expf.o)
 .bss           0x00000000        0x0 E:/Olimex/Compilers/Microchip/MPLAB C32 1_11B/bin/../lib/gcc/pic32mx/3.4.4/../../../../pic32mx/lib/speed\libm.a(fptan32.o)
 .reginfo       0x00000000       0x18 E:/Olimex/Compilers/Microchip/MPLAB C32 1_11B/bin/../lib/gcc/pic32mx/3.4.4/../../../../pic32mx/lib/speed\libm.a(fptan32.o)
 .pdr           0x00000000        0x0 E:/Olimex/Compilers/Microchip/MPLAB C32 1_11B/bin/../lib/gcc/pic32mx/3.4.4/../../../../pic32mx/lib/speed\libm.a(fptan32.o)
 .data          0x00000000        0x0 E:/Olimex/Compilers/Microchip/MPLAB C32 1_11B/bin/../lib/gcc/pic32mx/3.4.4/../../../../pic32mx/lib/speed\libm.a(fpcos32.o)
 .bss           0x00000000        0x0 E:/Olimex/Compilers/Microchip/MPLAB C32 1_11B/bin/../lib/gcc/pic32mx/3.4.4/../../../../pic32mx/lib/speed\libm.a(fpcos32.o)
 .reginfo       0x00000000       0x18 E:/Olimex/Compilers/Microchip/MPLAB C32 1_11B/bin/../lib/gcc/pic32mx/3.4.4/../../../../pic32mx/lib/speed\libm.a(fpcos32.o)
 .pdr           0x00000000        0x0 E:/Olimex/Compilers/Microchip/MPLAB C32 1_11B/bin/../lib/gcc/pic32mx/3.4.4/../../../../pic32mx/lib/speed\libm.a(fpcos32.o)
 .data          0x00000000        0x0 E:/Olimex/Compilers/Microchip/MPLAB C32 1_11B/bin/../lib/gcc/pic32mx/3.4.4/../../../../pic32mx/lib/speed\libm.a(fpsin32.o)
 .bss           0x00000000        0x0 E:/Olimex/Compilers/Microchip/MPLAB C32 1_11B/bin/../lib/gcc/pic32mx/3.4.4/../../../../pic32mx/lib/speed\libm.a(fpsin32.o)
 .reginfo       0x00000000       0x18 E:/Olimex/Compilers/Microchip/MPLAB C32 1_11B/bin/../lib/gcc/pic32mx/3.4.4/../../../../pic32mx/lib/speed\libm.a(fpsin32.o)
 .pdr           0x00000000        0x0 E:/Olimex/Compilers/Microchip/MPLAB C32 1_11B/bin/../lib/gcc/pic32mx/3.4.4/../../../../pic32mx/lib/speed\libm.a(fpsin32.o)
 .data          0x00000000        0x0 E:/Olimex/Compilers/Microchip/MPLAB C32 1_11B/bin/../lib/gcc/pic32mx/3.4.4/../../../../pic32mx/lib/speed\libm.a(fpreduct32.o)
 .bss           0x00000000        0x0 E:/Olimex/Compilers/Microchip/MPLAB C32 1_11B/bin/../lib/gcc/pic32mx/3.4.4/../../../../pic32mx/lib/speed\libm.a(fpreduct32.o)
 .reginfo       0x00000000       0x18 E:/Olimex/Compilers/Microchip/MPLAB C32 1_11B/bin/../lib/gcc/pic32mx/3.4.4/../../../../pic32mx/lib/speed\libm.a(fpreduct32.o)
 .pdr           0x00000000        0x0 E:/Olimex/Compilers/Microchip/MPLAB C32 1_11B/bin/../lib/gcc/pic32mx/3.4.4/../../../../pic32mx/lib/speed\libm.a(fpreduct32.o)
 .text          0x00000000        0x0 E:/Olimex/Compilers/Microchip/MPLAB C32 1_11B/bin/../lib/gcc/pic32mx/3.4.4/../../../../pic32mx/lib/speed\libm.a(sincof32.o)
 .bss           0x00000000        0x0 E:/Olimex/Compilers/Microchip/MPLAB C32 1_11B/bin/../lib/gcc/pic32mx/3.4.4/../../../../pic32mx/lib/speed\libm.a(sincof32.o)
 .reginfo       0x00000000       0x18 E:/Olimex/Compilers/Microchip/MPLAB C32 1_11B/bin/../lib/gcc/pic32mx/3.4.4/../../../../pic32mx/lib/speed\libm.a(sincof32.o)
 .pdr           0x00000000        0x0 E:/Olimex/Compilers/Microchip/MPLAB C32 1_11B/bin/../lib/gcc/pic32mx/3.4.4/../../../../pic32mx/lib/speed\libm.a(sincof32.o)
 .text          0x00000000        0x0 E:/Olimex/Compilers/Microchip/MPLAB C32 1_11B/bin/../lib/gcc/pic32mx/3.4.4/../../../../pic32mx/lib/speed\libm.a(s_lib_ver.o)
 .data          0x00000000        0x0 E:/Olimex/Compilers/Microchip/MPLAB C32 1_11B/bin/../lib/gcc/pic32mx/3.4.4/../../../../pic32mx/lib/speed\libm.a(s_lib_ver.o)
 .bss           0x00000000        0x0 E:/Olimex/Compilers/Microchip/MPLAB C32 1_11B/bin/../lib/gcc/pic32mx/3.4.4/../../../../pic32mx/lib/speed\libm.a(s_lib_ver.o)
 .reginfo       0x00000000       0x18 E:/Olimex/Compilers/Microchip/MPLAB C32 1_11B/bin/../lib/gcc/pic32mx/3.4.4/../../../../pic32mx/lib/speed\libm.a(s_lib_ver.o)
 .pdr           0x00000000        0x0 E:/Olimex/Compilers/Microchip/MPLAB C32 1_11B/bin/../lib/gcc/pic32mx/3.4.4/../../../../pic32mx/lib/speed\libm.a(s_lib_ver.o)
 .data          0x00000000        0x0 E:/Olimex/Compilers/Microchip/MPLAB C32 1_11B/bin/../lib/gcc/pic32mx/3.4.4/../../../../pic32mx/lib/speed\libm.a(pow32.o)
 .bss           0x00000000        0x0 E:/Olimex/Compilers/Microchip/MPLAB C32 1_11B/bin/../lib/gcc/pic32mx/3.4.4/../../../../pic32mx/lib/speed\libm.a(pow32.o)
 .reginfo       0x00000000       0x18 E:/Olimex/Compilers/Microchip/MPLAB C32 1_11B/bin/../lib/gcc/pic32mx/3.4.4/../../../../pic32mx/lib/speed\libm.a(pow32.o)
 .pdr           0x00000000        0x0 E:/Olimex/Compilers/Microchip/MPLAB C32 1_11B/bin/../lib/gcc/pic32mx/3.4.4/../../../../pic32mx/lib/speed\libm.a(pow32.o)
 .bss           0x00000000        0x0 E:/Olimex/Compilers/Microchip/MPLAB C32 1_11B/bin/../lib/gcc/pic32mx/3.4.4/../../../../pic32mx/lib/speed\libm.a(log32.o)
 .reginfo       0x00000000       0x18 E:/Olimex/Compilers/Microchip/MPLAB C32 1_11B/bin/../lib/gcc/pic32mx/3.4.4/../../../../pic32mx/lib/speed\libm.a(log32.o)
 .pdr           0x00000000        0x0 E:/Olimex/Compilers/Microchip/MPLAB C32 1_11B/bin/../lib/gcc/pic32mx/3.4.4/../../../../pic32mx/lib/speed\libm.a(log32.o)
 .data          0x00000000        0x0 E:/Olimex/Compilers/Microchip/MPLAB C32 1_11B/bin/../lib/gcc/pic32mx/3.4.4/../../../../pic32mx/lib/speed\libm.a(func32.o)
 .bss           0x00000000        0x0 E:/Olimex/Compilers/Microchip/MPLAB C32 1_11B/bin/../lib/gcc/pic32mx/3.4.4/../../../../pic32mx/lib/speed\libm.a(func32.o)
 .reginfo       0x00000000       0x18 E:/Olimex/Compilers/Microchip/MPLAB C32 1_11B/bin/../lib/gcc/pic32mx/3.4.4/../../../../pic32mx/lib/speed\libm.a(func32.o)
 .pdr           0x00000000        0x0 E:/Olimex/Compilers/Microchip/MPLAB C32 1_11B/bin/../lib/gcc/pic32mx/3.4.4/../../../../pic32mx/lib/speed\libm.a(func32.o)
 .bss           0x00000000        0x0 E:/Olimex/Compilers/Microchip/MPLAB C32 1_11B/bin/../lib/gcc/pic32mx/3.4.4/../../../../pic32mx/lib/speed\libm.a(fplog32.o)
 .reginfo       0x00000000       0x18 E:/Olimex/Compilers/Microchip/MPLAB C32 1_11B/bin/../lib/gcc/pic32mx/3.4.4/../../../../pic32mx/lib/speed\libm.a(fplog32.o)
 .pdr           0x00000000        0x0 E:/Olimex/Compilers/Microchip/MPLAB C32 1_11B/bin/../lib/gcc/pic32mx/3.4.4/../../../../pic32mx/lib/speed\libm.a(fplog32.o)
 .bss           0x00000000        0x0 E:/Olimex/Compilers/Microchip/MPLAB C32 1_11B/bin/../lib/gcc/pic32mx/3.4.4/../../../../pic32mx/lib/speed\libm.a(fpexp32.o)
 .reginfo       0x00000000       0x18 E:/Olimex/Compilers/Microchip/MPLAB C32 1_11B/bin/../lib/gcc/pic32mx/3.4.4/../../../../pic32mx/lib/speed\libm.a(fpexp32.o)
 .pdr           0x00000000        0x0 E:/Olimex/Compilers/Microchip/MPLAB C32 1_11B/bin/../lib/gcc/pic32mx/3.4.4/../../../../pic32mx/lib/speed\libm.a(fpexp32.o)
 .bss           0x00000000        0x0 E:/Olimex/Compilers/Microchip/MPLAB C32 1_11B/bin/../lib/gcc/pic32mx/3.4.4/../../../../pic32mx/lib/speed\libm.a(exp32.o)
 .reginfo       0x00000000       0x18 E:/Olimex/Compilers/Microchip/MPLAB C32 1_11B/bin/../lib/gcc/pic32mx/3.4.4/../../../../pic32mx/lib/speed\libm.a(exp32.o)
 .pdr           0x00000000        0x0 E:/Olimex/Compilers/Microchip/MPLAB C32 1_11B/bin/../lib/gcc/pic32mx/3.4.4/../../../../pic32mx/lib/speed\libm.a(exp32.o)
 .text          0x00000000        0x0 E:/Olimex/Compilers/Microchip/MPLAB C32 1_11B/bin/../lib/gcc/pic32mx/3.4.4/../../../../pic32mx/lib/speed\libe.a(_strtod.o)
 .data          0x00000000        0x0 E:/Olimex/Compilers/Microchip/MPLAB C32 1_11B/bin/../lib/gcc/pic32mx/3.4.4/../../../../pic32mx/lib/speed\libe.a(_strtod.o)
 .bss           0x00000000        0x0 E:/Olimex/Compilers/Microchip/MPLAB C32 1_11B/bin/../lib/gcc/pic32mx/3.4.4/../../../../pic32mx/lib/speed\libe.a(_strtod.o)
 .reginfo       0x00000000       0x18 E:/Olimex/Compilers/Microchip/MPLAB C32 1_11B/bin/../lib/gcc/pic32mx/3.4.4/../../../../pic32mx/lib/speed\libe.a(_strtod.o)
 .pdr           0x00000000       0x20 E:/Olimex/Compilers/Microchip/MPLAB C32 1_11B/bin/../lib/gcc/pic32mx/3.4.4/../../../../pic32mx/lib/speed\libe.a(_strtod.o)
 .text          0x00000000        0x0 E:/Olimex/Compilers/Microchip/MPLAB C32 1_11B/bin/../lib/gcc/pic32mx/3.4.4/../../../../pic32mx/lib/speed\libe.a(_ldexp.o)
 .data          0x00000000        0x0 E:/Olimex/Compilers/Microchip/MPLAB C32 1_11B/bin/../lib/gcc/pic32mx/3.4.4/../../../../pic32mx/lib/speed\libe.a(_ldexp.o)
 .bss           0x00000000        0x0 E:/Olimex/Compilers/Microchip/MPLAB C32 1_11B/bin/../lib/gcc/pic32mx/3.4.4/../../../../pic32mx/lib/speed\libe.a(_ldexp.o)
 .reginfo       0x00000000       0x18 E:/Olimex/Compilers/Microchip/MPLAB C32 1_11B/bin/../lib/gcc/pic32mx/3.4.4/../../../../pic32mx/lib/speed\libe.a(_ldexp.o)
 .pdr           0x00000000       0x20 E:/Olimex/Compilers/Microchip/MPLAB C32 1_11B/bin/../lib/gcc/pic32mx/3.4.4/../../../../pic32mx/lib/speed\libe.a(_ldexp.o)
 .text          0x00000000        0x0 E:/Olimex/Compilers/Microchip/MPLAB C32 1_11B/bin/../lib/gcc/pic32mx/3.4.4/../../../../pic32mx/lib/speed\libmchp_peripheral.a(read_core_timer_lib.o)
 .data          0x00000000        0x0 E:/Olimex/Compilers/Microchip/MPLAB C32 1_11B/bin/../lib/gcc/pic32mx/3.4.4/../../../../pic32mx/lib/speed\libmchp_peripheral.a(read_core_timer_lib.o)
 .bss           0x00000000        0x0 E:/Olimex/Compilers/Microchip/MPLAB C32 1_11B/bin/../lib/gcc/pic32mx/3.4.4/../../../../pic32mx/lib/speed\libmchp_peripheral.a(read_core_timer_lib.o)
 .reginfo       0x00000000       0x18 E:/Olimex/Compilers/Microchip/MPLAB C32 1_11B/bin/../lib/gcc/pic32mx/3.4.4/../../../../pic32mx/lib/speed\libmchp_peripheral.a(read_core_timer_lib.o)
 .pdr           0x00000000       0x20 E:/Olimex/Compilers/Microchip/MPLAB C32 1_11B/bin/../lib/gcc/pic32mx/3.4.4/../../../../pic32mx/lib/speed\libmchp_peripheral.a(read_core_timer_lib.o)
 .text          0x00000000        0x0 E:/Olimex/Compilers/Microchip/MPLAB C32 1_11B/bin/../lib/gcc/pic32mx/3.4.4/../../../../pic32mx/lib/speed\libmchp_peripheral.a(write_core_timer_lib.o)
 .data          0x00000000        0x0 E:/Olimex/Compilers/Microchip/MPLAB C32 1_11B/bin/../lib/gcc/pic32mx/3.4.4/../../../../pic32mx/lib/speed\libmchp_peripheral.a(write_core_timer_lib.o)
 .bss           0x00000000        0x0 E:/Olimex/Compilers/Microchip/MPLAB C32 1_11B/bin/../lib/gcc/pic32mx/3.4.4/../../../../pic32mx/lib/speed\libmchp_peripheral.a(write_core_timer_lib.o)
 .reginfo       0x00000000       0x18 E:/Olimex/Compilers/Microchip/MPLAB C32 1_11B/bin/../lib/gcc/pic32mx/3.4.4/../../../../pic32mx/lib/speed\libmchp_peripheral.a(write_core_timer_lib.o)
 .pdr           0x00000000       0x20 E:/Olimex/Compilers/Microchip/MPLAB C32 1_11B/bin/../lib/gcc/pic32mx/3.4.4/../../../../pic32mx/lib/speed\libmchp_peripheral.a(write_core_timer_lib.o)
 .text          0x00000000        0x0 E:/Olimex/Compilers/Microchip/MPLAB C32 1_11B/bin/../lib/gcc/pic32mx/3.4.4/../../../../pic32mx/lib/speed\libmchp_peripheral_32MX795F512H.a(soft_reset_lib.o)
 .data          0x00000000        0x0 E:/Olimex/Compilers/Microchip/MPLAB C32 1_11B/bin/../lib/gcc/pic32mx/3.4.4/../../../../pic32mx/lib/speed\libmchp_peripheral_32MX795F512H.a(soft_reset_lib.o)
 .bss           0x00000000        0x0 E:/Olimex/Compilers/Microchip/MPLAB C32 1_11B/bin/../lib/gcc/pic32mx/3.4.4/../../../../pic32mx/lib/speed\libmchp_peripheral_32MX795F512H.a(soft_reset_lib.o)
 .reginfo       0x00000000       0x18 E:/Olimex/Compilers/Microchip/MPLAB C32 1_11B/bin/../lib/gcc/pic32mx/3.4.4/../../../../pic32mx/lib/speed\libmchp_peripheral_32MX795F512H.a(soft_reset_lib.o)
 .pdr           0x00000000       0x20 E:/Olimex/Compilers/Microchip/MPLAB C32 1_11B/bin/../lib/gcc/pic32mx/3.4.4/../../../../pic32mx/lib/speed\libmchp_peripheral_32MX795F512H.a(soft_reset_lib.o)
 .text          0x00000000        0x0 E:/Olimex/Compilers/Microchip/MPLAB C32 1_11B/bin/../lib/gcc/pic32mx/3.4.4/../../../../pic32mx/lib/speed\libmchp_peripheral_32MX795F512H.a(pcache.o)
 .data          0x00000000        0x0 E:/Olimex/Compilers/Microchip/MPLAB C32 1_11B/bin/../lib/gcc/pic32mx/3.4.4/../../../../pic32mx/lib/speed\libmchp_peripheral_32MX795F512H.a(pcache.o)
 .bss           0x00000000        0x0 E:/Olimex/Compilers/Microchip/MPLAB C32 1_11B/bin/../lib/gcc/pic32mx/3.4.4/../../../../pic32mx/lib/speed\libmchp_peripheral_32MX795F512H.a(pcache.o)
 .reginfo       0x00000000       0x18 E:/Olimex/Compilers/Microchip/MPLAB C32 1_11B/bin/../lib/gcc/pic32mx/3.4.4/../../../../pic32mx/lib/speed\libmchp_peripheral_32MX795F512H.a(pcache.o)
 .pdr           0x00000000       0x40 E:/Olimex/Compilers/Microchip/MPLAB C32 1_11B/bin/../lib/gcc/pic32mx/3.4.4/../../../../pic32mx/lib/speed\libmchp_peripheral_32MX795F512H.a(pcache.o)
 .text.CheKseg0CacheOff
                0x00000000       0x18 E:/Olimex/Compilers/Microchip/MPLAB C32 1_11B/bin/../lib/gcc/pic32mx/3.4.4/../../../../pic32mx/lib/speed\libmchp_peripheral_32MX795F512H.a(pcache.o)
 .text          0x00000000        0x0 E:/Olimex/Compilers/Microchip/MPLAB C32 1_11B/bin/../lib/gcc/pic32mx/3.4.4/../../../../pic32mx/lib/speed\libmchp_peripheral_32MX795F512H.a(int_enable_interrupts_lib.o)
 .data          0x00000000        0x0 E:/Olimex/Compilers/Microchip/MPLAB C32 1_11B/bin/../lib/gcc/pic32mx/3.4.4/../../../../pic32mx/lib/speed\libmchp_peripheral_32MX795F512H.a(int_enable_interrupts_lib.o)
 .bss           0x00000000        0x0 E:/Olimex/Compilers/Microchip/MPLAB C32 1_11B/bin/../lib/gcc/pic32mx/3.4.4/../../../../pic32mx/lib/speed\libmchp_peripheral_32MX795F512H.a(int_enable_interrupts_lib.o)
 .reginfo       0x00000000       0x18 E:/Olimex/Compilers/Microchip/MPLAB C32 1_11B/bin/../lib/gcc/pic32mx/3.4.4/../../../../pic32mx/lib/speed\libmchp_peripheral_32MX795F512H.a(int_enable_interrupts_lib.o)
 .pdr           0x00000000       0x20 E:/Olimex/Compilers/Microchip/MPLAB C32 1_11B/bin/../lib/gcc/pic32mx/3.4.4/../../../../pic32mx/lib/speed\libmchp_peripheral_32MX795F512H.a(int_enable_interrupts_lib.o)
 .text          0x00000000        0x0 E:/Olimex/Compilers/Microchip/MPLAB C32 1_11B/bin/../lib/gcc/pic32mx/3.4.4/../../../../pic32mx/lib/speed\libmchp_peripheral_32MX795F512H.a(int_disable_interrupts_lib.o)
 .data          0x00000000        0x0 E:/Olimex/Compilers/Microchip/MPLAB C32 1_11B/bin/../lib/gcc/pic32mx/3.4.4/../../../../pic32mx/lib/speed\libmchp_peripheral_32MX795F512H.a(int_disable_interrupts_lib.o)
 .bss           0x00000000        0x0 E:/Olimex/Compilers/Microchip/MPLAB C32 1_11B/bin/../lib/gcc/pic32mx/3.4.4/../../../../pic32mx/lib/speed\libmchp_peripheral_32MX795F512H.a(int_disable_interrupts_lib.o)
 .reginfo       0x00000000       0x18 E:/Olimex/Compilers/Microchip/MPLAB C32 1_11B/bin/../lib/gcc/pic32mx/3.4.4/../../../../pic32mx/lib/speed\libmchp_peripheral_32MX795F512H.a(int_disable_interrupts_lib.o)
 .pdr           0x00000000       0x20 E:/Olimex/Compilers/Microchip/MPLAB C32 1_11B/bin/../lib/gcc/pic32mx/3.4.4/../../../../pic32mx/lib/speed\libmchp_peripheral_32MX795F512H.a(int_disable_interrupts_lib.o)
 .text          0x00000000        0x0 E:/Olimex/Compilers/Microchip/MPLAB C32 1_11B/bin/../lib/gcc/pic32mx/3.4.4/../../../../pic32mx/lib/speed\libmchp_peripheral_32MX795F512H.a(int_restore_interrupts_lib.o)
 .data          0x00000000        0x0 E:/Olimex/Compilers/Microchip/MPLAB C32 1_11B/bin/../lib/gcc/pic32mx/3.4.4/../../../../pic32mx/lib/speed\libmchp_peripheral_32MX795F512H.a(int_restore_interrupts_lib.o)
 .bss           0x00000000        0x0 E:/Olimex/Compilers/Microchip/MPLAB C32 1_11B/bin/../lib/gcc/pic32mx/3.4.4/../../../../pic32mx/lib/speed\libmchp_peripheral_32MX795F512H.a(int_restore_interrupts_lib.o)
 .reginfo       0x00000000       0x18 E:/Olimex/Compilers/Microchip/MPLAB C32 1_11B/bin/../lib/gcc/pic32mx/3.4.4/../../../../pic32mx/lib/speed\libmchp_peripheral_32MX795F512H.a(int_restore_interrupts_lib.o)
 .pdr           0x00000000       0x20 E:/Olimex/Compilers/Microchip/MPLAB C32 1_11B/bin/../lib/gcc/pic32mx/3.4.4/../../../../pic32mx/lib/speed\libmchp_peripheral_32MX795F512H.a(int_restore_interrupts_lib.o)
 .text          0x00000000        0x0 E:/Olimex/Compilers/Microchip/MPLAB C32 1_11B/bin/../lib/gcc/pic32mx/3.4.4/../../../../pic32mx/lib/speed\libmchp_peripheral_32MX795F512H.a(int_enable_mv_int_lib.o)
 .data          0x00000000        0x0 E:/Olimex/Compilers/Microchip/MPLAB C32 1_11B/bin/../lib/gcc/pic32mx/3.4.4/../../../../pic32mx/lib/speed\libmchp_peripheral_32MX795F512H.a(int_enable_mv_int_lib.o)
 .bss           0x00000000        0x0 E:/Olimex/Compilers/Microchip/MPLAB C32 1_11B/bin/../lib/gcc/pic32mx/3.4.4/../../../../pic32mx/lib/speed\libmchp_peripheral_32MX795F512H.a(int_enable_mv_int_lib.o)
 .reginfo       0x00000000       0x18 E:/Olimex/Compilers/Microchip/MPLAB C32 1_11B/bin/../lib/gcc/pic32mx/3.4.4/../../../../pic32mx/lib/speed\libmchp_peripheral_32MX795F512H.a(int_enable_mv_int_lib.o)
 .pdr           0x00000000       0x20 E:/Olimex/Compilers/Microchip/MPLAB C32 1_11B/bin/../lib/gcc/pic32mx/3.4.4/../../../../pic32mx/lib/speed\libmchp_peripheral_32MX795F512H.a(int_enable_mv_int_lib.o)
 .text          0x00000000        0x0 E:/Olimex/Compilers/Microchip/MPLAB C32 1_11B/bin/../lib/gcc/pic32mx/3.4.4/../../../../pic32mx/lib/speed\libmchp_peripheral_32MX795F512H.a(int_tbl_lib.o)
 .data          0x00000000        0x0 E:/Olimex/Compilers/Microchip/MPLAB C32 1_11B/bin/../lib/gcc/pic32mx/3.4.4/../../../../pic32mx/lib/speed\libmchp_peripheral_32MX795F512H.a(int_tbl_lib.o)
 .bss           0x00000000        0x0 E:/Olimex/Compilers/Microchip/MPLAB C32 1_11B/bin/../lib/gcc/pic32mx/3.4.4/../../../../pic32mx/lib/speed\libmchp_peripheral_32MX795F512H.a(int_tbl_lib.o)
 .reginfo       0x00000000       0x18 E:/Olimex/Compilers/Microchip/MPLAB C32 1_11B/bin/../lib/gcc/pic32mx/3.4.4/../../../../pic32mx/lib/speed\libmchp_peripheral_32MX795F512H.a(int_tbl_lib.o)
 .pdr           0x00000000      0x120 E:/Olimex/Compilers/Microchip/MPLAB C32 1_11B/bin/../lib/gcc/pic32mx/3.4.4/../../../../pic32mx/lib/speed\libmchp_peripheral_32MX795F512H.a(int_tbl_lib.o)
 .text.INTSetFlag
                0x00000000       0x2c E:/Olimex/Compilers/Microchip/MPLAB C32 1_11B/bin/../lib/gcc/pic32mx/3.4.4/../../../../pic32mx/lib/speed\libmchp_peripheral_32MX795F512H.a(int_tbl_lib.o)
 .text.INTGetFlag
                0x00000000       0x2c E:/Olimex/Compilers/Microchip/MPLAB C32 1_11B/bin/../lib/gcc/pic32mx/3.4.4/../../../../pic32mx/lib/speed\libmchp_peripheral_32MX795F512H.a(int_tbl_lib.o)
 .text.INTGetEnable
                0x00000000       0x2c E:/Olimex/Compilers/Microchip/MPLAB C32 1_11B/bin/../lib/gcc/pic32mx/3.4.4/../../../../pic32mx/lib/speed\libmchp_peripheral_32MX795F512H.a(int_tbl_lib.o)
 .text.INTSetVectorPriority
                0x00000000       0x40 E:/Olimex/Compilers/Microchip/MPLAB C32 1_11B/bin/../lib/gcc/pic32mx/3.4.4/../../../../pic32mx/lib/speed\libmchp_peripheral_32MX795F512H.a(int_tbl_lib.o)
 .text.INTGetVectorPriority
                0x00000000       0x30 E:/Olimex/Compilers/Microchip/MPLAB C32 1_11B/bin/../lib/gcc/pic32mx/3.4.4/../../../../pic32mx/lib/speed\libmchp_peripheral_32MX795F512H.a(int_tbl_lib.o)
 .text.INTSetVectorSubPriority
                0x00000000       0x40 E:/Olimex/Compilers/Microchip/MPLAB C32 1_11B/bin/../lib/gcc/pic32mx/3.4.4/../../../../pic32mx/lib/speed\libmchp_peripheral_32MX795F512H.a(int_tbl_lib.o)
 .text.INTGetVectorSubPriority
                0x00000000       0x30 E:/Olimex/Compilers/Microchip/MPLAB C32 1_11B/bin/../lib/gcc/pic32mx/3.4.4/../../../../pic32mx/lib/speed\libmchp_peripheral_32MX795F512H.a(int_tbl_lib.o)
 .text          0x00000000        0x0 E:/Olimex/Compilers/Microchip/MPLAB C32 1_11B/bin/../lib/gcc/pic32mx/3.4.4/../../../../pic32mx/lib/speed\libmchp_peripheral_32MX795F512H.a(rtcc_alarm_disable_lib.o)
 .data          0x00000000        0x0 E:/Olimex/Compilers/Microchip/MPLAB C32 1_11B/bin/../lib/gcc/pic32mx/3.4.4/../../../../pic32mx/lib/speed\libmchp_peripheral_32MX795F512H.a(rtcc_alarm_disable_lib.o)
 .bss           0x00000000        0x0 E:/Olimex/Compilers/Microchip/MPLAB C32 1_11B/bin/../lib/gcc/pic32mx/3.4.4/../../../../pic32mx/lib/speed\libmchp_peripheral_32MX795F512H.a(rtcc_alarm_disable_lib.o)
 .reginfo       0x00000000       0x18 E:/Olimex/Compilers/Microchip/MPLAB C32 1_11B/bin/../lib/gcc/pic32mx/3.4.4/../../../../pic32mx/lib/speed\libmchp_peripheral_32MX795F512H.a(rtcc_alarm_disable_lib.o)
 .pdr           0x00000000       0x20 E:/Olimex/Compilers/Microchip/MPLAB C32 1_11B/bin/../lib/gcc/pic32mx/3.4.4/../../../../pic32mx/lib/speed\libmchp_peripheral_32MX795F512H.a(rtcc_alarm_disable_lib.o)
 .text          0x00000000        0x0 E:/Olimex/Compilers/Microchip/MPLAB C32 1_11B/bin/../lib/gcc/pic32mx/3.4.4/../../../../pic32mx/lib/speed\libmchp_peripheral_32MX795F512H.a(rtcc_alarm_enable_lib.o)
 .data          0x00000000        0x0 E:/Olimex/Compilers/Microchip/MPLAB C32 1_11B/bin/../lib/gcc/pic32mx/3.4.4/../../../../pic32mx/lib/speed\libmchp_peripheral_32MX795F512H.a(rtcc_alarm_enable_lib.o)
 .bss           0x00000000        0x0 E:/Olimex/Compilers/Microchip/MPLAB C32 1_11B/bin/../lib/gcc/pic32mx/3.4.4/../../../../pic32mx/lib/speed\libmchp_peripheral_32MX795F512H.a(rtcc_alarm_enable_lib.o)
 .reginfo       0x00000000       0x18 E:/Olimex/Compilers/Microchip/MPLAB C32 1_11B/bin/../lib/gcc/pic32mx/3.4.4/../../../../pic32mx/lib/speed\libmchp_peripheral_32MX795F512H.a(rtcc_alarm_enable_lib.o)
 .pdr           0x00000000       0x20 E:/Olimex/Compilers/Microchip/MPLAB C32 1_11B/bin/../lib/gcc/pic32mx/3.4.4/../../../../pic32mx/lib/speed\libmchp_peripheral_32MX795F512H.a(rtcc_alarm_enable_lib.o)
 .text          0x00000000        0x0 E:/Olimex/Compilers/Microchip/MPLAB C32 1_11B/bin/../lib/gcc/pic32mx/3.4.4/../../../../pic32mx/lib/speed\libmchp_peripheral_32MX795F512H.a(rtcc_chime_enable_lib.o)
 .data          0x00000000        0x0 E:/Olimex/Compilers/Microchip/MPLAB C32 1_11B/bin/../lib/gcc/pic32mx/3.4.4/../../../../pic32mx/lib/speed\libmchp_peripheral_32MX795F512H.a(rtcc_chime_enable_lib.o)
 .bss           0x00000000        0x0 E:/Olimex/Compilers/Microchip/MPLAB C32 1_11B/bin/../lib/gcc/pic32mx/3.4.4/../../../../pic32mx/lib/speed\libmchp_peripheral_32MX795F512H.a(rtcc_chime_enable_lib.o)
 .reginfo       0x00000000       0x18 E:/Olimex/Compilers/Microchip/MPLAB C32 1_11B/bin/../lib/gcc/pic32mx/3.4.4/../../../../pic32mx/lib/speed\libmchp_peripheral_32MX795F512H.a(rtcc_chime_enable_lib.o)
 .pdr           0x00000000       0x20 E:/Olimex/Compilers/Microchip/MPLAB C32 1_11B/bin/../lib/gcc/pic32mx/3.4.4/../../../../pic32mx/lib/speed\libmchp_peripheral_32MX795F512H.a(rtcc_chime_enable_lib.o)
 .text          0x00000000        0x0 E:/Olimex/Compilers/Microchip/MPLAB C32 1_11B/bin/../lib/gcc/pic32mx/3.4.4/../../../../pic32mx/lib/speed\libmchp_peripheral_32MX795F512H.a(rtcc_init_lib.o)
 .data          0x00000000        0x0 E:/Olimex/Compilers/Microchip/MPLAB C32 1_11B/bin/../lib/gcc/pic32mx/3.4.4/../../../../pic32mx/lib/speed\libmchp_peripheral_32MX795F512H.a(rtcc_init_lib.o)
 .bss           0x00000000        0x0 E:/Olimex/Compilers/Microchip/MPLAB C32 1_11B/bin/../lib/gcc/pic32mx/3.4.4/../../../../pic32mx/lib/speed\libmchp_peripheral_32MX795F512H.a(rtcc_init_lib.o)
 .reginfo       0x00000000       0x18 E:/Olimex/Compilers/Microchip/MPLAB C32 1_11B/bin/../lib/gcc/pic32mx/3.4.4/../../../../pic32mx/lib/speed\libmchp_peripheral_32MX795F512H.a(rtcc_init_lib.o)
 .pdr           0x00000000       0x20 E:/Olimex/Compilers/Microchip/MPLAB C32 1_11B/bin/../lib/gcc/pic32mx/3.4.4/../../../../pic32mx/lib/speed\libmchp_peripheral_32MX795F512H.a(rtcc_init_lib.o)
 .text          0x00000000        0x0 E:/Olimex/Compilers/Microchip/MPLAB C32 1_11B/bin/../lib/gcc/pic32mx/3.4.4/../../../../pic32mx/lib/speed\libmchp_peripheral_32MX795F512H.a(rtcc_set_alarm_rpt_count_lib.o)
 .data          0x00000000        0x0 E:/Olimex/Compilers/Microchip/MPLAB C32 1_11B/bin/../lib/gcc/pic32mx/3.4.4/../../../../pic32mx/lib/speed\libmchp_peripheral_32MX795F512H.a(rtcc_set_alarm_rpt_count_lib.o)
 .bss           0x00000000        0x0 E:/Olimex/Compilers/Microchip/MPLAB C32 1_11B/bin/../lib/gcc/pic32mx/3.4.4/../../../../pic32mx/lib/speed\libmchp_peripheral_32MX795F512H.a(rtcc_set_alarm_rpt_count_lib.o)
 .reginfo       0x00000000       0x18 E:/Olimex/Compilers/Microchip/MPLAB C32 1_11B/bin/../lib/gcc/pic32mx/3.4.4/../../../../pic32mx/lib/speed\libmchp_peripheral_32MX795F512H.a(rtcc_set_alarm_rpt_count_lib.o)
 .pdr           0x00000000       0x20 E:/Olimex/Compilers/Microchip/MPLAB C32 1_11B/bin/../lib/gcc/pic32mx/3.4.4/../../../../pic32mx/lib/speed\libmchp_peripheral_32MX795F512H.a(rtcc_set_alarm_rpt_count_lib.o)
 .text          0x00000000        0x0 E:/Olimex/Compilers/Microchip/MPLAB C32 1_11B/bin/../lib/gcc/pic32mx/3.4.4/../../../../pic32mx/lib/speed\libmchp_peripheral_32MX795F512H.a(rtcc_set_alarm_rpt_lib.o)
 .data          0x00000000        0x0 E:/Olimex/Compilers/Microchip/MPLAB C32 1_11B/bin/../lib/gcc/pic32mx/3.4.4/../../../../pic32mx/lib/speed\libmchp_peripheral_32MX795F512H.a(rtcc_set_alarm_rpt_lib.o)
 .bss           0x00000000        0x0 E:/Olimex/Compilers/Microchip/MPLAB C32 1_11B/bin/../lib/gcc/pic32mx/3.4.4/../../../../pic32mx/lib/speed\libmchp_peripheral_32MX795F512H.a(rtcc_set_alarm_rpt_lib.o)
 .reginfo       0x00000000       0x18 E:/Olimex/Compilers/Microchip/MPLAB C32 1_11B/bin/../lib/gcc/pic32mx/3.4.4/../../../../pic32mx/lib/speed\libmchp_peripheral_32MX795F512H.a(rtcc_set_alarm_rpt_lib.o)
 .pdr           0x00000000       0x20 E:/Olimex/Compilers/Microchip/MPLAB C32 1_11B/bin/../lib/gcc/pic32mx/3.4.4/../../../../pic32mx/lib/speed\libmchp_peripheral_32MX795F512H.a(rtcc_set_alarm_rpt_lib.o)
 .text          0x00000000        0x0 E:/Olimex/Compilers/Microchip/MPLAB C32 1_11B/bin/../lib/gcc/pic32mx/3.4.4/../../../../pic32mx/lib/speed\libmchp_peripheral_32MX795F512H.a(rtcc_set_alarm_time_date_lib.o)
 .data          0x00000000        0x0 E:/Olimex/Compilers/Microchip/MPLAB C32 1_11B/bin/../lib/gcc/pic32mx/3.4.4/../../../../pic32mx/lib/speed\libmchp_peripheral_32MX795F512H.a(rtcc_set_alarm_time_date_lib.o)
 .bss           0x00000000        0x0 E:/Olimex/Compilers/Microchip/MPLAB C32 1_11B/bin/../lib/gcc/pic32mx/3.4.4/../../../../pic32mx/lib/speed\libmchp_peripheral_32MX795F512H.a(rtcc_set_alarm_time_date_lib.o)
 .reginfo       0x00000000       0x18 E:/Olimex/Compilers/Microchip/MPLAB C32 1_11B/bin/../lib/gcc/pic32mx/3.4.4/../../../../pic32mx/lib/speed\libmchp_peripheral_32MX795F512H.a(rtcc_set_alarm_time_date_lib.o)
 .pdr           0x00000000       0x20 E:/Olimex/Compilers/Microchip/MPLAB C32 1_11B/bin/../lib/gcc/pic32mx/3.4.4/../../../../pic32mx/lib/speed\libmchp_peripheral_32MX795F512H.a(rtcc_set_alarm_time_date_lib.o)
 .text          0x00000000        0x0 E:/Olimex/Compilers/Microchip/MPLAB C32 1_11B/bin/../lib/gcc/pic32mx/3.4.4/../../../../pic32mx/lib/speed\libmchp_peripheral_32MX795F512H.a(rtcc_set_time_date_lib.o)
 .data          0x00000000        0x0 E:/Olimex/Compilers/Microchip/MPLAB C32 1_11B/bin/../lib/gcc/pic32mx/3.4.4/../../../../pic32mx/lib/speed\libmchp_peripheral_32MX795F512H.a(rtcc_set_time_date_lib.o)
 .bss           0x00000000        0x0 E:/Olimex/Compilers/Microchip/MPLAB C32 1_11B/bin/../lib/gcc/pic32mx/3.4.4/../../../../pic32mx/lib/speed\libmchp_peripheral_32MX795F512H.a(rtcc_set_time_date_lib.o)
 .reginfo       0x00000000       0x18 E:/Olimex/Compilers/Microchip/MPLAB C32 1_11B/bin/../lib/gcc/pic32mx/3.4.4/../../../../pic32mx/lib/speed\libmchp_peripheral_32MX795F512H.a(rtcc_set_time_date_lib.o)
 .pdr           0x00000000       0x20 E:/Olimex/Compilers/Microchip/MPLAB C32 1_11B/bin/../lib/gcc/pic32mx/3.4.4/../../../../pic32mx/lib/speed\libmchp_peripheral_32MX795F512H.a(rtcc_set_time_date_lib.o)
 .text          0x00000000        0x0 E:/Olimex/Compilers/Microchip/MPLAB C32 1_11B/bin/../lib/gcc/pic32mx/3.4.4/../../../../pic32mx/lib/speed\libmchp_peripheral_32MX795F512H.a(rtcc_open_lib.o)
 .data          0x00000000        0x0 E:/Olimex/Compilers/Microchip/MPLAB C32 1_11B/bin/../lib/gcc/pic32mx/3.4.4/../../../../pic32mx/lib/speed\libmchp_peripheral_32MX795F512H.a(rtcc_open_lib.o)
 .bss           0x00000000        0x0 E:/Olimex/Compilers/Microchip/MPLAB C32 1_11B/bin/../lib/gcc/pic32mx/3.4.4/../../../../pic32mx/lib/speed\libmchp_peripheral_32MX795F512H.a(rtcc_open_lib.o)
 .reginfo       0x00000000       0x18 E:/Olimex/Compilers/Microchip/MPLAB C32 1_11B/bin/../lib/gcc/pic32mx/3.4.4/../../../../pic32mx/lib/speed\libmchp_peripheral_32MX795F512H.a(rtcc_open_lib.o)
 .pdr           0x00000000       0x20 E:/Olimex/Compilers/Microchip/MPLAB C32 1_11B/bin/../lib/gcc/pic32mx/3.4.4/../../../../pic32mx/lib/speed\libmchp_peripheral_32MX795F512H.a(rtcc_open_lib.o)
 .text          0x00000000        0x0 E:/Olimex/Compilers/Microchip/MPLAB C32 1_11B/bin/../lib/gcc/pic32mx/3.4.4/../../../../pic32mx/lib/speed\libmchp_peripheral_32MX795F512H.a(spi_chn_close_lib.o)
 .data          0x00000000        0x0 E:/Olimex/Compilers/Microchip/MPLAB C32 1_11B/bin/../lib/gcc/pic32mx/3.4.4/../../../../pic32mx/lib/speed\libmchp_peripheral_32MX795F512H.a(spi_chn_close_lib.o)
 .bss           0x00000000        0x0 E:/Olimex/Compilers/Microchip/MPLAB C32 1_11B/bin/../lib/gcc/pic32mx/3.4.4/../../../../pic32mx/lib/speed\libmchp_peripheral_32MX795F512H.a(spi_chn_close_lib.o)
 .reginfo       0x00000000       0x18 E:/Olimex/Compilers/Microchip/MPLAB C32 1_11B/bin/../lib/gcc/pic32mx/3.4.4/../../../../pic32mx/lib/speed\libmchp_peripheral_32MX795F512H.a(spi_chn_close_lib.o)
 .pdr           0x00000000       0x20 E:/Olimex/Compilers/Microchip/MPLAB C32 1_11B/bin/../lib/gcc/pic32mx/3.4.4/../../../../pic32mx/lib/speed\libmchp_peripheral_32MX795F512H.a(spi_chn_close_lib.o)
 .text          0x00000000        0x0 E:/Olimex/Compilers/Microchip/MPLAB C32 1_11B/bin/../lib/gcc/pic32mx/3.4.4/../../../../pic32mx/lib/speed\libmchp_peripheral_32MX795F512H.a(spi_chn_getc_lib.o)
 .data          0x00000000        0x0 E:/Olimex/Compilers/Microchip/MPLAB C32 1_11B/bin/../lib/gcc/pic32mx/3.4.4/../../../../pic32mx/lib/speed\libmchp_peripheral_32MX795F512H.a(spi_chn_getc_lib.o)
 .bss           0x00000000        0x0 E:/Olimex/Compilers/Microchip/MPLAB C32 1_11B/bin/../lib/gcc/pic32mx/3.4.4/../../../../pic32mx/lib/speed\libmchp_peripheral_32MX795F512H.a(spi_chn_getc_lib.o)
 .reginfo       0x00000000       0x18 E:/Olimex/Compilers/Microchip/MPLAB C32 1_11B/bin/../lib/gcc/pic32mx/3.4.4/../../../../pic32mx/lib/speed\libmchp_peripheral_32MX795F512H.a(spi_chn_getc_lib.o)
 .pdr           0x00000000       0x40 E:/Olimex/Compilers/Microchip/MPLAB C32 1_11B/bin/../lib/gcc/pic32mx/3.4.4/../../../../pic32mx/lib/speed\libmchp_peripheral_32MX795F512H.a(spi_chn_getc_lib.o)
 .text.SpiChnReadC
                0x00000000       0x20 E:/Olimex/Compilers/Microchip/MPLAB C32 1_11B/bin/../lib/gcc/pic32mx/3.4.4/../../../../pic32mx/lib/speed\libmchp_peripheral_32MX795F512H.a(spi_chn_getc_lib.o)
 .text          0x00000000        0x0 E:/Olimex/Compilers/Microchip/MPLAB C32 1_11B/bin/../lib/gcc/pic32mx/3.4.4/../../../../pic32mx/lib/speed\libmchp_peripheral_32MX795F512H.a(spi_chn_open_lib.o)
 .data          0x00000000        0x0 E:/Olimex/Compilers/Microchip/MPLAB C32 1_11B/bin/../lib/gcc/pic32mx/3.4.4/../../../../pic32mx/lib/speed\libmchp_peripheral_32MX795F512H.a(spi_chn_open_lib.o)
 .bss           0x00000000        0x0 E:/Olimex/Compilers/Microchip/MPLAB C32 1_11B/bin/../lib/gcc/pic32mx/3.4.4/../../../../pic32mx/lib/speed\libmchp_peripheral_32MX795F512H.a(spi_chn_open_lib.o)
 .reginfo       0x00000000       0x18 E:/Olimex/Compilers/Microchip/MPLAB C32 1_11B/bin/../lib/gcc/pic32mx/3.4.4/../../../../pic32mx/lib/speed\libmchp_peripheral_32MX795F512H.a(spi_chn_open_lib.o)
 .pdr           0x00000000       0x20 E:/Olimex/Compilers/Microchip/MPLAB C32 1_11B/bin/../lib/gcc/pic32mx/3.4.4/../../../../pic32mx/lib/speed\libmchp_peripheral_32MX795F512H.a(spi_chn_open_lib.o)
 .text          0x00000000        0x0 E:/Olimex/Compilers/Microchip/MPLAB C32 1_11B/bin/../lib/gcc/pic32mx/3.4.4/../../../../pic32mx/lib/speed\libmchp_peripheral_32MX795F512H.a(spi_chn_putc_lib.o)
 .data          0x00000000        0x0 E:/Olimex/Compilers/Microchip/MPLAB C32 1_11B/bin/../lib/gcc/pic32mx/3.4.4/../../../../pic32mx/lib/speed\libmchp_peripheral_32MX795F512H.a(spi_chn_putc_lib.o)
 .bss           0x00000000        0x0 E:/Olimex/Compilers/Microchip/MPLAB C32 1_11B/bin/../lib/gcc/pic32mx/3.4.4/../../../../pic32mx/lib/speed\libmchp_peripheral_32MX795F512H.a(spi_chn_putc_lib.o)
 .reginfo       0x00000000       0x18 E:/Olimex/Compilers/Microchip/MPLAB C32 1_11B/bin/../lib/gcc/pic32mx/3.4.4/../../../../pic32mx/lib/speed\libmchp_peripheral_32MX795F512H.a(spi_chn_putc_lib.o)
 .pdr           0x00000000       0x60 E:/Olimex/Compilers/Microchip/MPLAB C32 1_11B/bin/../lib/gcc/pic32mx/3.4.4/../../../../pic32mx/lib/speed\libmchp_peripheral_32MX795F512H.a(spi_chn_putc_lib.o)
 .text.SpiChnWriteC
                0x00000000       0x20 E:/Olimex/Compilers/Microchip/MPLAB C32 1_11B/bin/../lib/gcc/pic32mx/3.4.4/../../../../pic32mx/lib/speed\libmchp_peripheral_32MX795F512H.a(spi_chn_putc_lib.o)
 .text.SpiChnBuffer
                0x00000000       0x1c E:/Olimex/Compilers/Microchip/MPLAB C32 1_11B/bin/../lib/gcc/pic32mx/3.4.4/../../../../pic32mx/lib/speed\libmchp_peripheral_32MX795F512H.a(spi_chn_putc_lib.o)
 .text          0x00000000        0x0 E:/Olimex/Compilers/Microchip/MPLAB C32 1_11B/bin/../lib/gcc/pic32mx/3.4.4/../../../../pic32mx/lib/speed\libmchp_peripheral_32MX795F512H.a(spi_io_tbl_libp.o)
 .data          0x00000000        0x0 E:/Olimex/Compilers/Microchip/MPLAB C32 1_11B/bin/../lib/gcc/pic32mx/3.4.4/../../../../pic32mx/lib/speed\libmchp_peripheral_32MX795F512H.a(spi_io_tbl_libp.o)
 .bss           0x00000000        0x0 E:/Olimex/Compilers/Microchip/MPLAB C32 1_11B/bin/../lib/gcc/pic32mx/3.4.4/../../../../pic32mx/lib/speed\libmchp_peripheral_32MX795F512H.a(spi_io_tbl_libp.o)
 .reginfo       0x00000000       0x18 E:/Olimex/Compilers/Microchip/MPLAB C32 1_11B/bin/../lib/gcc/pic32mx/3.4.4/../../../../pic32mx/lib/speed\libmchp_peripheral_32MX795F512H.a(spi_io_tbl_libp.o)
 .pdr           0x00000000        0x0 E:/Olimex/Compilers/Microchip/MPLAB C32 1_11B/bin/../lib/gcc/pic32mx/3.4.4/../../../../pic32mx/lib/speed\libmchp_peripheral_32MX795F512H.a(spi_io_tbl_libp.o)
 .text          0x00000000        0x0 E:/Olimex/Compilers/Microchip/MPLAB C32 1_11B/bin/../lib/gcc/pic32mx/3.4.4/../../../../pic32mx/lib/speed\libmchp_peripheral_32MX795F512H.a(spi_map_tbl_libp.o)
 .data          0x00000000        0x0 E:/Olimex/Compilers/Microchip/MPLAB C32 1_11B/bin/../lib/gcc/pic32mx/3.4.4/../../../../pic32mx/lib/speed\libmchp_peripheral_32MX795F512H.a(spi_map_tbl_libp.o)
 .bss           0x00000000        0x0 E:/Olimex/Compilers/Microchip/MPLAB C32 1_11B/bin/../lib/gcc/pic32mx/3.4.4/../../../../pic32mx/lib/speed\libmchp_peripheral_32MX795F512H.a(spi_map_tbl_libp.o)
 .reginfo       0x00000000       0x18 E:/Olimex/Compilers/Microchip/MPLAB C32 1_11B/bin/../lib/gcc/pic32mx/3.4.4/../../../../pic32mx/lib/speed\libmchp_peripheral_32MX795F512H.a(spi_map_tbl_libp.o)
 .pdr           0x00000000        0x0 E:/Olimex/Compilers/Microchip/MPLAB C32 1_11B/bin/../lib/gcc/pic32mx/3.4.4/../../../../pic32mx/lib/speed\libmchp_peripheral_32MX795F512H.a(spi_map_tbl_libp.o)
 .text          0x00000000        0x0 E:/Olimex/Compilers/Microchip/MPLAB C32 1_11B/bin/../lib/gcc/pic32mx/3.4.4/../../../../pic32mx/lib/speed\libmchp_peripheral_32MX795F512H.a(power_sleep_lib.o)
 .data          0x00000000        0x0 E:/Olimex/Compilers/Microchip/MPLAB C32 1_11B/bin/../lib/gcc/pic32mx/3.4.4/../../../../pic32mx/lib/speed\libmchp_peripheral_32MX795F512H.a(power_sleep_lib.o)
 .bss           0x00000000        0x0 E:/Olimex/Compilers/Microchip/MPLAB C32 1_11B/bin/../lib/gcc/pic32mx/3.4.4/../../../../pic32mx/lib/speed\libmchp_peripheral_32MX795F512H.a(power_sleep_lib.o)
 .reginfo       0x00000000       0x18 E:/Olimex/Compilers/Microchip/MPLAB C32 1_11B/bin/../lib/gcc/pic32mx/3.4.4/../../../../pic32mx/lib/speed\libmchp_peripheral_32MX795F512H.a(power_sleep_lib.o)
 .pdr           0x00000000       0x20 E:/Olimex/Compilers/Microchip/MPLAB C32 1_11B/bin/../lib/gcc/pic32mx/3.4.4/../../../../pic32mx/lib/speed\libmchp_peripheral_32MX795F512H.a(power_sleep_lib.o)
 .text          0x00000000        0x0 E:/Olimex/Compilers/Microchip/MPLAB C32 1_11B/bin/../lib/gcc/pic32mx/3.4.4/../../../../pic32mx/lib/speed\libmchp_peripheral_32MX795F512H.a(nvm_erase_page_lib.o)
 .data          0x00000000        0x0 E:/Olimex/Compilers/Microchip/MPLAB C32 1_11B/bin/../lib/gcc/pic32mx/3.4.4/../../../../pic32mx/lib/speed\libmchp_peripheral_32MX795F512H.a(nvm_erase_page_lib.o)
 .bss           0x00000000        0x0 E:/Olimex/Compilers/Microchip/MPLAB C32 1_11B/bin/../lib/gcc/pic32mx/3.4.4/../../../../pic32mx/lib/speed\libmchp_peripheral_32MX795F512H.a(nvm_erase_page_lib.o)
 .reginfo       0x00000000       0x18 E:/Olimex/Compilers/Microchip/MPLAB C32 1_11B/bin/../lib/gcc/pic32mx/3.4.4/../../../../pic32mx/lib/speed\libmchp_peripheral_32MX795F512H.a(nvm_erase_page_lib.o)
 .pdr           0x00000000       0x20 E:/Olimex/Compilers/Microchip/MPLAB C32 1_11B/bin/../lib/gcc/pic32mx/3.4.4/../../../../pic32mx/lib/speed\libmchp_peripheral_32MX795F512H.a(nvm_erase_page_lib.o)
 .text          0x00000000        0x0 E:/Olimex/Compilers/Microchip/MPLAB C32 1_11B/bin/../lib/gcc/pic32mx/3.4.4/../../../../pic32mx/lib/speed\libmchp_peripheral_32MX795F512H.a(nvm_operation_lib.o)
 .data          0x00000000        0x0 E:/Olimex/Compilers/Microchip/MPLAB C32 1_11B/bin/../lib/gcc/pic32mx/3.4.4/../../../../pic32mx/lib/speed\libmchp_peripheral_32MX795F512H.a(nvm_operation_lib.o)
 .bss           0x00000000        0x0 E:/Olimex/Compilers/Microchip/MPLAB C32 1_11B/bin/../lib/gcc/pic32mx/3.4.4/../../../../pic32mx/lib/speed\libmchp_peripheral_32MX795F512H.a(nvm_operation_lib.o)
 .reginfo       0x00000000       0x18 E:/Olimex/Compilers/Microchip/MPLAB C32 1_11B/bin/../lib/gcc/pic32mx/3.4.4/../../../../pic32mx/lib/speed\libmchp_peripheral_32MX795F512H.a(nvm_operation_lib.o)
 .pdr           0x00000000       0x20 E:/Olimex/Compilers/Microchip/MPLAB C32 1_11B/bin/../lib/gcc/pic32mx/3.4.4/../../../../pic32mx/lib/speed\libmchp_peripheral_32MX795F512H.a(nvm_operation_lib.o)
 .text          0x00000000        0x0 E:/Olimex/Compilers/Microchip/MPLAB C32 1_11B/bin/../lib/gcc/pic32mx/3.4.4/../../../../pic32mx/lib/speed\libmchp_peripheral_32MX795F512H.a(nvm_write_row_lib.o)
 .data          0x00000000        0x0 E:/Olimex/Compilers/Microchip/MPLAB C32 1_11B/bin/../lib/gcc/pic32mx/3.4.4/../../../../pic32mx/lib/speed\libmchp_peripheral_32MX795F512H.a(nvm_write_row_lib.o)
 .bss           0x00000000        0x0 E:/Olimex/Compilers/Microchip/MPLAB C32 1_11B/bin/../lib/gcc/pic32mx/3.4.4/../../../../pic32mx/lib/speed\libmchp_peripheral_32MX795F512H.a(nvm_write_row_lib.o)
 .reginfo       0x00000000       0x18 E:/Olimex/Compilers/Microchip/MPLAB C32 1_11B/bin/../lib/gcc/pic32mx/3.4.4/../../../../pic32mx/lib/speed\libmchp_peripheral_32MX795F512H.a(nvm_write_row_lib.o)
 .pdr           0x00000000       0x20 E:/Olimex/Compilers/Microchip/MPLAB C32 1_11B/bin/../lib/gcc/pic32mx/3.4.4/../../../../pic32mx/lib/speed\libmchp_peripheral_32MX795F512H.a(nvm_write_row_lib.o)
 .text          0x00000000        0x0 E:/Olimex/Compilers/Microchip/MPLAB C32 1_11B/bin/../lib/gcc/pic32mx/3.4.4/../../../../pic32mx/lib/speed\libmchp_peripheral_32MX795F512H.a(nvm_write_word_lib.o)
 .data          0x00000000        0x0 E:/Olimex/Compilers/Microchip/MPLAB C32 1_11B/bin/../lib/gcc/pic32mx/3.4.4/../../../../pic32mx/lib/speed\libmchp_peripheral_32MX795F512H.a(nvm_write_word_lib.o)
 .bss           0x00000000        0x0 E:/Olimex/Compilers/Microchip/MPLAB C32 1_11B/bin/../lib/gcc/pic32mx/3.4.4/../../../../pic32mx/lib/speed\libmchp_peripheral_32MX795F512H.a(nvm_write_word_lib.o)
 .reginfo       0x00000000       0x18 E:/Olimex/Compilers/Microchip/MPLAB C32 1_11B/bin/../lib/gcc/pic32mx/3.4.4/../../../../pic32mx/lib/speed\libmchp_peripheral_32MX795F512H.a(nvm_write_word_lib.o)
 .pdr           0x00000000       0x20 E:/Olimex/Compilers/Microchip/MPLAB C32 1_11B/bin/../lib/gcc/pic32mx/3.4.4/../../../../pic32mx/lib/speed\libmchp_peripheral_32MX795F512H.a(nvm_write_word_lib.o)
 .text          0x00000000        0x0 E:/Olimex/Compilers/Microchip/MPLAB C32 1_11B/bin/../lib/gcc/pic32mx/3.4.4/../../../../pic32mx/lib/speed\libmchp_peripheral_32MX795F512H.a(dma_chn_open_lib.o)
 .data          0x00000000        0x0 E:/Olimex/Compilers/Microchip/MPLAB C32 1_11B/bin/../lib/gcc/pic32mx/3.4.4/../../../../pic32mx/lib/speed\libmchp_peripheral_32MX795F512H.a(dma_chn_open_lib.o)
 .bss           0x00000000        0x0 E:/Olimex/Compilers/Microchip/MPLAB C32 1_11B/bin/../lib/gcc/pic32mx/3.4.4/../../../../pic32mx/lib/speed\libmchp_peripheral_32MX795F512H.a(dma_chn_open_lib.o)
 .reginfo       0x00000000       0x18 E:/Olimex/Compilers/Microchip/MPLAB C32 1_11B/bin/../lib/gcc/pic32mx/3.4.4/../../../../pic32mx/lib/speed\libmchp_peripheral_32MX795F512H.a(dma_chn_open_lib.o)
 .pdr           0x00000000       0x20 E:/Olimex/Compilers/Microchip/MPLAB C32 1_11B/bin/../lib/gcc/pic32mx/3.4.4/../../../../pic32mx/lib/speed\libmchp_peripheral_32MX795F512H.a(dma_chn_open_lib.o)
 .text          0x00000000        0x0 E:/Olimex/Compilers/Microchip/MPLAB C32 1_11B/bin/../lib/gcc/pic32mx/3.4.4/../../../../pic32mx/lib/speed\libmchp_peripheral_32MX795F512H.a(dma_chn_enable_lib.o)
 .data          0x00000000        0x0 E:/Olimex/Compilers/Microchip/MPLAB C32 1_11B/bin/../lib/gcc/pic32mx/3.4.4/../../../../pic32mx/lib/speed\libmchp_peripheral_32MX795F512H.a(dma_chn_enable_lib.o)
 .bss           0x00000000        0x0 E:/Olimex/Compilers/Microchip/MPLAB C32 1_11B/bin/../lib/gcc/pic32mx/3.4.4/../../../../pic32mx/lib/speed\libmchp_peripheral_32MX795F512H.a(dma_chn_enable_lib.o)
 .reginfo       0x00000000       0x18 E:/Olimex/Compilers/Microchip/MPLAB C32 1_11B/bin/../lib/gcc/pic32mx/3.4.4/../../../../pic32mx/lib/speed\libmchp_peripheral_32MX795F512H.a(dma_chn_enable_lib.o)
 .pdr           0x00000000       0x20 E:/Olimex/Compilers/Microchip/MPLAB C32 1_11B/bin/../lib/gcc/pic32mx/3.4.4/../../../../pic32mx/lib/speed\libmchp_peripheral_32MX795F512H.a(dma_chn_enable_lib.o)
 .text          0x00000000        0x0 E:/Olimex/Compilers/Microchip/MPLAB C32 1_11B/bin/../lib/gcc/pic32mx/3.4.4/../../../../pic32mx/lib/speed\libmchp_peripheral_32MX795F512H.a(dma_chn_set_control_flags_lib.o)
 .data          0x00000000        0x0 E:/Olimex/Compilers/Microchip/MPLAB C32 1_11B/bin/../lib/gcc/pic32mx/3.4.4/../../../../pic32mx/lib/speed\libmchp_peripheral_32MX795F512H.a(dma_chn_set_control_flags_lib.o)
 .bss           0x00000000        0x0 E:/Olimex/Compilers/Microchip/MPLAB C32 1_11B/bin/../lib/gcc/pic32mx/3.4.4/../../../../pic32mx/lib/speed\libmchp_peripheral_32MX795F512H.a(dma_chn_set_control_flags_lib.o)
 .reginfo       0x00000000       0x18 E:/Olimex/Compilers/Microchip/MPLAB C32 1_11B/bin/../lib/gcc/pic32mx/3.4.4/../../../../pic32mx/lib/speed\libmchp_peripheral_32MX795F512H.a(dma_chn_set_control_flags_lib.o)
 .pdr           0x00000000       0x20 E:/Olimex/Compilers/Microchip/MPLAB C32 1_11B/bin/../lib/gcc/pic32mx/3.4.4/../../../../pic32mx/lib/speed\libmchp_peripheral_32MX795F512H.a(dma_chn_set_control_flags_lib.o)
 .text          0x00000000        0x0 E:/Olimex/Compilers/Microchip/MPLAB C32 1_11B/bin/../lib/gcc/pic32mx/3.4.4/../../../../pic32mx/lib/speed\libmchp_peripheral_32MX795F512H.a(dma_chn_write_event_control_flags_lib.o)
 .data          0x00000000        0x0 E:/Olimex/Compilers/Microchip/MPLAB C32 1_11B/bin/../lib/gcc/pic32mx/3.4.4/../../../../pic32mx/lib/speed\libmchp_peripheral_32MX795F512H.a(dma_chn_write_event_control_flags_lib.o)
 .bss           0x00000000        0x0 E:/Olimex/Compilers/Microchip/MPLAB C32 1_11B/bin/../lib/gcc/pic32mx/3.4.4/../../../../pic32mx/lib/speed\libmchp_peripheral_32MX795F512H.a(dma_chn_write_event_control_flags_lib.o)
 .reginfo       0x00000000       0x18 E:/Olimex/Compilers/Microchip/MPLAB C32 1_11B/bin/../lib/gcc/pic32mx/3.4.4/../../../../pic32mx/lib/speed\libmchp_peripheral_32MX795F512H.a(dma_chn_write_event_control_flags_lib.o)
 .pdr           0x00000000       0x20 E:/Olimex/Compilers/Microchip/MPLAB C32 1_11B/bin/../lib/gcc/pic32mx/3.4.4/../../../../pic32mx/lib/speed\libmchp_peripheral_32MX795F512H.a(dma_chn_write_event_control_flags_lib.o)
 .text          0x00000000        0x0 E:/Olimex/Compilers/Microchip/MPLAB C32 1_11B/bin/../lib/gcc/pic32mx/3.4.4/../../../../pic32mx/lib/speed\libmchp_peripheral_32MX795F512H.a(dma_chn_set_txfer_lib.o)
 .data          0x00000000        0x0 E:/Olimex/Compilers/Microchip/MPLAB C32 1_11B/bin/../lib/gcc/pic32mx/3.4.4/../../../../pic32mx/lib/speed\libmchp_peripheral_32MX795F512H.a(dma_chn_set_txfer_lib.o)
 .bss           0x00000000        0x0 E:/Olimex/Compilers/Microchip/MPLAB C32 1_11B/bin/../lib/gcc/pic32mx/3.4.4/../../../../pic32mx/lib/speed\libmchp_peripheral_32MX795F512H.a(dma_chn_set_txfer_lib.o)
 .reginfo       0x00000000       0x18 E:/Olimex/Compilers/Microchip/MPLAB C32 1_11B/bin/../lib/gcc/pic32mx/3.4.4/../../../../pic32mx/lib/speed\libmchp_peripheral_32MX795F512H.a(dma_chn_set_txfer_lib.o)
 .pdr           0x00000000       0x20 E:/Olimex/Compilers/Microchip/MPLAB C32 1_11B/bin/../lib/gcc/pic32mx/3.4.4/../../../../pic32mx/lib/speed\libmchp_peripheral_32MX795F512H.a(dma_chn_set_txfer_lib.o)
 .text          0x00000000        0x0 E:/Olimex/Compilers/Microchip/MPLAB C32 1_11B/bin/../lib/gcc/pic32mx/3.4.4/../../../../pic32mx/lib/speed\libmchp_peripheral_32MX795F512H.a(dma_reg_map_tbl_lib.o)
 .data          0x00000000        0x0 E:/Olimex/Compilers/Microchip/MPLAB C32 1_11B/bin/../lib/gcc/pic32mx/3.4.4/../../../../pic32mx/lib/speed\libmchp_peripheral_32MX795F512H.a(dma_reg_map_tbl_lib.o)
 .bss           0x00000000        0x0 E:/Olimex/Compilers/Microchip/MPLAB C32 1_11B/bin/../lib/gcc/pic32mx/3.4.4/../../../../pic32mx/lib/speed\libmchp_peripheral_32MX795F512H.a(dma_reg_map_tbl_lib.o)
 .reginfo       0x00000000       0x18 E:/Olimex/Compilers/Microchip/MPLAB C32 1_11B/bin/../lib/gcc/pic32mx/3.4.4/../../../../pic32mx/lib/speed\libmchp_peripheral_32MX795F512H.a(dma_reg_map_tbl_lib.o)
 .pdr           0x00000000        0x0 E:/Olimex/Compilers/Microchip/MPLAB C32 1_11B/bin/../lib/gcc/pic32mx/3.4.4/../../../../pic32mx/lib/speed\libmchp_peripheral_32MX795F512H.a(dma_reg_map_tbl_lib.o)
 .text          0x00000000        0x0 E:/Olimex/Compilers/Microchip/MPLAB C32 1_11B/bin/../lib/gcc/pic32mx/3.4.4/../../../../pic32mx/lib/speed\libmchp_peripheral_32MX795F512H.a(port_reset_pins_lib.o)
 .data          0x00000000        0x0 E:/Olimex/Compilers/Microchip/MPLAB C32 1_11B/bin/../lib/gcc/pic32mx/3.4.4/../../../../pic32mx/lib/speed\libmchp_peripheral_32MX795F512H.a(port_reset_pins_lib.o)
 .bss           0x00000000        0x0 E:/Olimex/Compilers/Microchip/MPLAB C32 1_11B/bin/../lib/gcc/pic32mx/3.4.4/../../../../pic32mx/lib/speed\libmchp_peripheral_32MX795F512H.a(port_reset_pins_lib.o)
 .reginfo       0x00000000       0x18 E:/Olimex/Compilers/Microchip/MPLAB C32 1_11B/bin/../lib/gcc/pic32mx/3.4.4/../../../../pic32mx/lib/speed\libmchp_peripheral_32MX795F512H.a(port_reset_pins_lib.o)
 .pdr           0x00000000       0x20 E:/Olimex/Compilers/Microchip/MPLAB C32 1_11B/bin/../lib/gcc/pic32mx/3.4.4/../../../../pic32mx/lib/speed\libmchp_peripheral_32MX795F512H.a(port_reset_pins_lib.o)
 .text          0x00000000        0x0 E:/Olimex/Compilers/Microchip/MPLAB C32 1_11B/bin/../lib/gcc/pic32mx/3.4.4/../../../../pic32mx/lib/speed\libmchp_peripheral_32MX795F512H.a(port_set_pins_digital_in_lib.o)
 .data          0x00000000        0x0 E:/Olimex/Compilers/Microchip/MPLAB C32 1_11B/bin/../lib/gcc/pic32mx/3.4.4/../../../../pic32mx/lib/speed\libmchp_peripheral_32MX795F512H.a(port_set_pins_digital_in_lib.o)
 .bss           0x00000000        0x0 E:/Olimex/Compilers/Microchip/MPLAB C32 1_11B/bin/../lib/gcc/pic32mx/3.4.4/../../../../pic32mx/lib/speed\libmchp_peripheral_32MX795F512H.a(port_set_pins_digital_in_lib.o)
 .reginfo       0x00000000       0x18 E:/Olimex/Compilers/Microchip/MPLAB C32 1_11B/bin/../lib/gcc/pic32mx/3.4.4/../../../../pic32mx/lib/speed\libmchp_peripheral_32MX795F512H.a(port_set_pins_digital_in_lib.o)
 .pdr           0x00000000       0x20 E:/Olimex/Compilers/Microchip/MPLAB C32 1_11B/bin/../lib/gcc/pic32mx/3.4.4/../../../../pic32mx/lib/speed\libmchp_peripheral_32MX795F512H.a(port_set_pins_digital_in_lib.o)
 .text          0x00000000        0x0 E:/Olimex/Compilers/Microchip/MPLAB C32 1_11B/bin/../lib/gcc/pic32mx/3.4.4/../../../../pic32mx/lib/speed\libmchp_peripheral_32MX795F512H.a(port_set_pins_digital_out_lib.o)
 .data          0x00000000        0x0 E:/Olimex/Compilers/Microchip/MPLAB C32 1_11B/bin/../lib/gcc/pic32mx/3.4.4/../../../../pic32mx/lib/speed\libmchp_peripheral_32MX795F512H.a(port_set_pins_digital_out_lib.o)
 .bss           0x00000000        0x0 E:/Olimex/Compilers/Microchip/MPLAB C32 1_11B/bin/../lib/gcc/pic32mx/3.4.4/../../../../pic32mx/lib/speed\libmchp_peripheral_32MX795F512H.a(port_set_pins_digital_out_lib.o)
 .reginfo       0x00000000       0x18 E:/Olimex/Compilers/Microchip/MPLAB C32 1_11B/bin/../lib/gcc/pic32mx/3.4.4/../../../../pic32mx/lib/speed\libmchp_peripheral_32MX795F512H.a(port_set_pins_digital_out_lib.o)
 .pdr           0x00000000       0x20 E:/Olimex/Compilers/Microchip/MPLAB C32 1_11B/bin/../lib/gcc/pic32mx/3.4.4/../../../../pic32mx/lib/speed\libmchp_peripheral_32MX795F512H.a(port_set_pins_digital_out_lib.o)
 .text          0x00000000        0x0 E:/Olimex/Compilers/Microchip/MPLAB C32 1_11B/bin/../lib/gcc/pic32mx/3.4.4/../../../../pic32mx/lib/speed\libmchp_peripheral_32MX795F512H.a(_ports_tbl_libp.o)
 .data          0x00000000        0x0 E:/Olimex/Compilers/Microchip/MPLAB C32 1_11B/bin/../lib/gcc/pic32mx/3.4.4/../../../../pic32mx/lib/speed\libmchp_peripheral_32MX795F512H.a(_ports_tbl_libp.o)
 .bss           0x00000000        0x0 E:/Olimex/Compilers/Microchip/MPLAB C32 1_11B/bin/../lib/gcc/pic32mx/3.4.4/../../../../pic32mx/lib/speed\libmchp_peripheral_32MX795F512H.a(_ports_tbl_libp.o)
 .reginfo       0x00000000       0x18 E:/Olimex/Compilers/Microchip/MPLAB C32 1_11B/bin/../lib/gcc/pic32mx/3.4.4/../../../../pic32mx/lib/speed\libmchp_peripheral_32MX795F512H.a(_ports_tbl_libp.o)
 .pdr           0x00000000        0x0 E:/Olimex/Compilers/Microchip/MPLAB C32 1_11B/bin/../lib/gcc/pic32mx/3.4.4/../../../../pic32mx/lib/speed\libmchp_peripheral_32MX795F512H.a(_ports_tbl_libp.o)
 .text          0x00000000        0x0 E:/Olimex/Compilers/Microchip/MPLAB C32 1_11B/bin/../lib/gcc/pic32mx/3.4.4/../../../../pic32mx/lib/speed\libmchp_peripheral_32MX795F512H.a(uart_lib.o)
 .data          0x00000000        0x0 E:/Olimex/Compilers/Microchip/MPLAB C32 1_11B/bin/../lib/gcc/pic32mx/3.4.4/../../../../pic32mx/lib/speed\libmchp_peripheral_32MX795F512H.a(uart_lib.o)
 .bss           0x00000000        0x0 E:/Olimex/Compilers/Microchip/MPLAB C32 1_11B/bin/../lib/gcc/pic32mx/3.4.4/../../../../pic32mx/lib/speed\libmchp_peripheral_32MX795F512H.a(uart_lib.o)
 .reginfo       0x00000000       0x18 E:/Olimex/Compilers/Microchip/MPLAB C32 1_11B/bin/../lib/gcc/pic32mx/3.4.4/../../../../pic32mx/lib/speed\libmchp_peripheral_32MX795F512H.a(uart_lib.o)
 .pdr           0x00000000      0x100 E:/Olimex/Compilers/Microchip/MPLAB C32 1_11B/bin/../lib/gcc/pic32mx/3.4.4/../../../../pic32mx/lib/speed\libmchp_peripheral_32MX795F512H.a(uart_lib.o)
 .text.UARTSetFifoMode
                0x00000000       0x28 E:/Olimex/Compilers/Microchip/MPLAB C32 1_11B/bin/../lib/gcc/pic32mx/3.4.4/../../../../pic32mx/lib/speed\libmchp_peripheral_32MX795F512H.a(uart_lib.o)
 .text.UARTGetDataRate
                0x00000000       0x40 E:/Olimex/Compilers/Microchip/MPLAB C32 1_11B/bin/../lib/gcc/pic32mx/3.4.4/../../../../pic32mx/lib/speed\libmchp_peripheral_32MX795F512H.a(uart_lib.o)
 .text.UARTSetAddress
                0x00000000       0x3c E:/Olimex/Compilers/Microchip/MPLAB C32 1_11B/bin/../lib/gcc/pic32mx/3.4.4/../../../../pic32mx/lib/speed\libmchp_peripheral_32MX795F512H.a(uart_lib.o)
 .text.UARTWatchForAddress
                0x00000000       0x38 E:/Olimex/Compilers/Microchip/MPLAB C32 1_11B/bin/../lib/gcc/pic32mx/3.4.4/../../../../pic32mx/lib/speed\libmchp_peripheral_32MX795F512H.a(uart_lib.o)
 .text          0x00000000        0x0 E:/Olimex/Compilers/Microchip/MPLAB C32 1_11B/bin/../lib/gcc/pic32mx/3.4.4/../../../../pic32mx/lib/speed\libmchp_peripheral_32MX795F512H.a(I2CByteWasAcknowledged.o)
 .data          0x00000000        0x0 E:/Olimex/Compilers/Microchip/MPLAB C32 1_11B/bin/../lib/gcc/pic32mx/3.4.4/../../../../pic32mx/lib/speed\libmchp_peripheral_32MX795F512H.a(I2CByteWasAcknowledged.o)
 .bss           0x00000000        0x0 E:/Olimex/Compilers/Microchip/MPLAB C32 1_11B/bin/../lib/gcc/pic32mx/3.4.4/../../../../pic32mx/lib/speed\libmchp_peripheral_32MX795F512H.a(I2CByteWasAcknowledged.o)
 .reginfo       0x00000000       0x18 E:/Olimex/Compilers/Microchip/MPLAB C32 1_11B/bin/../lib/gcc/pic32mx/3.4.4/../../../../pic32mx/lib/speed\libmchp_peripheral_32MX795F512H.a(I2CByteWasAcknowledged.o)
 .pdr           0x00000000       0x20 E:/Olimex/Compilers/Microchip/MPLAB C32 1_11B/bin/../lib/gcc/pic32mx/3.4.4/../../../../pic32mx/lib/speed\libmchp_peripheral_32MX795F512H.a(I2CByteWasAcknowledged.o)
 .text          0x00000000        0x0 E:/Olimex/Compilers/Microchip/MPLAB C32 1_11B/bin/../lib/gcc/pic32mx/3.4.4/../../../../pic32mx/lib/speed\libmchp_peripheral_32MX795F512H.a(I2CConfigure.o)
 .data          0x00000000        0x0 E:/Olimex/Compilers/Microchip/MPLAB C32 1_11B/bin/../lib/gcc/pic32mx/3.4.4/../../../../pic32mx/lib/speed\libmchp_peripheral_32MX795F512H.a(I2CConfigure.o)
 .bss           0x00000000        0x0 E:/Olimex/Compilers/Microchip/MPLAB C32 1_11B/bin/../lib/gcc/pic32mx/3.4.4/../../../../pic32mx/lib/speed\libmchp_peripheral_32MX795F512H.a(I2CConfigure.o)
 .reginfo       0x00000000       0x18 E:/Olimex/Compilers/Microchip/MPLAB C32 1_11B/bin/../lib/gcc/pic32mx/3.4.4/../../../../pic32mx/lib/speed\libmchp_peripheral_32MX795F512H.a(I2CConfigure.o)
 .pdr           0x00000000       0x20 E:/Olimex/Compilers/Microchip/MPLAB C32 1_11B/bin/../lib/gcc/pic32mx/3.4.4/../../../../pic32mx/lib/speed\libmchp_peripheral_32MX795F512H.a(I2CConfigure.o)
 .text          0x00000000        0x0 E:/Olimex/Compilers/Microchip/MPLAB C32 1_11B/bin/../lib/gcc/pic32mx/3.4.4/../../../../pic32mx/lib/speed\libmchp_peripheral_32MX795F512H.a(I2CEnable.o)
 .data          0x00000000        0x0 E:/Olimex/Compilers/Microchip/MPLAB C32 1_11B/bin/../lib/gcc/pic32mx/3.4.4/../../../../pic32mx/lib/speed\libmchp_peripheral_32MX795F512H.a(I2CEnable.o)
 .bss           0x00000000        0x0 E:/Olimex/Compilers/Microchip/MPLAB C32 1_11B/bin/../lib/gcc/pic32mx/3.4.4/../../../../pic32mx/lib/speed\libmchp_peripheral_32MX795F512H.a(I2CEnable.o)
 .reginfo       0x00000000       0x18 E:/Olimex/Compilers/Microchip/MPLAB C32 1_11B/bin/../lib/gcc/pic32mx/3.4.4/../../../../pic32mx/lib/speed\libmchp_peripheral_32MX795F512H.a(I2CEnable.o)
 .pdr           0x00000000       0x20 E:/Olimex/Compilers/Microchip/MPLAB C32 1_11B/bin/../lib/gcc/pic32mx/3.4.4/../../../../pic32mx/lib/speed\libmchp_peripheral_32MX795F512H.a(I2CEnable.o)
 .text          0x00000000        0x0 E:/Olimex/Compilers/Microchip/MPLAB C32 1_11B/bin/../lib/gcc/pic32mx/3.4.4/../../../../pic32mx/lib/speed\libmchp_peripheral_32MX795F512H.a(I2CGetByte.o)
 .data          0x00000000        0x0 E:/Olimex/Compilers/Microchip/MPLAB C32 1_11B/bin/../lib/gcc/pic32mx/3.4.4/../../../../pic32mx/lib/speed\libmchp_peripheral_32MX795F512H.a(I2CGetByte.o)
 .bss           0x00000000        0x0 E:/Olimex/Compilers/Microchip/MPLAB C32 1_11B/bin/../lib/gcc/pic32mx/3.4.4/../../../../pic32mx/lib/speed\libmchp_peripheral_32MX795F512H.a(I2CGetByte.o)
 .reginfo       0x00000000       0x18 E:/Olimex/Compilers/Microchip/MPLAB C32 1_11B/bin/../lib/gcc/pic32mx/3.4.4/../../../../pic32mx/lib/speed\libmchp_peripheral_32MX795F512H.a(I2CGetByte.o)
 .pdr           0x00000000       0x20 E:/Olimex/Compilers/Microchip/MPLAB C32 1_11B/bin/../lib/gcc/pic32mx/3.4.4/../../../../pic32mx/lib/speed\libmchp_peripheral_32MX795F512H.a(I2CGetByte.o)
 .text          0x00000000        0x0 E:/Olimex/Compilers/Microchip/MPLAB C32 1_11B/bin/../lib/gcc/pic32mx/3.4.4/../../../../pic32mx/lib/speed\libmchp_peripheral_32MX795F512H.a(I2CReceivedDataIsAvailable.o)
 .data          0x00000000        0x0 E:/Olimex/Compilers/Microchip/MPLAB C32 1_11B/bin/../lib/gcc/pic32mx/3.4.4/../../../../pic32mx/lib/speed\libmchp_peripheral_32MX795F512H.a(I2CReceivedDataIsAvailable.o)
 .bss           0x00000000        0x0 E:/Olimex/Compilers/Microchip/MPLAB C32 1_11B/bin/../lib/gcc/pic32mx/3.4.4/../../../../pic32mx/lib/speed\libmchp_peripheral_32MX795F512H.a(I2CReceivedDataIsAvailable.o)
 .reginfo       0x00000000       0x18 E:/Olimex/Compilers/Microchip/MPLAB C32 1_11B/bin/../lib/gcc/pic32mx/3.4.4/../../../../pic32mx/lib/speed\libmchp_peripheral_32MX795F512H.a(I2CReceivedDataIsAvailable.o)
 .pdr           0x00000000       0x20 E:/Olimex/Compilers/Microchip/MPLAB C32 1_11B/bin/../lib/gcc/pic32mx/3.4.4/../../../../pic32mx/lib/speed\libmchp_peripheral_32MX795F512H.a(I2CReceivedDataIsAvailable.o)
 .text          0x00000000        0x0 E:/Olimex/Compilers/Microchip/MPLAB C32 1_11B/bin/../lib/gcc/pic32mx/3.4.4/../../../../pic32mx/lib/speed\libmchp_peripheral_32MX795F512H.a(I2CReceiverEnable.o)
 .data          0x00000000        0x0 E:/Olimex/Compilers/Microchip/MPLAB C32 1_11B/bin/../lib/gcc/pic32mx/3.4.4/../../../../pic32mx/lib/speed\libmchp_peripheral_32MX795F512H.a(I2CReceiverEnable.o)
 .bss           0x00000000        0x0 E:/Olimex/Compilers/Microchip/MPLAB C32 1_11B/bin/../lib/gcc/pic32mx/3.4.4/../../../../pic32mx/lib/speed\libmchp_peripheral_32MX795F512H.a(I2CReceiverEnable.o)
 .reginfo       0x00000000       0x18 E:/Olimex/Compilers/Microchip/MPLAB C32 1_11B/bin/../lib/gcc/pic32mx/3.4.4/../../../../pic32mx/lib/speed\libmchp_peripheral_32MX795F512H.a(I2CReceiverEnable.o)
 .pdr           0x00000000       0x20 E:/Olimex/Compilers/Microchip/MPLAB C32 1_11B/bin/../lib/gcc/pic32mx/3.4.4/../../../../pic32mx/lib/speed\libmchp_peripheral_32MX795F512H.a(I2CReceiverEnable.o)
 .text          0x00000000        0x0 E:/Olimex/Compilers/Microchip/MPLAB C32 1_11B/bin/../lib/gcc/pic32mx/3.4.4/../../../../pic32mx/lib/speed\libmchp_peripheral_32MX795F512H.a(I2CRepeatStart.o)
 .data          0x00000000        0x0 E:/Olimex/Compilers/Microchip/MPLAB C32 1_11B/bin/../lib/gcc/pic32mx/3.4.4/../../../../pic32mx/lib/speed\libmchp_peripheral_32MX795F512H.a(I2CRepeatStart.o)
 .bss           0x00000000        0x0 E:/Olimex/Compilers/Microchip/MPLAB C32 1_11B/bin/../lib/gcc/pic32mx/3.4.4/../../../../pic32mx/lib/speed\libmchp_peripheral_32MX795F512H.a(I2CRepeatStart.o)
 .reginfo       0x00000000       0x18 E:/Olimex/Compilers/Microchip/MPLAB C32 1_11B/bin/../lib/gcc/pic32mx/3.4.4/../../../../pic32mx/lib/speed\libmchp_peripheral_32MX795F512H.a(I2CRepeatStart.o)
 .pdr           0x00000000       0x20 E:/Olimex/Compilers/Microchip/MPLAB C32 1_11B/bin/../lib/gcc/pic32mx/3.4.4/../../../../pic32mx/lib/speed\libmchp_peripheral_32MX795F512H.a(I2CRepeatStart.o)
 .text          0x00000000        0x0 E:/Olimex/Compilers/Microchip/MPLAB C32 1_11B/bin/../lib/gcc/pic32mx/3.4.4/../../../../pic32mx/lib/speed\libmchp_peripheral_32MX795F512H.a(I2CSendByte.o)
 .data          0x00000000        0x0 E:/Olimex/Compilers/Microchip/MPLAB C32 1_11B/bin/../lib/gcc/pic32mx/3.4.4/../../../../pic32mx/lib/speed\libmchp_peripheral_32MX795F512H.a(I2CSendByte.o)
 .bss           0x00000000        0x0 E:/Olimex/Compilers/Microchip/MPLAB C32 1_11B/bin/../lib/gcc/pic32mx/3.4.4/../../../../pic32mx/lib/speed\libmchp_peripheral_32MX795F512H.a(I2CSendByte.o)
 .reginfo       0x00000000       0x18 E:/Olimex/Compilers/Microchip/MPLAB C32 1_11B/bin/../lib/gcc/pic32mx/3.4.4/../../../../pic32mx/lib/speed\libmchp_peripheral_32MX795F512H.a(I2CSendByte.o)
 .pdr           0x00000000       0x20 E:/Olimex/Compilers/Microchip/MPLAB C32 1_11B/bin/../lib/gcc/pic32mx/3.4.4/../../../../pic32mx/lib/speed\libmchp_peripheral_32MX795F512H.a(I2CSendByte.o)
 .text          0x00000000        0x0 E:/Olimex/Compilers/Microchip/MPLAB C32 1_11B/bin/../lib/gcc/pic32mx/3.4.4/../../../../pic32mx/lib/speed\libmchp_peripheral_32MX795F512H.a(I2CSetFrequency.o)
 .data          0x00000000        0x0 E:/Olimex/Compilers/Microchip/MPLAB C32 1_11B/bin/../lib/gcc/pic32mx/3.4.4/../../../../pic32mx/lib/speed\libmchp_peripheral_32MX795F512H.a(I2CSetFrequency.o)
 .bss           0x00000000        0x0 E:/Olimex/Compilers/Microchip/MPLAB C32 1_11B/bin/../lib/gcc/pic32mx/3.4.4/../../../../pic32mx/lib/speed\libmchp_peripheral_32MX795F512H.a(I2CSetFrequency.o)
 .reginfo       0x00000000       0x18 E:/Olimex/Compilers/Microchip/MPLAB C32 1_11B/bin/../lib/gcc/pic32mx/3.4.4/../../../../pic32mx/lib/speed\libmchp_peripheral_32MX795F512H.a(I2CSetFrequency.o)
 .pdr           0x00000000       0x20 E:/Olimex/Compilers/Microchip/MPLAB C32 1_11B/bin/../lib/gcc/pic32mx/3.4.4/../../../../pic32mx/lib/speed\libmchp_peripheral_32MX795F512H.a(I2CSetFrequency.o)
 .text          0x00000000        0x0 E:/Olimex/Compilers/Microchip/MPLAB C32 1_11B/bin/../lib/gcc/pic32mx/3.4.4/../../../../pic32mx/lib/speed\libmchp_peripheral_32MX795F512H.a(I2CStart.o)
 .data          0x00000000        0x0 E:/Olimex/Compilers/Microchip/MPLAB C32 1_11B/bin/../lib/gcc/pic32mx/3.4.4/../../../../pic32mx/lib/speed\libmchp_peripheral_32MX795F512H.a(I2CStart.o)
 .bss           0x00000000        0x0 E:/Olimex/Compilers/Microchip/MPLAB C32 1_11B/bin/../lib/gcc/pic32mx/3.4.4/../../../../pic32mx/lib/speed\libmchp_peripheral_32MX795F512H.a(I2CStart.o)
 .reginfo       0x00000000       0x18 E:/Olimex/Compilers/Microchip/MPLAB C32 1_11B/bin/../lib/gcc/pic32mx/3.4.4/../../../../pic32mx/lib/speed\libmchp_peripheral_32MX795F512H.a(I2CStart.o)
 .pdr           0x00000000       0x20 E:/Olimex/Compilers/Microchip/MPLAB C32 1_11B/bin/../lib/gcc/pic32mx/3.4.4/../../../../pic32mx/lib/speed\libmchp_peripheral_32MX795F512H.a(I2CStart.o)
 .text          0x00000000        0x0 E:/Olimex/Compilers/Microchip/MPLAB C32 1_11B/bin/../lib/gcc/pic32mx/3.4.4/../../../../pic32mx/lib/speed\libmchp_peripheral_32MX795F512H.a(I2CStop.o)
 .data          0x00000000        0x0 E:/Olimex/Compilers/Microchip/MPLAB C32 1_11B/bin/../lib/gcc/pic32mx/3.4.4/../../../../pic32mx/lib/speed\libmchp_peripheral_32MX795F512H.a(I2CStop.o)
 .bss           0x00000000        0x0 E:/Olimex/Compilers/Microchip/MPLAB C32 1_11B/bin/../lib/gcc/pic32mx/3.4.4/../../../../pic32mx/lib/speed\libmchp_peripheral_32MX795F512H.a(I2CStop.o)
 .reginfo       0x00000000       0x18 E:/Olimex/Compilers/Microchip/MPLAB C32 1_11B/bin/../lib/gcc/pic32mx/3.4.4/../../../../pic32mx/lib/speed\libmchp_peripheral_32MX795F512H.a(I2CStop.o)
 .pdr           0x00000000       0x20 E:/Olimex/Compilers/Microchip/MPLAB C32 1_11B/bin/../lib/gcc/pic32mx/3.4.4/../../../../pic32mx/lib/speed\libmchp_peripheral_32MX795F512H.a(I2CStop.o)
 .text          0x00000000        0x0 E:/Olimex/Compilers/Microchip/MPLAB C32 1_11B/bin/../lib/gcc/pic32mx/3.4.4/../../../../pic32mx/lib/speed\libmchp_peripheral_32MX795F512H.a(_rtcc_set_alrm_time_and_date_lib.o)
 .data          0x00000000        0x0 E:/Olimex/Compilers/Microchip/MPLAB C32 1_11B/bin/../lib/gcc/pic32mx/3.4.4/../../../../pic32mx/lib/speed\libmchp_peripheral_32MX795F512H.a(_rtcc_set_alrm_time_and_date_lib.o)
 .bss           0x00000000        0x0 E:/Olimex/Compilers/Microchip/MPLAB C32 1_11B/bin/../lib/gcc/pic32mx/3.4.4/../../../../pic32mx/lib/speed\libmchp_peripheral_32MX795F512H.a(_rtcc_set_alrm_time_and_date_lib.o)
 .reginfo       0x00000000       0x18 E:/Olimex/Compilers/Microchip/MPLAB C32 1_11B/bin/../lib/gcc/pic32mx/3.4.4/../../../../pic32mx/lib/speed\libmchp_peripheral_32MX795F512H.a(_rtcc_set_alrm_time_and_date_lib.o)
 .pdr           0x00000000       0x20 E:/Olimex/Compilers/Microchip/MPLAB C32 1_11B/bin/../lib/gcc/pic32mx/3.4.4/../../../../pic32mx/lib/speed\libmchp_peripheral_32MX795F512H.a(_rtcc_set_alrm_time_and_date_lib.o)
 .text          0x00000000        0x0 E:/Olimex/Compilers/Microchip/MPLAB C32 1_11B/bin/../lib/gcc/pic32mx/3.4.4/../../../../pic32mx/lib/speed\libmchp_peripheral_32MX795F512H.a(_rtcc_set_time_and_date_lib.o)
 .data          0x00000000        0x0 E:/Olimex/Compilers/Microchip/MPLAB C32 1_11B/bin/../lib/gcc/pic32mx/3.4.4/../../../../pic32mx/lib/speed\libmchp_peripheral_32MX795F512H.a(_rtcc_set_time_and_date_lib.o)
 .bss           0x00000000        0x0 E:/Olimex/Compilers/Microchip/MPLAB C32 1_11B/bin/../lib/gcc/pic32mx/3.4.4/../../../../pic32mx/lib/speed\libmchp_peripheral_32MX795F512H.a(_rtcc_set_time_and_date_lib.o)
 .reginfo       0x00000000       0x18 E:/Olimex/Compilers/Microchip/MPLAB C32 1_11B/bin/../lib/gcc/pic32mx/3.4.4/../../../../pic32mx/lib/speed\libmchp_peripheral_32MX795F512H.a(_rtcc_set_time_and_date_lib.o)
 .pdr           0x00000000       0x20 E:/Olimex/Compilers/Microchip/MPLAB C32 1_11B/bin/../lib/gcc/pic32mx/3.4.4/../../../../pic32mx/lib/speed\libmchp_peripheral_32MX795F512H.a(_rtcc_set_time_and_date_lib.o)
 .text          0x00000000        0x0 E:/Olimex/Compilers/Microchip/MPLAB C32 1_11B/bin/../lib/gcc/pic32mx/3.4.4/../../../../pic32mx/lib/speed\libmchp_peripheral_32MX795F512H.a(_rtcc_write_in_alarm_window_lib.o)
 .data          0x00000000        0x0 E:/Olimex/Compilers/Microchip/MPLAB C32 1_11B/bin/../lib/gcc/pic32mx/3.4.4/../../../../pic32mx/lib/speed\libmchp_peripheral_32MX795F512H.a(_rtcc_write_in_alarm_window_lib.o)
 .bss           0x00000000        0x0 E:/Olimex/Compilers/Microchip/MPLAB C32 1_11B/bin/../lib/gcc/pic32mx/3.4.4/../../../../pic32mx/lib/speed\libmchp_peripheral_32MX795F512H.a(_rtcc_write_in_alarm_window_lib.o)
 .reginfo       0x00000000       0x18 E:/Olimex/Compilers/Microchip/MPLAB C32 1_11B/bin/../lib/gcc/pic32mx/3.4.4/../../../../pic32mx/lib/speed\libmchp_peripheral_32MX795F512H.a(_rtcc_write_in_alarm_window_lib.o)
 .pdr           0x00000000       0x20 E:/Olimex/Compilers/Microchip/MPLAB C32 1_11B/bin/../lib/gcc/pic32mx/3.4.4/../../../../pic32mx/lib/speed\libmchp_peripheral_32MX795F512H.a(_rtcc_write_in_alarm_window_lib.o)
 .text          0x00000000        0x0 E:/Olimex/Compilers/Microchip/MPLAB C32 1_11B/bin/../lib/gcc/pic32mx/3.4.4/../../../../pic32mx/lib/speed\libmchp_peripheral_32MX795F512H.a(_rtcc_wait_clock_off_lib.o)
 .bss           0x00000000        0x0 E:/Olimex/Compilers/Microchip/MPLAB C32 1_11B/bin/../lib/gcc/pic32mx/3.4.4/../../../../pic32mx/lib/speed\libmchp_peripheral_32MX795F512H.a(_rtcc_wait_clock_off_lib.o)
 .reginfo       0x00000000       0x18 E:/Olimex/Compilers/Microchip/MPLAB C32 1_11B/bin/../lib/gcc/pic32mx/3.4.4/../../../../pic32mx/lib/speed\libmchp_peripheral_32MX795F512H.a(_rtcc_wait_clock_off_lib.o)
 .pdr           0x00000000       0x40 E:/Olimex/Compilers/Microchip/MPLAB C32 1_11B/bin/../lib/gcc/pic32mx/3.4.4/../../../../pic32mx/lib/speed\libmchp_peripheral_32MX795F512H.a(_rtcc_wait_clock_off_lib.o)
 .text._RtccSetClockWait
                0x00000000       0x14 E:/Olimex/Compilers/Microchip/MPLAB C32 1_11B/bin/../lib/gcc/pic32mx/3.4.4/../../../../pic32mx/lib/speed\libmchp_peripheral_32MX795F512H.a(_rtcc_wait_clock_off_lib.o)
 .text          0x00000000        0x0 E:/Olimex/Compilers/Microchip/MPLAB C32 1_11B/bin/../lib/gcc/pic32mx/3.4.4/../../../../pic32mx/lib/speed\libmchp_peripheral_32MX795F512H.a(I2CPrivate.o)
 .data          0x00000000        0x0 E:/Olimex/Compilers/Microchip/MPLAB C32 1_11B/bin/../lib/gcc/pic32mx/3.4.4/../../../../pic32mx/lib/speed\libmchp_peripheral_32MX795F512H.a(I2CPrivate.o)
 .bss           0x00000000        0x0 E:/Olimex/Compilers/Microchip/MPLAB C32 1_11B/bin/../lib/gcc/pic32mx/3.4.4/../../../../pic32mx/lib/speed\libmchp_peripheral_32MX795F512H.a(I2CPrivate.o)
 .reginfo       0x00000000       0x18 E:/Olimex/Compilers/Microchip/MPLAB C32 1_11B/bin/../lib/gcc/pic32mx/3.4.4/../../../../pic32mx/lib/speed\libmchp_peripheral_32MX795F512H.a(I2CPrivate.o)
 .pdr           0x00000000        0x0 E:/Olimex/Compilers/Microchip/MPLAB C32 1_11B/bin/../lib/gcc/pic32mx/3.4.4/../../../../pic32mx/lib/speed\libmchp_peripheral_32MX795F512H.a(I2CPrivate.o)
 .text          0x00000000        0x0 E:/Olimex/Compilers/Microchip/MPLAB C32 1_11B/bin/../lib/gcc/pic32mx/3.4.4/../../../../pic32mx/lib/speed\libc.a(isinf.o)
 .data          0x00000000        0x0 E:/Olimex/Compilers/Microchip/MPLAB C32 1_11B/bin/../lib/gcc/pic32mx/3.4.4/../../../../pic32mx/lib/speed\libc.a(isinf.o)
 .bss           0x00000000        0x0 E:/Olimex/Compilers/Microchip/MPLAB C32 1_11B/bin/../lib/gcc/pic32mx/3.4.4/../../../../pic32mx/lib/speed\libc.a(isinf.o)
 .reginfo       0x00000000       0x18 E:/Olimex/Compilers/Microchip/MPLAB C32 1_11B/bin/../lib/gcc/pic32mx/3.4.4/../../../../pic32mx/lib/speed\libc.a(isinf.o)
 .pdr           0x00000000       0x40 E:/Olimex/Compilers/Microchip/MPLAB C32 1_11B/bin/../lib/gcc/pic32mx/3.4.4/../../../../pic32mx/lib/speed\libc.a(isinf.o)
 .text.isnan    0x00000000       0x28 E:/Olimex/Compilers/Microchip/MPLAB C32 1_11B/bin/../lib/gcc/pic32mx/3.4.4/../../../../pic32mx/lib/speed\libc.a(isinf.o)
 .data          0x00000000        0x0 E:/Olimex/Compilers/Microchip/MPLAB C32 1_11B/bin/../lib/gcc/pic32mx/3.4.4/speed\libgcc.a(_udivdi3.o)
 .bss           0x00000000        0x0 E:/Olimex/Compilers/Microchip/MPLAB C32 1_11B/bin/../lib/gcc/pic32mx/3.4.4/speed\libgcc.a(_udivdi3.o)
 .reginfo       0x00000000       0x18 E:/Olimex/Compilers/Microchip/MPLAB C32 1_11B/bin/../lib/gcc/pic32mx/3.4.4/speed\libgcc.a(_udivdi3.o)
 .pdr           0x00000000       0x20 E:/Olimex/Compilers/Microchip/MPLAB C32 1_11B/bin/../lib/gcc/pic32mx/3.4.4/speed\libgcc.a(_udivdi3.o)
 .data          0x00000000        0x0 E:/Olimex/Compilers/Microchip/MPLAB C32 1_11B/bin/../lib/gcc/pic32mx/3.4.4/speed\libgcc.a(_umoddi3.o)
 .bss           0x00000000        0x0 E:/Olimex/Compilers/Microchip/MPLAB C32 1_11B/bin/../lib/gcc/pic32mx/3.4.4/speed\libgcc.a(_umoddi3.o)
 .reginfo       0x00000000       0x18 E:/Olimex/Compilers/Microchip/MPLAB C32 1_11B/bin/../lib/gcc/pic32mx/3.4.4/speed\libgcc.a(_umoddi3.o)
 .pdr           0x00000000       0x20 E:/Olimex/Compilers/Microchip/MPLAB C32 1_11B/bin/../lib/gcc/pic32mx/3.4.4/speed\libgcc.a(_umoddi3.o)

Memory Configuration

Name             Origin             Length             Attributes
startup_without_bootloader 0xbfc00000         0x00000008
kseg0_program_mem 0x9d004a00         0x0007b600         xr
kseg0_boot_mem   0x9d004490         0x00000970
exception_mem    0x9d003000         0x00001000
kseg1_boot_mem   0x9d004000         0x00000490
debug_exec_mem   0xbfc02000         0x00000ff0
config3          0xbfc02ff0         0x00000004
config2          0xbfc02ff4         0x00000004
config1          0xbfc02ff8         0x00000004
config0          0xbfc02ffc         0x00000004
kseg1_data_mem   0xa0000000         0x00020000         w !x
sfrs             0xbf800000         0x00100000
configsfrs       0xbfc02ff0         0x00000010
*default*        0x00000000         0xffffffff

Linker script and memory map

LOAD E:/Olimex/Compilers/Microchip/MPLAB C32 1_11B/bin/../lib/gcc/pic32mx/3.4.4/../../../../pic32mx/lib/speed/crt0.o
LOAD build/OLIMEX/production/_ext/2012694729/Commands.o
LOAD build/OLIMEX/production/_ext/2012694729/Custom.o
LOAD build/OLIMEX/production/_ext/2012694729/External.o
LOAD build/OLIMEX/production/_ext/2012694729/Files.o
LOAD build/OLIMEX/production/_ext/2012694729/Functions.o
LOAD build/OLIMEX/production/_ext/2012694729/Graphics.o
LOAD build/OLIMEX/production/_ext/2012694729/Help.o
LOAD build/OLIMEX/production/_ext/2012694729/I2C.o
LOAD build/OLIMEX/production/_ext/2012694729/MMBasic.o
LOAD build/OLIMEX/production/_ext/2012694729/Misc.o
LOAD build/OLIMEX/production/_ext/2012694729/Operators.o
LOAD build/OLIMEX/production/_ext/2012694729/XModem.o
LOAD build/OLIMEX/production/_ext/2012694729/Editor.o
LOAD build/OLIMEX/production/_ext/779736424/FSIO.o
LOAD build/OLIMEX/production/_ext/779736424/SD-SPI.o
LOAD build/OLIMEX/production/_ext/940238529/usb_descriptors.o
LOAD build/OLIMEX/production/_ext/678306549/usb_device.o
LOAD build/OLIMEX/production/_ext/488640762/usb_function_cdc.o
LOAD build/OLIMEX/production/_ext/718657706/usb_function_msd.o
LOAD build/OLIMEX/production/_ext/1624479370/DrawChar.o
LOAD build/OLIMEX/production/_ext/1624479370/VT100.o
LOAD build/OLIMEX/production/_ext/1624479370/Video.o
LOAD build/OLIMEX/production/_ext/2129892895/GameDuino.o
LOAD build/OLIMEX/production/_ext/179026188/Keyboard.o
LOAD build/OLIMEX/production/_ext/1728301206/Main.o
LOAD build/OLIMEX/production/_ext/2129892895/RTC.o
LOAD build/OLIMEX/production/_ext/1728301206/Setup.o
LOAD build/OLIMEX/production/_ext/1728301206/Term.o
LOAD build/OLIMEX/production/_ext/1123757107/Timers.o
LOAD build/OLIMEX/production/_ext/1091586137/serial.o
                0x00000001                __MPLAB_BUILD = 0x1
                0x00000400                PROVIDE (_min_stack_size, 0x400)
                0x00000000                PROVIDE (_min_heap_size, 0x0)
LOAD E:/Olimex/Compilers/Microchip/MPLAB C32 1_11B/bin/../lib/gcc/pic32mx/3.4.4/../../../../pic32mx/lib/./proc/32MX795F512H\processor.o
                0x00000001                PROVIDE (_vector_spacing, 0x1)
                0x9d003000                _ebase_address = 0x9d003000
                0xbfc00000                _ORIGINAL_RESET_ADDR = 0xbfc00000
                0x9d004000                _RESET_ADDR = 0x9d004000
                0x9d004380                _BEV_EXCPT_ADDR = 0x9d004380
                0x9d004480                _DBG_EXCPT_ADDR = 0x9d004480
                0xbfc02000                _DBG_CODE_ADDR = 0xbfc02000
                0x9d003180                _GEN_EXCPT_ADDR = (_ebase_address + 0x180)

.config_BFC02FF0
                0xbfc02ff0        0x4
 *(.config_BFC02FF0)
 .config_BFC02FF0
                0xbfc02ff0        0x4 build/OLIMEX/production/_ext/1728301206/Main.o

.config_BFC02FF4
                0xbfc02ff4        0x4
 *(.config_BFC02FF4)
 .config_BFC02FF4
                0xbfc02ff4        0x4 build/OLIMEX/production/_ext/1728301206/Main.o

.config_BFC02FF8
                0xbfc02ff8        0x4
 *(.config_BFC02FF8)
 .config_BFC02FF8
                0xbfc02ff8        0x4 build/OLIMEX/production/_ext/1728301206/Main.o

.config_BFC02FFC
                0xbfc02ffc        0x4
 *(.config_BFC02FFC)
 .config_BFC02FFC
                0xbfc02ffc        0x4 build/OLIMEX/production/_ext/1728301206/Main.o

.startup_without_bootloader
                0xbfc00000        0x8
                0xbfc00000        0x4 LONG 0xb401000 (((_reset >> 0x2) & 0x3ffffff) | 0x8000000)
                0xbfc00004        0x4 LONG 0x0

.reset          0x9d004000       0x10
 *(.reset)
 .reset         0x9d004000       0x10 E:/Olimex/Compilers/Microchip/MPLAB C32 1_11B/bin/../lib/gcc/pic32mx/3.4.4/../../../../pic32mx/lib/speed/crt0.o
                0x9d004000                _reset

.bev_excpt      0x9d004380       0x10
 *(.bev_handler)
 .bev_handler   0x9d004380       0x10 E:/Olimex/Compilers/Microchip/MPLAB C32 1_11B/bin/../lib/gcc/pic32mx/3.4.4/../../../../pic32mx/lib/speed/crt0.o

.dbg_excpt      0x9d004480        0x0
                0x9d004480                . = (. + DEFINED (_DEBUGGER)?0x8:0x0)

.dbg_code       0xbfc02000        0x0
                0xbfc02000                . = (. + DEFINED (_DEBUGGER)?0xff0:0x0)

.app_excpt      0x9d003180       0x10
 *(.gen_handler)
 .gen_handler   0x9d003180       0x10 E:/Olimex/Compilers/Microchip/MPLAB C32 1_11B/bin/../lib/gcc/pic32mx/3.4.4/../../../../pic32mx/lib/speed/crt0.o

.vector_0       0x9d003200        0x0
 *(.vector_0)
                0x00000001                ASSERT (((_vector_spacing == 0x0) || (SIZEOF (.vector_0) <= (_vector_spacing << 0x5))), function at exception vector 0 too large)

.vector_1       0x9d003220        0x0
 *(.vector_1)
                0x00000001                ASSERT (((_vector_spacing == 0x0) || (SIZEOF (.vector_1) <= (_vector_spacing << 0x5))), function at exception vector 1 too large)

.vector_2       0x9d003240        0x0
 *(.vector_2)
                0x00000001                ASSERT (((_vector_spacing == 0x0) || (SIZEOF (.vector_2) <= (_vector_spacing << 0x5))), function at exception vector 2 too large)

.vector_3       0x9d003260        0x0
 *(.vector_3)
                0x00000001                ASSERT (((_vector_spacing == 0x0) || (SIZEOF (.vector_3) <= (_vector_spacing << 0x5))), function at exception vector 3 too large)

.vector_4       0x9d003280        0x8
 *(.vector_4)
 .vector_4      0x9d003280        0x8 build/OLIMEX/production/_ext/1728301206/Main.o
                0x00000001                ASSERT (((_vector_spacing == 0x0) || (SIZEOF (.vector_4) <= (_vector_spacing << 0x5))), function at exception vector 4 too large)

.vector_5       0x9d0032a0        0x0
 *(.vector_5)
                0x00000001                ASSERT (((_vector_spacing == 0x0) || (SIZEOF (.vector_5) <= (_vector_spacing << 0x5))), function at exception vector 5 too large)

.vector_6       0x9d0032c0        0x0
 *(.vector_6)
                0x00000001                ASSERT (((_vector_spacing == 0x0) || (SIZEOF (.vector_6) <= (_vector_spacing << 0x5))), function at exception vector 6 too large)

.vector_7       0x9d0032e0        0x8
 *(.vector_7)
 .vector_7      0x9d0032e0        0x8 build/OLIMEX/production/_ext/2012694729/External.o
                0x00000001                ASSERT (((_vector_spacing == 0x0) || (SIZEOF (.vector_7) <= (_vector_spacing << 0x5))), function at exception vector 7 too large)

.vector_8       0x9d003300        0x0
 *(.vector_8)
                0x00000001                ASSERT (((_vector_spacing == 0x0) || (SIZEOF (.vector_8) <= (_vector_spacing << 0x5))), function at exception vector 8 too large)

.vector_9       0x9d003320        0x0
 *(.vector_9)
                0x00000001                ASSERT (((_vector_spacing == 0x0) || (SIZEOF (.vector_9) <= (_vector_spacing << 0x5))), function at exception vector 9 too large)

.vector_10      0x9d003340        0x0
 *(.vector_10)
                0x00000001                ASSERT (((_vector_spacing == 0x0) || (SIZEOF (.vector_10) <= (_vector_spacing << 0x5))), function at exception vector 10 too large)

.vector_11      0x9d003360        0x8
 *(.vector_11)
 .vector_11     0x9d003360        0x8 build/OLIMEX/production/_ext/2012694729/External.o
                0x00000001                ASSERT (((_vector_spacing == 0x0) || (SIZEOF (.vector_11) <= (_vector_spacing << 0x5))), function at exception vector 11 too large)

.vector_12      0x9d003380        0x8
 *(.vector_12)
 .vector_12     0x9d003380        0x8 build/OLIMEX/production/_ext/1624479370/Video.o
                0x00000001                ASSERT (((_vector_spacing == 0x0) || (SIZEOF (.vector_12) <= (_vector_spacing << 0x5))), function at exception vector 12 too large)

.vector_13      0x9d0033a0        0x0
 *(.vector_13)
                0x00000001                ASSERT (((_vector_spacing == 0x0) || (SIZEOF (.vector_13) <= (_vector_spacing << 0x5))), function at exception vector 13 too large)

.vector_14      0x9d0033c0        0x0
 *(.vector_14)
                0x00000001                ASSERT (((_vector_spacing == 0x0) || (SIZEOF (.vector_14) <= (_vector_spacing << 0x5))), function at exception vector 14 too large)

.vector_15      0x9d0033e0        0x8
 *(.vector_15)
 .vector_15     0x9d0033e0        0x8 build/OLIMEX/production/_ext/2012694729/External.o
                0x00000001                ASSERT (((_vector_spacing == 0x0) || (SIZEOF (.vector_15) <= (_vector_spacing << 0x5))), function at exception vector 15 too large)

.vector_16      0x9d003400        0x8
 *(.vector_16)
 .vector_16     0x9d003400        0x8 build/OLIMEX/production/_ext/1123757107/Timers.o
                0x00000001                ASSERT (((_vector_spacing == 0x0) || (SIZEOF (.vector_16) <= (_vector_spacing << 0x5))), function at exception vector 16 too large)

.vector_17      0x9d003420        0x0
 *(.vector_17)
                0x00000001                ASSERT (((_vector_spacing == 0x0) || (SIZEOF (.vector_17) <= (_vector_spacing << 0x5))), function at exception vector 17 too large)

.vector_18      0x9d003440        0x0
 *(.vector_18)
                0x00000001                ASSERT (((_vector_spacing == 0x0) || (SIZEOF (.vector_18) <= (_vector_spacing << 0x5))), function at exception vector 18 too large)

.vector_19      0x9d003460        0x8
 *(.vector_19)
 .vector_19     0x9d003460        0x8 build/OLIMEX/production/_ext/2012694729/External.o
                0x00000001                ASSERT (((_vector_spacing == 0x0) || (SIZEOF (.vector_19) <= (_vector_spacing << 0x5))), function at exception vector 19 too large)

.vector_20      0x9d003480        0x8
 *(.vector_20)
 .vector_20     0x9d003480        0x8 build/OLIMEX/production/_ext/1091586137/serial.o
                0x00000001                ASSERT (((_vector_spacing == 0x0) || (SIZEOF (.vector_20) <= (_vector_spacing << 0x5))), function at exception vector 20 too large)

.vector_21      0x9d0034a0        0x0
 *(.vector_21)
                0x00000001                ASSERT (((_vector_spacing == 0x0) || (SIZEOF (.vector_21) <= (_vector_spacing << 0x5))), function at exception vector 21 too large)

.vector_22      0x9d0034c0        0x0
 *(.vector_22)
                0x00000001                ASSERT (((_vector_spacing == 0x0) || (SIZEOF (.vector_22) <= (_vector_spacing << 0x5))), function at exception vector 22 too large)

.vector_23      0x9d0034e0        0x0
 *(.vector_23)
                0x00000001                ASSERT (((_vector_spacing == 0x0) || (SIZEOF (.vector_23) <= (_vector_spacing << 0x5))), function at exception vector 23 too large)

.vector_24      0x9d003500        0x0
 *(.vector_24)
                0x00000001                ASSERT (((_vector_spacing == 0x0) || (SIZEOF (.vector_24) <= (_vector_spacing << 0x5))), function at exception vector 24 too large)

.vector_25      0x9d003520        0x8
 *(.vector_25)
 .vector_25     0x9d003520        0x8 build/OLIMEX/production/_ext/2012694729/I2C.o
                0x00000001                ASSERT (((_vector_spacing == 0x0) || (SIZEOF (.vector_25) <= (_vector_spacing << 0x5))), function at exception vector 25 too large)

.vector_26      0x9d003540        0x8
 *(.vector_26)
 .vector_26     0x9d003540        0x8 build/OLIMEX/production/_ext/179026188/Keyboard.o
                0x00000001                ASSERT (((_vector_spacing == 0x0) || (SIZEOF (.vector_26) <= (_vector_spacing << 0x5))), function at exception vector 26 too large)

.vector_27      0x9d003560        0x0
 *(.vector_27)
                0x00000001                ASSERT (((_vector_spacing == 0x0) || (SIZEOF (.vector_27) <= (_vector_spacing << 0x5))), function at exception vector 27 too large)

.vector_28      0x9d003580        0x0
 *(.vector_28)
                0x00000001                ASSERT (((_vector_spacing == 0x0) || (SIZEOF (.vector_28) <= (_vector_spacing << 0x5))), function at exception vector 28 too large)

.vector_29      0x9d0035a0        0x0
 *(.vector_29)
                0x00000001                ASSERT (((_vector_spacing == 0x0) || (SIZEOF (.vector_29) <= (_vector_spacing << 0x5))), function at exception vector 29 too large)

.vector_30      0x9d0035c0        0x0
 *(.vector_30)
                0x00000001                ASSERT (((_vector_spacing == 0x0) || (SIZEOF (.vector_30) <= (_vector_spacing << 0x5))), function at exception vector 30 too large)

.vector_31      0x9d0035e0        0x0
 *(.vector_31)
                0x00000001                ASSERT (((_vector_spacing == 0x0) || (SIZEOF (.vector_31) <= (_vector_spacing << 0x5))), function at exception vector 31 too large)

.vector_32      0x9d003600        0x8
 *(.vector_32)
 .vector_32     0x9d003600        0x8 build/OLIMEX/production/_ext/1091586137/serial.o
                0x00000001                ASSERT (((_vector_spacing == 0x0) || (SIZEOF (.vector_32) <= (_vector_spacing << 0x5))), function at exception vector 32 too large)

.vector_33      0x9d003620        0x0
 *(.vector_33)
                0x00000001                ASSERT (((_vector_spacing == 0x0) || (SIZEOF (.vector_33) <= (_vector_spacing << 0x5))), function at exception vector 33 too large)

.vector_34      0x9d003640        0x0
 *(.vector_34)
                0x00000001                ASSERT (((_vector_spacing == 0x0) || (SIZEOF (.vector_34) <= (_vector_spacing << 0x5))), function at exception vector 34 too large)

.vector_35      0x9d003660        0x8
 *(.vector_35)
 .vector_35     0x9d003660        0x8 build/OLIMEX/production/_ext/2129892895/RTC.o
                0x00000001                ASSERT (((_vector_spacing == 0x0) || (SIZEOF (.vector_35) <= (_vector_spacing << 0x5))), function at exception vector 35 too large)

.vector_36      0x9d003680        0x0
 *(.vector_36)
                0x00000001                ASSERT (((_vector_spacing == 0x0) || (SIZEOF (.vector_36) <= (_vector_spacing << 0x5))), function at exception vector 36 too large)

.vector_37      0x9d0036a0        0x0
 *(.vector_37)
                0x00000001                ASSERT (((_vector_spacing == 0x0) || (SIZEOF (.vector_37) <= (_vector_spacing << 0x5))), function at exception vector 37 too large)

.vector_38      0x9d0036c0        0x0
 *(.vector_38)
                0x00000001                ASSERT (((_vector_spacing == 0x0) || (SIZEOF (.vector_38) <= (_vector_spacing << 0x5))), function at exception vector 38 too large)

.vector_39      0x9d0036e0        0x0
 *(.vector_39)
                0x00000001                ASSERT (((_vector_spacing == 0x0) || (SIZEOF (.vector_39) <= (_vector_spacing << 0x5))), function at exception vector 39 too large)

.vector_40      0x9d003700        0x0
 *(.vector_40)
                0x00000001                ASSERT (((_vector_spacing == 0x0) || (SIZEOF (.vector_40) <= (_vector_spacing << 0x5))), function at exception vector 40 too large)

.vector_41      0x9d003720        0x0
 *(.vector_41)
                0x00000001                ASSERT (((_vector_spacing == 0x0) || (SIZEOF (.vector_41) <= (_vector_spacing << 0x5))), function at exception vector 41 too large)

.vector_42      0x9d003740        0x0
 *(.vector_42)
                0x00000001                ASSERT (((_vector_spacing == 0x0) || (SIZEOF (.vector_42) <= (_vector_spacing << 0x5))), function at exception vector 42 too large)

.vector_43      0x9d003760        0x0
 *(.vector_43)
                0x00000001                ASSERT (((_vector_spacing == 0x0) || (SIZEOF (.vector_43) <= (_vector_spacing << 0x5))), function at exception vector 43 too large)

.vector_44      0x9d003780        0x0
 *(.vector_44)
                0x00000001                ASSERT (((_vector_spacing == 0x0) || (SIZEOF (.vector_44) <= (_vector_spacing << 0x5))), function at exception vector 44 too large)

.vector_45      0x9d0037a0        0x0
 *(.vector_45)
                0x00000001                ASSERT (((_vector_spacing == 0x0) || (SIZEOF (.vector_45) <= (_vector_spacing << 0x5))), function at exception vector 45 too large)

.vector_46      0x9d0037c0        0x0
 *(.vector_46)
                0x00000001                ASSERT (((_vector_spacing == 0x0) || (SIZEOF (.vector_46) <= (_vector_spacing << 0x5))), function at exception vector 46 too large)

.vector_47      0x9d0037e0        0x0
 *(.vector_47)
                0x00000001                ASSERT (((_vector_spacing == 0x0) || (SIZEOF (.vector_47) <= (_vector_spacing << 0x5))), function at exception vector 47 too large)

.vector_48      0x9d003800        0x0
 *(.vector_48)
                0x00000001                ASSERT (((_vector_spacing == 0x0) || (SIZEOF (.vector_48) <= (_vector_spacing << 0x5))), function at exception vector 48 too large)

.vector_49      0x9d003820        0x0
 *(.vector_49)
                0x00000001                ASSERT (((_vector_spacing == 0x0) || (SIZEOF (.vector_49) <= (_vector_spacing << 0x5))), function at exception vector 49 too large)

.vector_50      0x9d003840        0x0
 *(.vector_50)
                0x00000001                ASSERT (((_vector_spacing == 0x0) || (SIZEOF (.vector_50) <= (_vector_spacing << 0x5))), function at exception vector 50 too large)

.vector_51      0x9d003860        0x0
 *(.vector_51)
                0x00000001                ASSERT (((_vector_spacing == 0x0) || (SIZEOF (.vector_51) <= (_vector_spacing << 0x5))), function at exception vector 51 too large)

.vector_52      0x9d003880        0x0
 *(.vector_52)
                0x00000001                ASSERT (((_vector_spacing == 0x0) || (SIZEOF (.vector_52) <= (_vector_spacing << 0x5))), function at exception vector 52 too large)

.vector_53      0x9d0038a0        0x0
 *(.vector_53)
                0x00000001                ASSERT (((_vector_spacing == 0x0) || (SIZEOF (.vector_53) <= (_vector_spacing << 0x5))), function at exception vector 53 too large)

.vector_54      0x9d0038c0        0x0
 *(.vector_54)
                0x00000001                ASSERT (((_vector_spacing == 0x0) || (SIZEOF (.vector_54) <= (_vector_spacing << 0x5))), function at exception vector 54 too large)

.vector_55      0x9d0038e0        0x0
 *(.vector_55)
                0x00000001                ASSERT (((_vector_spacing == 0x0) || (SIZEOF (.vector_55) <= (_vector_spacing << 0x5))), function at exception vector 55 too large)

.vector_56      0x9d003900        0x0
 *(.vector_56)
                0x00000001                ASSERT (((_vector_spacing == 0x0) || (SIZEOF (.vector_56) <= (_vector_spacing << 0x5))), function at exception vector 56 too large)

.vector_57      0x9d003920        0x0
 *(.vector_57)
                0x00000001                ASSERT (((_vector_spacing == 0x0) || (SIZEOF (.vector_57) <= (_vector_spacing << 0x5))), function at exception vector 57 too large)

.vector_58      0x9d003940        0x0
 *(.vector_58)
                0x00000001                ASSERT (((_vector_spacing == 0x0) || (SIZEOF (.vector_58) <= (_vector_spacing << 0x5))), function at exception vector 58 too large)

.vector_59      0x9d003960        0x0
 *(.vector_59)
                0x00000001                ASSERT (((_vector_spacing == 0x0) || (SIZEOF (.vector_59) <= (_vector_spacing << 0x5))), function at exception vector 59 too large)

.vector_60      0x9d003980        0x0
 *(.vector_60)
                0x00000001                ASSERT (((_vector_spacing == 0x0) || (SIZEOF (.vector_60) <= (_vector_spacing << 0x5))), function at exception vector 60 too large)

.vector_61      0x9d0039a0        0x0
 *(.vector_61)
                0x00000001                ASSERT (((_vector_spacing == 0x0) || (SIZEOF (.vector_61) <= (_vector_spacing << 0x5))), function at exception vector 61 too large)

.vector_62      0x9d0039c0        0x0
 *(.vector_62)
                0x00000001                ASSERT (((_vector_spacing == 0x0) || (SIZEOF (.vector_62) <= (_vector_spacing << 0x5))), function at exception vector 62 too large)

.vector_63      0x9d0039e0        0x0
 *(.vector_63)
                0x00000001                ASSERT (((_vector_spacing == 0x0) || (SIZEOF (.vector_63) <= (_vector_spacing << 0x5))), function at exception vector 63 too large)

.startup        0x9d004490      0x1e0
 *(.startup)
 .startup       0x9d004490      0x1e0 E:/Olimex/Compilers/Microchip/MPLAB C32 1_11B/bin/../lib/gcc/pic32mx/3.4.4/../../../../pic32mx/lib/speed/crt0.o

.text           0x9d004a00    0x68fa8
                0x9d004a00                _text_begin = .
 *(.text .stub .text.* .gnu.linkonce.t.*)
 .text          0x9d004a00       0x18 E:/Olimex/Compilers/Microchip/MPLAB C32 1_11B/bin/../lib/gcc/pic32mx/3.4.4/../../../../pic32mx/lib/speed/crt0.o
 .text          0x9d004a18     0x4830 build/OLIMEX/production/_ext/2012694729/Commands.o
                0x9d004a18                cmd_null
                0x9d004a20                cmd_print
                0x9d004c10                cmd_write
                0x9d004de0                cmd_let
                0x9d004ee4                cmd_continue
                0x9d004f30                cmd_new
                0x9d004f78                cmd_clear
                0x9d004f98                cmd_goto
                0x9d004fc8                cmd_else
                0x9d005188                cmd_end
                0x9d0051ac                cmd_input
                0x9d005510                cmd_tron
                0x9d005550                cmd_troff
                0x9d005574                cmd_for
                0x9d005aa4                cmd_next
                0x9d005dac                cmd_do
                0x9d0060f8                cmd_loop
                0x9d0062b8                cmd_exit
                0x9d0063cc                cmd_error
                0x9d0063fc                cmd_randomize
                0x9d006438                cmd_gosub
                0x9d00649c                cmd_return
                0x9d0064f0                cmd_read
                0x9d00681c                cmd_restore
                0x9d006840                cmd_lineinput
                0x9d006a48                cmd_delete
                0x9d006c60                cmd_on
                0x9d006dc8                cmd_dim
                0x9d006e60                cmd_erase
                0x9d007084                cmd_option
                0x9d007354                cmd_memory
                0x9d0074e4                GetNewNumber
                0x9d0076bc                cmd_renumber
                0x9d007f58                llist
                0x9d00816c                cmd_edit
                0x9d0081f8                cmd_poke
                0x9d008280                cmd_auto
                0x9d00831c                mergefile
                0x9d0084c8                cmd_merge
                0x9d008500                cmd_load
                0x9d008590                cmd_run
                0x9d00870c                flist
                0x9d0088a8                cmd_save
                0x9d008960                cmd_list
                0x9d008a9c                execute_one_command
                0x9d008bc4                cmd_if
 .text          0x9d009248     0x63fc build/OLIMEX/production/_ext/2012694729/Custom.o
                0x9d009248                ow_pinChk
                0x9d0092ac                ow_onOCPin
                0x9d009460                ow_setPin
                0x9d009614                ow_outputPin
                0x9d0097c8                ow_offOCPin
                0x9d00997c                ow_familySearchSetup
                0x9d0099b0                ow_skipFamily
                0x9d0099d0                ow_serialNum
                0x9d009a50                setcrc8
                0x9d009a58                docrc8
                0x9d009a80                fun_owCRC8
                0x9d009dc8                setcrc16
                0x9d009dd0                docrc16
                0x9d009e64                fun_owCRC16
                0x9d00a200                fun_mmOW
                0x9d00a224                ow_clrPin
                0x9d00a3d8                ow_inputPin
                0x9d00a58c                ow_readPin
                0x9d00a6f8                ow_reset
                0x9d00ae70                cmd_owReset
                0x9d00b51c                ow_readBit
                0x9d00bcb4                ow_readByte
                0x9d00bd0c                cmd_owRead
                0x9d00c868                ow_writeBit
                0x9d00ced4                ow_touchBit
                0x9d00cf34                ow_touchByte
                0x9d00cfc4                ow_verifyByte
                0x9d00d064                ow_writeByte
                0x9d00d0b4                ow_next
                0x9d00d360                ow_verify
                0x9d00d45c                ow_first
                0x9d00d46c                cmd_owSearch
                0x9d00e034                cmd_owWrite
                0x9d00eab4                cmd_shiftout
                0x9d00edac                cmd_shiftin
                0x9d00f1f0                fun_vmem
                0x9d00f218                xread
                0x9d00f280                cmd_loadbmp
 .text          0x9d00f644     0x236c build/OLIMEX/production/_ext/2012694729/External.o
                0x9d00f644                ExtInp
                0x9d00fb94                fun_pin
                0x9d00fdf0                ExtSet
                0x9d0100ec                ExtCfg
                0x9d010a00                cmd_setpin
                0x9d010bb8                initExtIO
                0x9d010f2c                ClearExternalIO
                0x9d01133c                cmd_pin
                0x9d011720                INT1Interrupt
                0x9d0117c8                INT2Interrupt
                0x9d011868                INT3Interrupt
                0x9d011908                INT4Interrupt
 *fill*         0x9d0119b0      0x650 00000000
 .text          0x9d012000    0x26000 build/OLIMEX/production/_ext/2012694729/Files.o
                0x9d012000                Flash
                0x9d032000                ErrorThrow
                0x9d032048                ErrorCheck
                0x9d0320b8                fun_loc
                0x9d03219c                fun_lof
                0x9d0322f4                fun_errno
                0x9d032318                cmd_drive
                0x9d032388                fun_mmdrive
                0x9d0323b4                fun_mmfname
                0x9d0323f4                CheckAbort
                0x9d032420                GetDrive
                0x9d0324d8                MMfread
                0x9d0324f0                FlashCloseRead
                0x9d0324fc                cmd_msdon
                0x9d032554                cmd_msdoff
                0x9d032564                InitSDCard
                0x9d032610                SDFileExists
                0x9d032670                MMgetcwd
                0x9d0326c8                fun_cwd
                0x9d032750                MMfeof
                0x9d032858                fun_eof
                0x9d032900                cmd_chdir
                0x9d032974                cmd_rmdir
                0x9d032a40                cmd_mkdir
                0x9d032b0c                cmd_sdformat
                0x9d032b98                FindFreeFileNbr
                0x9d032bd0                FlashWriteWord
                0x9d032c50                FlashWriteByte
                0x9d032ccc                FlashCloseWrite
                0x9d032d78                MMfclose
                0x9d032f64                CloseAllFiles
                0x9d03303c                cmd_close
                0x9d033140                FindFlashBlock
                0x9d0331e8                FlashFileKill
                0x9d0332ac                cmd_kill
                0x9d0333b8                FindFreeFlashBlock
                0x9d0334ec                GetNextGeneration
                0x9d033520                FlashRename
                0x9d03379c                cmd_name
                0x9d0339ec                FlashAllocateNewBlock
                0x9d033b94                FlashWriteNextByte
                0x9d033db8                FlashPutc
                0x9d03419c                MMfputc
                0x9d034718                MMfputs
                0x9d03477c                FlashGetNextByte
                0x9d03487c                FlashGetc
                0x9d034c1c                MMfgetc
                0x9d035108                MMgetline
                0x9d03545c                fun_inputstr
                0x9d035568                FlashFreeSpace
                0x9d0355b8                FlashList
                0x9d035708                cmd_files
                0x9d035cb8                FlashOpenRead
                0x9d035db8                FlashOpenWrite
                0x9d036018                FlashGetEOF
                0x9d036264                FlashOpenAppend
                0x9d0365e8                MMfopen
                0x9d036ae8                cmd_open
                0x9d036d6c                FlashPutStr
 .text          0x9d038000      0xfd0 build/OLIMEX/production/_ext/2012694729/Functions.o
                0x9d038000                fun_abs
                0x9d038030                fun_asc
                0x9d03808c                fun_atn
                0x9d0380b8                fun_chr
                0x9d03810c                fun_cint
                0x9d038138                fun_cos
                0x9d038164                fun_exp
                0x9d038190                fun_hex
                0x9d0381d0                fun_instr
                0x9d038340                fun_int
                0x9d03836c                fun_fix
                0x9d0383a0                fun_left
                0x9d03844c                fun_len
                0x9d0384a8                fun_log
                0x9d0384d4                fun_mid
                0x9d038610                fun_oct
                0x9d038650                fun_right
                0x9d03872c                fun_rnd
                0x9d038764                fun_sgn
                0x9d0387e4                fun_sin
                0x9d038810                fun_sqr
                0x9d038864                fun_tan
                0x9d038890                fun_val
                0x9d038988                fun_space
                0x9d0389e8                fun_str
                0x9d038a34                fun_string
                0x9d038b30                fun_format
                0x9d038ce8                fun_ucase
                0x9d038d6c                fun_lcase
                0x9d038df0                fun_peek
                0x9d038ea8                fun_version
 .text          0x9d038fd0      0xfc4 build/OLIMEX/production/_ext/2012694729/Graphics.o
                0x9d038fd0                cmd_cls
                0x9d038ff0                cmd_locate
                0x9d039064                fun_pixel
                0x9d0390ec                fun_hres
                0x9d039110                fun_vres
                0x9d039134                xwrite
                0x9d039194                cmd_savebmp
                0x9d0395d0                getcoord
                0x9d039690                cmd_pixel
                0x9d039808                cmd_preset
                0x9d03991c                cmd_pset
                0x9d039a30                cmd_line
                0x9d039dfc                cmd_circle
 .text          0x9d039f94      0x25c build/OLIMEX/production/_ext/2012694729/Help.o
                0x9d039f94                cmd_help
 .text          0x9d03a1f0     0x29c0 build/OLIMEX/production/_ext/2012694729/I2C.o
                0x9d03a1f0                i2c_masterCommand
                0x9d03a2a4                cmd_i2cSend
                0x9d03a6d0                cmd_i2cReceive
                0x9d03abd0                i2c_slave_send
                0x9d03ac18                cmd_i2cSlaveSend
                0x9d03aecc                i2c_slave_receive
                0x9d03b05c                cmd_i2cSlaveReceive
                0x9d03b360                cmd_num2byte
                0x9d03b5bc                fun_byte2num
                0x9d03b774                fun_mmi2c
                0x9d03b798                I2C1Interrupt
                0x9d03c128                i2c_slave_enable
                0x9d03c25c                cmd_i2cSlaveEnable
                0x9d03c504                i2c_enable
                0x9d03c5fc                cmd_i2cEnable
                0x9d03c800                i2c_slave_disable
                0x9d03c8b8                cmd_i2cSlaveDisable
                0x9d03c97c                i2c_disable
                0x9d03ca90                cmd_i2cDisable
 .text          0x9d03cbb0     0x565c build/OLIMEX/production/_ext/2012694729/MMBasic.o
                0x9d03cbb0                strncasecmp
                0x9d03cc10                str_equal
                0x9d03cc84                ClearTempStringSpace
                0x9d03ccec                clearvars
                0x9d03cdb4                clearstack
                0x9d03ce08                error
                0x9d03cf64                GetTokenValue
                0x9d03d018                commandvalue
                0x9d03d0cc                ExecuteProgram
                0x9d03d450                findline
                0x9d03d4e4                IsValidLine
                0x9d03d568                AddProgramLine
                0x9d03d768                tokenise
                0x9d03e04c                clearprog
                0x9d03e178                ProcessInputLine
                0x9d03e2a8                EditInputLine
                0x9d03ee94                InitBasic
                0x9d03f5f8                MMround
                0x9d03f6ec                getclosebracket
                0x9d03f79c                makeargs
                0x9d03fac0                vartype
                0x9d03fb90                skipvar
                0x9d03fd28                CtoM
                0x9d03fda8                makeupper
                0x9d03fde4                getmemory
                0x9d03fe44                GetTempStringSpace
                0x9d03fed4                findvar
                0x9d040774                getvalue
                0x9d041294                doexpr
                0x9d041444                evaluate
                0x9d041694                getstring
                0x9d0416c4                getnumber
                0x9d0416f4                getinteger
                0x9d041804                checkend
                0x9d041850                checkstring
                0x9d041920                GetLineLength
                0x9d041954                InsertLastcmd
                0x9d041a18                MtoC
                0x9d041a50                Mstrcpy
                0x9d041a94                getCstring
                0x9d041bbc                MMBasicStart
                0x9d0421bc                Mstrcat
 .text          0x9d04220c     0x1a30 build/OLIMEX/production/_ext/2012694729/Misc.o
                0x9d04220c                cmd_timer
                0x9d0422e0                fun_timer
                0x9d042338                cmd_date
                0x9d042544                fun_date
                0x9d042614                fun_dow
                0x9d042640                cmd_time
                0x9d042830                fun_time
                0x9d0428b0                fun_inkey
                0x9d042908                cmd_sound
                0x9d042b44                cmd_ireturn
                0x9d042b80                cmd_settick
                0x9d042c50                fun_pos
                0x9d042c74                fun_tab
                0x9d042d0c                cmd_copyright
                0x9d042d94                fun_spi
                0x9d0430ac                cmd_font
                0x9d043840                check_interrupt
                0x9d043b34                cmd_pause
 .text          0x9d043c3c      0x5dc build/OLIMEX/production/_ext/2012694729/Operators.o
                0x9d043c3c                op_invalid
                0x9d043c50                op_exp
                0x9d043cb0                op_mul
                0x9d043cd8                op_div
                0x9d043d24                op_divint
                0x9d043d7c                op_add
                0x9d043e00                op_subtract
                0x9d043e28                op_mod
                0x9d043e80                op_ne
                0x9d043ee8                op_gte
                0x9d043f68                op_lte
                0x9d043fe8                op_lt
                0x9d044068                op_gt
                0x9d0440e8                op_equal
                0x9d044150                op_and
                0x9d04418c                op_or
                0x9d0441c8                op_xor
                0x9d044204                op_not
 .text          0x9d044218      0xb84 build/OLIMEX/production/_ext/2012694729/XModem.o
                0x9d044218                _inbyte
                0x9d04428c                xmodemReceive
                0x9d04471c                xmodemTransmit
                0x9d044c5c                cmd_xmodem
 .text          0x9d044d9c     0x333c build/OLIMEX/production/_ext/2012694729/Editor.o
                0x9d044d9c                putch
                0x9d044dc8                PrintString
                0x9d044dfc                clrscr
                0x9d044e58                getch
                0x9d044e84                gotoxy
                0x9d044edc                display_scrn
                0x9d044fb4                show_help
                0x9d04506c                cmd_testcalloc
                0x9d045150                ReverseVideo
                0x9d0451c4                help
                0x9d0452b4                home
                0x9d0452cc                gotoend
                0x9d04530c                pageup
                0x9d0453e4                pagedown
                0x9d045480                edit_clr_eol
                0x9d045510                scrollup
                0x9d0455b0                scrolldn
                0x9d0456a8                printline
                0x9d045720                downline
                0x9d0458d4                right
                0x9d045998                upline
                0x9d045be0                left
                0x9d045ed0                delete_char
                0x9d04606c                kill_line
                0x9d0461e8                paste
                0x9d046314                clrline
                0x9d046364                edit_gets
                0x9d046438                search
                0x9d0465b0                replace
                0x9d046880                info
                0x9d0468dc                load
                0x9d046980                save
                0x9d046b34                cmd_fse
                0x9d0480d0                cursor_pos
 .text          0x9d0480d8     0x952c build/OLIMEX/production/_ext/779736424/FSIO.o
                0x9d0480d8                Cluster2Sector
                0x9d048130                ReadByte
                0x9d048140                LoadMBR
                0x9d048320                ReadWord
                0x9d04833c                ReadDWord
                0x9d04837c                LoadBootSector
                0x9d048878                DISKmount
                0x9d048944                FSInit
                0x9d048aac                GetFullClusterNumber
                0x9d048ac0                flushData
                0x9d048b48                FSCreateMBR
                0x9d048dd0                FSformat
                0x9d049b30                Write_File_Entry
                0x9d049c28                WriteFAT
                0x9d04a044                ReadFAT
                0x9d04a350                Cache_File_Entry
                0x9d04a65c                FILEget_next_cluster
                0x9d04a74c                FAT_erase_cluster_chain
                0x9d04a854                LoadDirAttrib
                0x9d04a914                PopulateEntries
                0x9d04aac0                SetClockVars
                0x9d04abac                FATfindEmptyCluster
                0x9d04ac90                EraseCluster
                0x9d04ae18                FILECreateHeadCluster
                0x9d04b0d8                CreateFirstCluster
                0x9d04b514                FILEallocate_new_cluster
                0x9d04b804                FindEmptyEntries
                0x9d04b968                CreateFileEntry
                0x9d04c070                FSfclose
                0x9d04c3f8                Fill_File_Object
                0x9d04c55c                FILEopen
                0x9d04c770                FILEfind
                0x9d04ca48                FILEerase
                0x9d04cd64                FileObjectCopy
                0x9d04cd88                FSfseek
                0x9d04d1fc                FSftell
                0x9d04d208                FSrewind
                0x9d04d2b0                FSerror
                0x9d04d2b8                FSattrib
                0x9d04d4a8                FSfwrite
                0x9d04da28                FSfeof
                0x9d04da40                FSfread
                0x9d04de30                ValidateChars
                0x9d04dfa8                FormatFileName
                0x9d04e33c                FSremove
                0x9d04e49c                FSfopen
                0x9d04e8c0                FSrename
                0x9d04eb80                FormatDirName
                0x9d04eeac                chdirhelper
                0x9d04f368                FSchdir
                0x9d04f378                GetPreviousEntry
                0x9d04f584                FSgetcwd
                0x9d04fae4                writeDotEntries
                0x9d04fc7c                CreateDIR
                0x9d04fef0                mkdirhelper
                0x9d050450                FSmkdir
                0x9d050460                eraseDir
                0x9d05057c                rmdirhelper
                0x9d05106c                FSrmdir
                0x9d051084                FindFirst
                0x9d051390                FindNext
 .text          0x9d051604     0x1254 build/OLIMEX/production/_ext/779736424/SD-SPI.o
                0x9d051604                MDD_SDSPI_MediaDetect
                0x9d05160c                MDD_SDSPI_ReadSectorSize
                0x9d051614                MDD_SDSPI_ReadCapacity
                0x9d05161c                MDD_SDSPI_InitIO
                0x9d051648                CloseSPIM
                0x9d051660                MDD_SDSPI_ShutdownMedia
                0x9d05168c                MDD_SDSPI_WriteProtectState
                0x9d051694                Delayms
                0x9d0516dc                MDD_SDSPI_ReadMedia
                0x9d051708                WriteSPIM
                0x9d051738                SendMMCCmd
                0x9d0519cc                MDD_SDSPI_AsyncWriteTasks
                0x9d051dfc                MDD_SDSPI_SectorWrite
                0x9d051e8c                MDD_SDSPI_AsyncReadTasks
                0x9d0521b4                MDD_SDSPI_SectorRead
                0x9d05221c                OpenSPIM
                0x9d052298                InitSPISlowMode
                0x9d0522cc                MDD_SDSPI_MediaInitialize
 .text          0x9d052858     0x2438 build/OLIMEX/production/_ext/678306549/usb_device.o
                0x9d052858                USBDeviceInit
                0x9d052a94                USBCtrlEPAllowStatusStage
                0x9d052ba0                USBEnableEndpoint
                0x9d052c70                USBTransferOnePacket
                0x9d052d7c                USBStallEndpoint
                0x9d052e68                USBCancelIO
                0x9d052f64                USBCtrlEPAllowDataStage
                0x9d053174                USBDeviceTasks
 .text          0x9d054c90      0x54c build/OLIMEX/production/_ext/488640762/usb_function_cdc.o
                0x9d054c90                USBCheckCDCRequest
                0x9d054df4                CDCInitEP
                0x9d054e60                USBCDCEventHandler
                0x9d054ed4                getsUSBUSART
                0x9d054f94                putUSBUSART
                0x9d054fbc                putsUSBUSART
                0x9d055008                putrsUSBUSART
                0x9d055054                CDCTxService
 .text          0x9d0551dc     0x1a28 build/OLIMEX/production/_ext/718657706/usb_function_msd.o
                0x9d0551dc                ResetSenseData
                0x9d055238                USBMSDInit
                0x9d055428                USBCheckMSDRequest
                0x9d055588                MSDErrorHandler
                0x9d055744                MSDCheckForErrorCases
                0x9d05584c                MSDWriteHandler
                0x9d055c04                MSDReadHandler
                0x9d055f20                MSDProcessCommandMediaPresent
                0x9d0565c4                MSDProcessCommandMediaAbsent
                0x9d056694                MSDProcessCommand
                0x9d0568e0                MSDTasks
 .text          0x9d056c04      0xa18 build/OLIMEX/production/_ext/1624479370/DrawChar.o
                0x9d056c04                DrawChar
                0x9d0570d8                SetFont
                0x9d057134                initFont
                0x9d057204                UnloadFont
                0x9d0572b0                VideoPutc
                0x9d0574c0                ShowCursor
 .text          0x9d05761c      0x480 build/OLIMEX/production/_ext/1624479370/VT100.o
                0x9d05761c                VT100cls
                0x9d057680                VT100Filter
 .text          0x9d057a9c      0xfa4 build/OLIMEX/production/_ext/1624479370/Video.o
                0x9d057a9c                initVideo
                0x9d057d9c                T3Interrupt
                0x9d057f74                plot
                0x9d057ffc                pixel
                0x9d058068                MMcls
                0x9d058088                MMline
                0x9d0582a0                MMbox
                0x9d0583d0                MMCircle
 .text          0x9d058a40     0x170c build/OLIMEX/production/_ext/2129892895/GameDuino.o
                0x9d058a40                StartSpi
                0x9d058ae8                GDReadB
                0x9d058c84                GDWriteB
                0x9d058dd4                GDFill
                0x9d058f18                fun_GDInit
                0x9d059030                GDInit
                0x9d0591c8                GDCopy
                0x9d059310                cmd_GDFill
                0x9d0593a4                GDWriteW
                0x9d059518                cmd_GDPlayWav
                0x9d059520                cmd_GDWriteB
                0x9d05959c                cmd_GDWriteW
                0x9d05962c                fun_GDReadB
                0x9d0596d0                fun_GDReadW
                0x9d059914                cmd_GDSpriteC
                0x9d059a4c                GDXsprite
                0x9d059b50                GDLoadF
                0x9d059d94                cmd_GDLoadF
                0x9d059e00                cmd_GDWaitVblank
                0x9d059e3c                fun_GDRGB
                0x9d059ee4                cmd_GDVoices
 .text          0x9d05a14c      0x4b8 build/OLIMEX/production/_ext/179026188/Keyboard.o
                0x9d05a14c                initKeyboard
                0x9d05a1c8                CNInterrupt
 .text          0x9d05a604     0x1830 build/OLIMEX/production/_ext/1728301206/Main.o
                0x9d05a604                mySetLineCodingHandler
                0x9d05a638                T1Interrupt
                0x9d05a974                USBCBSuspend
                0x9d05a97c                USBCBWakeFromSuspend
                0x9d05a984                USBCB_SOF_Handler
                0x9d05a98c                USBCBErrorHandler
                0x9d05a994                USBCBCheckOtherReq
                0x9d05a9b0                USBCBStdSetDscHandler
                0x9d05a9b8                USBCBInitEP
                0x9d05a9e0                USBCBSendResume
                0x9d05aa6c                USER_USB_CALLBACK_EVENT_HANDLER
                0x9d05aae4                MMInkeyTask
                0x9d05ab7c                MMInkey
                0x9d05af80                MMgetchar
                0x9d05afe0                USBPutchar
                0x9d05b0b8                MMputchar
                0x9d05b20c                MMPrintString
                0x9d05b3b8                main
                0x9d05bdf8                _general_exception_handler
 .text          0x9d05be34     0x1458 build/OLIMEX/production/_ext/2129892895/RTC.o
                0x9d05be34                dayofweek
                0x9d05bec0                cmd_SDEnable
                0x9d05bf1c                cmd_SDDisable
                0x9d05bf64                cmd_mmss
                0x9d05bfb0                fun_mmss
                0x9d05c008                ReadRTCC
                0x9d05c16c                I2CRXByte
                0x9d05c224                WriteRTC
                0x9d05c4bc                WriteRTCC
                0x9d05c71c                ReadRTC
                0x9d05ccb8                PrintDateTime
                0x9d05ce98                cmd_sleep
                0x9d05d15c                fun_mmsleep
                0x9d05d180                RtccIsr
 *fill*         0x9d05d28c      0xd74 00000000
 .text          0x9d05e000     0x3000 build/OLIMEX/production/_ext/1728301206/Setup.o
                0x9d05e000                SetupInFlash
                0x9d05f000                SaveSetup
                0x9d05f0b8                SetupDefaults
                0x9d05f1b0                LoadSetup
                0x9d05f248                SetupMainMenu
                0x9d05f668                GetInt
                0x9d05f6a8                PrintInt
                0x9d05f6e4                CustomVideoMode
                0x9d05f8f4                PrintCustomMode
                0x9d05fb34                fun_setup
                0x9d05fbc4                cmd_setup
 .text          0x9d061000      0x5f0 build/OLIMEX/production/_ext/1728301206/Term.o
                0x9d061000                UpdateMenu
                0x9d0610dc                ScrollWindow
                0x9d061164                cmd_term
 .text          0x9d0615f0      0x358 build/OLIMEX/production/_ext/1123757107/Timers.o
                0x9d0615f0                initTimers
                0x9d061660                T4Interrupt
 .text          0x9d061948     0x15a0 build/OLIMEX/production/_ext/1091586137/serial.o
                0x9d061948                SerialOpen
                0x9d0620c4                SerialClose
                0x9d0622e8                SerialPutchar
                0x9d0624e8                SerialRxStatus
                0x9d06259c                SerialTxStatus
                0x9d062650                SerialGetchar
                0x9d0627a8                T5Interrupt
                0x9d062e38                IntUart2Handler
 .text          0x9d062ee8      0x108 E:/Olimex/Compilers/Microchip/MPLAB C32 1_11B/bin/../lib/gcc/pic32mx/3.4.4/../../../../pic32mx/lib/speed\libc.a(setjmp.o)
                0x9d062ee8                setjmp
                0x9d062f20                _setjmp
                0x9d062f58                longjmp
                0x9d062f84                _longjmp
                0x9d062fb8                sigsetjmp
                0x9d062fc8                siglongjmp
                0x9d062fdc                sigprocmask
 .text          0x9d062ff0       0x98 E:/Olimex/Compilers/Microchip/MPLAB C32 1_11B/bin/../lib/gcc/pic32mx/3.4.4/../../../../pic32mx/lib/speed\libc.a(memcmp.o)
                0x9d062ff0                memcmp
 .text          0x9d063088      0x168 E:/Olimex/Compilers/Microchip/MPLAB C32 1_11B/bin/../lib/gcc/pic32mx/3.4.4/../../../../pic32mx/lib/speed\libc.a(memcpy.o)
                0x9d063088                memcpy
 .text          0x9d0631f0       0xa8 E:/Olimex/Compilers/Microchip/MPLAB C32 1_11B/bin/../lib/gcc/pic32mx/3.4.4/../../../../pic32mx/lib/speed\libc.a(memset.o)
                0x9d0631f0                memset
 .text          0x9d063298      0x120 E:/Olimex/Compilers/Microchip/MPLAB C32 1_11B/bin/../lib/gcc/pic32mx/3.4.4/../../../../pic32mx/lib/speed\libc.a(strcmp.o)
                0x9d063298                strcmp
 .text          0x9d0633b8      0x1a0 E:/Olimex/Compilers/Microchip/MPLAB C32 1_11B/bin/../lib/gcc/pic32mx/3.4.4/../../../../pic32mx/lib/speed\libc.a(strcpy.o)
                0x9d0633b8                strcpy
 .text          0x9d063558      0x168 E:/Olimex/Compilers/Microchip/MPLAB C32 1_11B/bin/../lib/gcc/pic32mx/3.4.4/../../../../pic32mx/lib/speed\libc.a(strlen.o)
                0x9d063558                strlen
 .text.general_exception
                0x9d0636c0       0xd0 E:/Olimex/Compilers/Microchip/MPLAB C32 1_11B/bin/../lib/gcc/pic32mx/3.4.4/../../../../pic32mx/lib/speed\libc.a(general-exception.o)
                0x9d0636c0                _general_exception_context
 .text.strcat   0x9d063790       0x9c E:/Olimex/Compilers/Microchip/MPLAB C32 1_11B/bin/../lib/gcc/pic32mx/3.4.4/../../../../pic32mx/lib/speed\libc.a(strcat.o)
                0x9d063790                strcat
 .text.strncmp  0x9d06382c       0xdc E:/Olimex/Compilers/Microchip/MPLAB C32 1_11B/bin/../lib/gcc/pic32mx/3.4.4/../../../../pic32mx/lib/speed\libc.a(strncmp.o)
                0x9d06382c                strncmp
 .text.strncpy  0x9d063908       0xcc E:/Olimex/Compilers/Microchip/MPLAB C32 1_11B/bin/../lib/gcc/pic32mx/3.4.4/../../../../pic32mx/lib/speed\libc.a(strncpy.o)
                0x9d063908                strncpy
 .text.strchr   0x9d0639d4       0x98 E:/Olimex/Compilers/Microchip/MPLAB C32 1_11B/bin/../lib/gcc/pic32mx/3.4.4/../../../../pic32mx/lib/speed\libc.a(strchr.o)
                0x9d0639d4                strchr
 .text.memmove  0x9d063a6c       0x58 E:/Olimex/Compilers/Microchip/MPLAB C32 1_11B/bin/../lib/gcc/pic32mx/3.4.4/../../../../pic32mx/lib/speed\libc.a(memmove.o)
                0x9d063a6c                memmove
 .text.exit     0x9d063ac4       0x10 E:/Olimex/Compilers/Microchip/MPLAB C32 1_11B/bin/../lib/gcc/pic32mx/3.4.4/../../../../pic32mx/lib/speed\libc.a(exit.o)
                0x9d063ac4                exit
 .text.tolower  0x9d063ad4       0x20 E:/Olimex/Compilers/Microchip/MPLAB C32 1_11B/bin/../lib/gcc/pic32mx/3.4.4/../../../../pic32mx/lib/speed\libc.a(ctypef.o)
                0x9d063ad4                tolower
 .text.toupper  0x9d063af4       0x20 E:/Olimex/Compilers/Microchip/MPLAB C32 1_11B/bin/../lib/gcc/pic32mx/3.4.4/../../../../pic32mx/lib/speed\libc.a(ctypef.o)
                0x9d063af4                toupper
 .text.malloc_trim
                0x9d063b14      0x114 E:/Olimex/Compilers/Microchip/MPLAB C32 1_11B/bin/../lib/gcc/pic32mx/3.4.4/../../../../pic32mx/lib/speed\libc.a(malloc.o)
                0x9d063b14                malloc_trim
 .text.free     0x9d063c28      0x24c E:/Olimex/Compilers/Microchip/MPLAB C32 1_11B/bin/../lib/gcc/pic32mx/3.4.4/../../../../pic32mx/lib/speed\libc.a(malloc.o)
                0x9d063c28                free
 .text.malloc   0x9d063e74      0x758 E:/Olimex/Compilers/Microchip/MPLAB C32 1_11B/bin/../lib/gcc/pic32mx/3.4.4/../../../../pic32mx/lib/speed\libc.a(malloc.o)
                0x9d063e74                malloc
 .text.calloc   0x9d0645cc       0xf8 E:/Olimex/Compilers/Microchip/MPLAB C32 1_11B/bin/../lib/gcc/pic32mx/3.4.4/../../../../pic32mx/lib/speed\libc.a(malloc_calloc.o)
                0x9d0645cc                calloc
 .text.rand_r   0x9d0646c4       0x28 E:/Olimex/Compilers/Microchip/MPLAB C32 1_11B/bin/../lib/gcc/pic32mx/3.4.4/../../../../pic32mx/lib/speed\libc.a(rand.o)
                0x9d0646c4                rand_r
 .text.rand     0x9d0646ec       0x48 E:/Olimex/Compilers/Microchip/MPLAB C32 1_11B/bin/../lib/gcc/pic32mx/3.4.4/../../../../pic32mx/lib/speed\libc.a(rand.o)
                0x9d0646ec                rand
 .text.srand    0x9d064734       0x44 E:/Olimex/Compilers/Microchip/MPLAB C32 1_11B/bin/../lib/gcc/pic32mx/3.4.4/../../../../pic32mx/lib/speed\libc.a(rand.o)
                0x9d064734                srand
 .text.strtol   0x9d064778      0x1f0 E:/Olimex/Compilers/Microchip/MPLAB C32 1_11B/bin/../lib/gcc/pic32mx/3.4.4/../../../../pic32mx/lib/speed\libc.a(strtol.o)
                0x9d064778                strtol
 .text.strtod   0x9d064968        0x8 E:/Olimex/Compilers/Microchip/MPLAB C32 1_11B/bin/../lib/gcc/pic32mx/3.4.4/../../../../pic32mx/lib/speed\libc.a(strtod.o)
                0x9d064968                strtod
 .text.sprintf  0x9d064970       0x34 E:/Olimex/Compilers/Microchip/MPLAB C32 1_11B/bin/../lib/gcc/pic32mx/3.4.4/../../../../pic32mx/lib/speed\libc.a(sprintf.o)
                0x9d064970                sprintf
                0x9d064970                _isprintf
 .text.__vsnprintf
                0x9d0649a4       0x60 E:/Olimex/Compilers/Microchip/MPLAB C32 1_11B/bin/../lib/gcc/pic32mx/3.4.4/../../../../pic32mx/lib/speed\libc.a(__vsnprintf.o)
                0x9d0649a4                __ivsnprintf
                0x9d0649a4                __vsnprintf
 .text._weak_pthread_mutex_lock
                0x9d064a04        0x8 E:/Olimex/Compilers/Microchip/MPLAB C32 1_11B/bin/../lib/gcc/pic32mx/3.4.4/../../../../pic32mx/lib/speed\libc.a(stubs.o)
                0x9d064a04                pthread_mutex_lock
                0x9d064a04                _weak_pthread_mutex_lock
 .text._weak_pthread_mutex_unlock
                0x9d064a0c        0x8 E:/Olimex/Compilers/Microchip/MPLAB C32 1_11B/bin/../lib/gcc/pic32mx/3.4.4/../../../../pic32mx/lib/speed\libc.a(stubs.o)
                0x9d064a0c                pthread_mutex_unlock
                0x9d064a0c                _weak_pthread_mutex_unlock
 .text._weak__libc_private_storage
                0x9d064a14        0x8 E:/Olimex/Compilers/Microchip/MPLAB C32 1_11B/bin/../lib/gcc/pic32mx/3.4.4/../../../../pic32mx/lib/speed\libc.a(stubs.o)
                0x9d064a14                _libc_private_storage
                0x9d064a14                _weak__libc_private_storage
 .text.getpagesize
                0x9d064a1c        0x8 E:/Olimex/Compilers/Microchip/MPLAB C32 1_11B/bin/../lib/gcc/pic32mx/3.4.4/../../../../pic32mx/lib/speed\libc.a(sbrk.o)
                0x9d064a1c                getpagesize
 .text._stub_sbd_memlayout
                0x9d064a24       0x2c E:/Olimex/Compilers/Microchip/MPLAB C32 1_11B/bin/../lib/gcc/pic32mx/3.4.4/../../../../pic32mx/lib/speed\libc.a(sbrk.o)
                0x9d064a24                _stub_sbd_memlayout
                0x9d064a24                _sbd_memlayout
 .text._sbrk_init
                0x9d064a50      0x168 E:/Olimex/Compilers/Microchip/MPLAB C32 1_11B/bin/../lib/gcc/pic32mx/3.4.4/../../../../pic32mx/lib/speed\libc.a(sbrk.o)
                0x9d064a50                _sbrk_init
 .text._sbrk    0x9d064bb8       0xe8 E:/Olimex/Compilers/Microchip/MPLAB C32 1_11B/bin/../lib/gcc/pic32mx/3.4.4/../../../../pic32mx/lib/speed\libc.a(sbrk.o)
                0x9d064bb8                _sbrk
 .text.sbrk     0x9d064ca0       0x5c E:/Olimex/Compilers/Microchip/MPLAB C32 1_11B/bin/../lib/gcc/pic32mx/3.4.4/../../../../pic32mx/lib/speed\libc.a(sbrk.o)
                0x9d064ca0                sbrk
 .text._bootstrap_exception_handler
                0x9d064cfc        0x8 E:/Olimex/Compilers/Microchip/MPLAB C32 1_11B/bin/../lib/gcc/pic32mx/3.4.4/../../../../pic32mx/lib/speed\libc.a(default-bootstrap-exception-handler.o)
                0x9d064cfc                _bootstrap_exception_handler
 .text._on_reset
                0x9d064d04        0x8 E:/Olimex/Compilers/Microchip/MPLAB C32 1_11B/bin/../lib/gcc/pic32mx/3.4.4/../../../../pic32mx/lib/speed\libc.a(default-on-reset.o)
                0x9d064d04                _on_reset
 .text._on_bootstrap
                0x9d064d0c        0x8 E:/Olimex/Compilers/Microchip/MPLAB C32 1_11B/bin/../lib/gcc/pic32mx/3.4.4/../../../../pic32mx/lib/speed\libc.a(default-on-bootstrap.o)
                0x9d064d0c                _on_bootstrap
 .text          0x9d064d14       0x18 E:/Olimex/Compilers/Microchip/MPLAB C32 1_11B/bin/../lib/gcc/pic32mx/3.4.4/../../../../pic32mx/lib/speed\libc.a(default-nmi-handler.o)
                0x9d064d14                _nmi_handler
 .text._exit    0x9d064d2c        0x8 E:/Olimex/Compilers/Microchip/MPLAB C32 1_11B/bin/../lib/gcc/pic32mx/3.4.4/../../../../pic32mx/lib/speed\libc.a(_exit.o)
                0x9d064d2c                _exit
 .text.__sputn  0x9d064d34       0x70 E:/Olimex/Compilers/Microchip/MPLAB C32 1_11B/bin/../lib/gcc/pic32mx/3.4.4/../../../../pic32mx/lib/speed\libc.a(_doprnt.o)
 .text.repl     0x9d064da4       0x7c E:/Olimex/Compilers/Microchip/MPLAB C32 1_11B/bin/../lib/gcc/pic32mx/3.4.4/../../../../pic32mx/lib/speed\libc.a(_doprnt.o)
 .text._outcnvrt
                0x9d064e20       0xe4 E:/Olimex/Compilers/Microchip/MPLAB C32 1_11B/bin/../lib/gcc/pic32mx/3.4.4/../../../../pic32mx/lib/speed\libc.a(_doprnt.o)
 .text.rounded  0x9d064f04      0x140 E:/Olimex/Compilers/Microchip/MPLAB C32 1_11B/bin/../lib/gcc/pic32mx/3.4.4/../../../../pic32mx/lib/speed\libc.a(_doprnt.o)
 .text.vfprintf
                0x9d065044     0x14ac E:/Olimex/Compilers/Microchip/MPLAB C32 1_11B/bin/../lib/gcc/pic32mx/3.4.4/../../../../pic32mx/lib/speed\libc.a(_doprnt.o)
                0x9d065044                _ivfprintf
                0x9d065044                vfprintf
 .text._filbuf_string
                0x9d0664f0        0x8 E:/Olimex/Compilers/Microchip/MPLAB C32 1_11B/bin/../lib/gcc/pic32mx/3.4.4/../../../../pic32mx/lib/speed\libc.a(_iobstring.o)
 .text._flsbuf_string
                0x9d0664f8        0x8 E:/Olimex/Compilers/Microchip/MPLAB C32 1_11B/bin/../lib/gcc/pic32mx/3.4.4/../../../../pic32mx/lib/speed\libc.a(_iobstring.o)
 .text._fflush_string
                0x9d066500        0x8 E:/Olimex/Compilers/Microchip/MPLAB C32 1_11B/bin/../lib/gcc/pic32mx/3.4.4/../../../../pic32mx/lib/speed\libc.a(_iobstring.o)
 .text._fwrite_string
                0x9d066508        0x8 E:/Olimex/Compilers/Microchip/MPLAB C32 1_11B/bin/../lib/gcc/pic32mx/3.4.4/../../../../pic32mx/lib/speed\libc.a(_iobstring.o)
 .text._fsync_string
                0x9d066510        0x8 E:/Olimex/Compilers/Microchip/MPLAB C32 1_11B/bin/../lib/gcc/pic32mx/3.4.4/../../../../pic32mx/lib/speed\libc.a(_iobstring.o)
 .text.fputc    0x9d066518       0xac E:/Olimex/Compilers/Microchip/MPLAB C32 1_11B/bin/../lib/gcc/pic32mx/3.4.4/../../../../pic32mx/lib/speed\libc.a(fputc.o)
                0x9d066518                fputc
 .text          0x9d0665c4      0x5c8 E:/Olimex/Compilers/Microchip/MPLAB C32 1_11B/bin/../lib/gcc/pic32mx/3.4.4/../../../../pic32mx/lib/speed\libm.a(mod32.o)
                0x9d0665c4                fmod
                0x9d0665c4                dpfmod
                0x9d066864                frexp
                0x9d066864                dpfrexp
                0x9d066908                __mchp_ldexp
                0x9d066908                dpldexp
                0x9d066a70                modf
                0x9d066a70                dpmodf
 .text.pow      0x9d066b8c      0x178 E:/Olimex/Compilers/Microchip/MPLAB C32 1_11B/bin/../lib/gcc/pic32mx/3.4.4/../../../../pic32mx/lib/speed\libm.a(w_pow.o)
                0x9d066b8c                pow
 .text          0x9d066d04      0xa08 E:/Olimex/Compilers/Microchip/MPLAB C32 1_11B/bin/../lib/gcc/pic32mx/3.4.4/../../../../pic32mx/lib/speed\libm.a(fparc32.o)
                0x9d066d04                fpexatan
                0x9d067050                atanf
                0x9d067050                fpatan
                0x9d0670ec                __mchp_atan2f
                0x9d0670ec                fpatan2
                0x9d067330                fpasin
                0x9d067330                __mchp_asinf
                0x9d067508                fpacos
                0x9d067508                __mchp_acosf
 .text          0x9d06770c       0xb0 E:/Olimex/Compilers/Microchip/MPLAB C32 1_11B/bin/../lib/gcc/pic32mx/3.4.4/../../../../pic32mx/lib/speed\libm.a(fpfloo32.o)
                0x9d06770c                floorf
                0x9d06770c                fpfloor
 .text          0x9d0677bc     0x1128 E:/Olimex/Compilers/Microchip/MPLAB C32 1_11B/bin/../lib/gcc/pic32mx/3.4.4/../../../../pic32mx/lib/speed\libm.a(dp32.o)
                0x9d0677bc                __subdf3
                0x9d0677bc                dpsub
                0x9d0677c4                dpadd
                0x9d0677c4                __adddf3
                0x9d067be8                dpmul
                0x9d067be8                __muldf3
                0x9d067f10                dpdiv
                0x9d067f10                __divdf3
                0x9d0683c4                __floatsidf
                0x9d0683c4                litodp
                0x9d068438                ultodp
                0x9d068488                fptodp
                0x9d068488                __extendsfdf2
                0x9d06852c                __truncdfsf2
                0x9d06852c                dptofp
                0x9d068624                dptoli
                0x9d068624                __fixdfsi
                0x9d0686ac                __fixunsdfsi
                0x9d0686ac                dptoul
                0x9d068730                __nedf2
                0x9d068730                __gtdf2
                0x9d068730                __ledf2
                0x9d068730                __ltdf2
                0x9d068730                __gedf2
                0x9d068730                dpcmp
                0x9d068730                __eqdf2
                0x9d068854                __negdf2
                0x9d06886c                fabs
                0x9d06886c                dpfabs
                0x9d068888                nan
                0x9d068888                dpnan
 .text          0x9d0688e4      0x2a0 E:/Olimex/Compilers/Microchip/MPLAB C32 1_11B/bin/../lib/gcc/pic32mx/3.4.4/../../../../pic32mx/lib/speed\libm.a(fpsqrt32.o)
                0x9d0688e4                fpexsqrt
                0x9d0689dc                fpsqrt
                0x9d0689dc                __mchp_sqrtf
 .text.sqrtf    0x9d068b84       0x54 E:/Olimex/Compilers/Microchip/MPLAB C32 1_11B/bin/../lib/gcc/pic32mx/3.4.4/../../../../pic32mx/lib/speed\libm.a(w_sqrtf.o)
                0x9d068b84                sqrtf
 .text          0x9d068bd8      0x8ec E:/Olimex/Compilers/Microchip/MPLAB C32 1_11B/bin/../lib/gcc/pic32mx/3.4.4/../../../../pic32mx/lib/speed\libm.a(fp32.o)
                0x9d068bd8                __subsf3
                0x9d068bd8                fpsub
                0x9d068be0                fpadd
                0x9d068be0                __addsf3
                0x9d068e4c                fpmul
                0x9d068e4c                __mulsf3
                0x9d069004                fpdiv
                0x9d069004                __divsf3
                0x9d069230                litofp
                0x9d069230                sitofp
                0x9d069230                __floatsisf
                0x9d06928c                uitofp
                0x9d06928c                ultofp
                0x9d0692d8                fptosi
                0x9d0692d8                fptoli
                0x9d0692d8                __fixsfsi
                0x9d069350                __fixunssfsi
                0x9d069350                fptoul
                0x9d069350                fptoui
                0x9d0693c4                __eqsf2
                0x9d0693c4                __nesf2
                0x9d0693c4                __lesf2
                0x9d0693c4                __ltsf2
                0x9d0693c4                fpcmp
                0x9d0693c4                __gtsf2
                0x9d0693c4                __gesf2
                0x9d069458                fpfabs
                0x9d069458                fabsf
                0x9d069468                __negsf2
                0x9d069478                fpnan
                0x9d069478                nanf
 .text.logf     0x9d0694c4       0xcc E:/Olimex/Compilers/Microchip/MPLAB C32 1_11B/bin/../lib/gcc/pic32mx/3.4.4/../../../../pic32mx/lib/speed\libm.a(w_logf.o)
                0x9d0694c4                logf
 .text.expf     0x9d069590       0x78 E:/Olimex/Compilers/Microchip/MPLAB C32 1_11B/bin/../lib/gcc/pic32mx/3.4.4/../../../../pic32mx/lib/speed\libm.a(w_expf.o)
                0x9d069590                expf
 .text          0x9d069608      0x1a8 E:/Olimex/Compilers/Microchip/MPLAB C32 1_11B/bin/../lib/gcc/pic32mx/3.4.4/../../../../pic32mx/lib/speed\libm.a(fptan32.o)
                0x9d069608                tanf
                0x9d069608                fptan
 .text          0x9d0697b0      0x114 E:/Olimex/Compilers/Microchip/MPLAB C32 1_11B/bin/../lib/gcc/pic32mx/3.4.4/../../../../pic32mx/lib/speed\libm.a(fpcos32.o)
                0x9d0697b0                cosf
                0x9d0697b0                fpcos
 .text          0x9d0698c4      0x118 E:/Olimex/Compilers/Microchip/MPLAB C32 1_11B/bin/../lib/gcc/pic32mx/3.4.4/../../../../pic32mx/lib/speed\libm.a(fpsin32.o)
                0x9d0698c4                fpsin
                0x9d0698c4                sinf
 .text          0x9d0699dc      0x108 E:/Olimex/Compilers/Microchip/MPLAB C32 1_11B/bin/../lib/gcc/pic32mx/3.4.4/../../../../pic32mx/lib/speed\libm.a(fpreduct32.o)
                0x9d0699dc                fpreduct
 .text          0x9d069ae4      0x520 E:/Olimex/Compilers/Microchip/MPLAB C32 1_11B/bin/../lib/gcc/pic32mx/3.4.4/../../../../pic32mx/lib/speed\libm.a(pow32.o)
                0x9d069ae4                dppow
                0x9d069ae4                __mchp_pow
 .text          0x9d06a004      0x5d8 E:/Olimex/Compilers/Microchip/MPLAB C32 1_11B/bin/../lib/gcc/pic32mx/3.4.4/../../../../pic32mx/lib/speed\libm.a(log32.o)
                0x9d06a004                exlog
                0x9d06a2ec                __mchp_log
                0x9d06a2ec                dplog
                0x9d06a448                __mchp_log10
                0x9d06a448                dplog10
 .text          0x9d06a5dc      0x5d4 E:/Olimex/Compilers/Microchip/MPLAB C32 1_11B/bin/../lib/gcc/pic32mx/3.4.4/../../../../pic32mx/lib/speed\libm.a(func32.o)
                0x9d06a5dc                sigmax
                0x9d06a6e4                exmul
                0x9d06a7b0                exadd
                0x9d06a89c                exsub
                0x9d06a94c                exdiv
 .text          0x9d06abb0      0x45c E:/Olimex/Compilers/Microchip/MPLAB C32 1_11B/bin/../lib/gcc/pic32mx/3.4.4/../../../../pic32mx/lib/speed\libm.a(fplog32.o)
                0x9d06abb0                fpexlog
                0x9d06ae60                __mchp_logf
                0x9d06ae60                fplog
                0x9d06af20                __mchp_log10f
                0x9d06af20                fplog10
 .text          0x9d06b00c      0x200 E:/Olimex/Compilers/Microchip/MPLAB C32 1_11B/bin/../lib/gcc/pic32mx/3.4.4/../../../../pic32mx/lib/speed\libm.a(fpexp32.o)
                0x9d06b00c                fpexexp
                0x9d06b124                __mchp_expf
                0x9d06b124                fpexp
 .text          0x9d06b20c      0x340 E:/Olimex/Compilers/Microchip/MPLAB C32 1_11B/bin/../lib/gcc/pic32mx/3.4.4/../../../../pic32mx/lib/speed\libm.a(exp32.o)
                0x9d06b20c                exexp
                0x9d06b3f0                __mchp_exp
                0x9d06b3f0                dpexp
 .text.__strtod
                0x9d06b54c      0x444 E:/Olimex/Compilers/Microchip/MPLAB C32 1_11B/bin/../lib/gcc/pic32mx/3.4.4/../../../../pic32mx/lib/speed\libe.a(_strtod.o)
                0x9d06b54c                __strtod
 .text.__ldexp  0x9d06b990      0x220 E:/Olimex/Compilers/Microchip/MPLAB C32 1_11B/bin/../lib/gcc/pic32mx/3.4.4/../../../../pic32mx/lib/speed\libe.a(_ldexp.o)
                0x9d06b990                __ldexp
 .text.ReadCoreTimer
                0x9d06bbb0        0x8 E:/Olimex/Compilers/Microchip/MPLAB C32 1_11B/bin/../lib/gcc/pic32mx/3.4.4/../../../../pic32mx/lib/speed\libmchp_peripheral.a(read_core_timer_lib.o)
                0x9d06bbb0                ReadCoreTimer
 .text.WriteCoreTimer
                0x9d06bbb8        0x8 E:/Olimex/Compilers/Microchip/MPLAB C32 1_11B/bin/../lib/gcc/pic32mx/3.4.4/../../../../pic32mx/lib/speed\libmchp_peripheral.a(write_core_timer_lib.o)
                0x9d06bbb8                WriteCoreTimer
 .text.SoftReset
                0x9d06bbc0       0x78 E:/Olimex/Compilers/Microchip/MPLAB C32 1_11B/bin/../lib/gcc/pic32mx/3.4.4/../../../../pic32mx/lib/speed\libmchp_peripheral_32MX795F512H.a(soft_reset_lib.o)
                0x9d06bbc0                SoftReset
 .text.CheKseg0CacheOn
                0x9d06bc38       0x18 E:/Olimex/Compilers/Microchip/MPLAB C32 1_11B/bin/../lib/gcc/pic32mx/3.4.4/../../../../pic32mx/lib/speed\libmchp_peripheral_32MX795F512H.a(pcache.o)
                0x9d06bc38                CheKseg0CacheOn
 .text.INTEnableInterrupts
                0x9d06bc50        0x8 E:/Olimex/Compilers/Microchip/MPLAB C32 1_11B/bin/../lib/gcc/pic32mx/3.4.4/../../../../pic32mx/lib/speed\libmchp_peripheral_32MX795F512H.a(int_enable_interrupts_lib.o)
                0x9d06bc50                INTEnableInterrupts
 .text.INTDisableInterrupts
                0x9d06bc58        0x8 E:/Olimex/Compilers/Microchip/MPLAB C32 1_11B/bin/../lib/gcc/pic32mx/3.4.4/../../../../pic32mx/lib/speed\libmchp_peripheral_32MX795F512H.a(int_disable_interrupts_lib.o)
                0x9d06bc58                INTDisableInterrupts
 .text.INTRestoreInterrupts
                0x9d06bc60       0x1c E:/Olimex/Compilers/Microchip/MPLAB C32 1_11B/bin/../lib/gcc/pic32mx/3.4.4/../../../../pic32mx/lib/speed\libmchp_peripheral_32MX795F512H.a(int_restore_interrupts_lib.o)
                0x9d06bc60                INTRestoreInterrupts
 .text.INTEnableSystemMultiVectoredInt
                0x9d06bc7c       0x34 E:/Olimex/Compilers/Microchip/MPLAB C32 1_11B/bin/../lib/gcc/pic32mx/3.4.4/../../../../pic32mx/lib/speed\libmchp_peripheral_32MX795F512H.a(int_enable_mv_int_lib.o)
                0x9d06bc7c                INTEnableSystemMultiVectoredInt
 .text.INTClearFlag
                0x9d06bcb0       0x2c E:/Olimex/Compilers/Microchip/MPLAB C32 1_11B/bin/../lib/gcc/pic32mx/3.4.4/../../../../pic32mx/lib/speed\libmchp_peripheral_32MX795F512H.a(int_tbl_lib.o)
                0x9d06bcb0                INTClearFlag
 .text.INTEnable
                0x9d06bcdc       0x44 E:/Olimex/Compilers/Microchip/MPLAB C32 1_11B/bin/../lib/gcc/pic32mx/3.4.4/../../../../pic32mx/lib/speed\libmchp_peripheral_32MX795F512H.a(int_tbl_lib.o)
                0x9d06bcdc                INTEnable
 .text.RtccAlarmDisable
                0x9d06bd20       0x2c E:/Olimex/Compilers/Microchip/MPLAB C32 1_11B/bin/../lib/gcc/pic32mx/3.4.4/../../../../pic32mx/lib/speed\libmchp_peripheral_32MX795F512H.a(rtcc_alarm_disable_lib.o)
                0x9d06bd20                RtccAlarmDisable
 .text.RtccAlarmEnable
                0x9d06bd4c       0x2c E:/Olimex/Compilers/Microchip/MPLAB C32 1_11B/bin/../lib/gcc/pic32mx/3.4.4/../../../../pic32mx/lib/speed\libmchp_peripheral_32MX795F512H.a(rtcc_alarm_enable_lib.o)
                0x9d06bd4c                RtccAlarmEnable
 .text.RtccChimeEnable
                0x9d06bd78       0x2c E:/Olimex/Compilers/Microchip/MPLAB C32 1_11B/bin/../lib/gcc/pic32mx/3.4.4/../../../../pic32mx/lib/speed\libmchp_peripheral_32MX795F512H.a(rtcc_chime_enable_lib.o)
                0x9d06bd78                RtccChimeEnable
 .text.RtccInit
                0x9d06bda4      0x17c E:/Olimex/Compilers/Microchip/MPLAB C32 1_11B/bin/../lib/gcc/pic32mx/3.4.4/../../../../pic32mx/lib/speed\libmchp_peripheral_32MX795F512H.a(rtcc_init_lib.o)
                0x9d06bda4                RtccInit
 .text.RtccSetAlarmRptCount
                0x9d06bf20       0x30 E:/Olimex/Compilers/Microchip/MPLAB C32 1_11B/bin/../lib/gcc/pic32mx/3.4.4/../../../../pic32mx/lib/speed\libmchp_peripheral_32MX795F512H.a(rtcc_set_alarm_rpt_count_lib.o)
                0x9d06bf20                RtccSetAlarmRptCount
 .text.RtccSetAlarmRpt
                0x9d06bf50       0x34 E:/Olimex/Compilers/Microchip/MPLAB C32 1_11B/bin/../lib/gcc/pic32mx/3.4.4/../../../../pic32mx/lib/speed\libmchp_peripheral_32MX795F512H.a(rtcc_set_alarm_rpt_lib.o)
                0x9d06bf50                RtccSetAlarmRpt
 .text.RtccSetAlarmTimeDate
                0x9d06bf84       0x28 E:/Olimex/Compilers/Microchip/MPLAB C32 1_11B/bin/../lib/gcc/pic32mx/3.4.4/../../../../pic32mx/lib/speed\libmchp_peripheral_32MX795F512H.a(rtcc_set_alarm_time_date_lib.o)
                0x9d06bf84                RtccSetAlarmTimeDate
 .text.RtccSetTimeDate
                0x9d06bfac       0x28 E:/Olimex/Compilers/Microchip/MPLAB C32 1_11B/bin/../lib/gcc/pic32mx/3.4.4/../../../../pic32mx/lib/speed\libmchp_peripheral_32MX795F512H.a(rtcc_set_time_date_lib.o)
                0x9d06bfac                RtccSetTimeDate
 .text.RtccOpen
                0x9d06bfd4      0x1bc E:/Olimex/Compilers/Microchip/MPLAB C32 1_11B/bin/../lib/gcc/pic32mx/3.4.4/../../../../pic32mx/lib/speed\libmchp_peripheral_32MX795F512H.a(rtcc_open_lib.o)
                0x9d06bfd4                RtccOpen
 .text.SpiChnClose
                0x9d06c190       0xbc E:/Olimex/Compilers/Microchip/MPLAB C32 1_11B/bin/../lib/gcc/pic32mx/3.4.4/../../../../pic32mx/lib/speed\libmchp_peripheral_32MX795F512H.a(spi_chn_close_lib.o)
                0x9d06c190                SpiChnClose
 .text.SpiChnGetC
                0x9d06c24c       0x50 E:/Olimex/Compilers/Microchip/MPLAB C32 1_11B/bin/../lib/gcc/pic32mx/3.4.4/../../../../pic32mx/lib/speed\libmchp_peripheral_32MX795F512H.a(spi_chn_getc_lib.o)
                0x9d06c24c                SpiChnGetC
 .text.SpiChnOpen
                0x9d06c29c      0x144 E:/Olimex/Compilers/Microchip/MPLAB C32 1_11B/bin/../lib/gcc/pic32mx/3.4.4/../../../../pic32mx/lib/speed\libmchp_peripheral_32MX795F512H.a(spi_chn_open_lib.o)
                0x9d06c29c                SpiChnOpen
 .text.SpiChnPutC
                0x9d06c3e0       0x50 E:/Olimex/Compilers/Microchip/MPLAB C32 1_11B/bin/../lib/gcc/pic32mx/3.4.4/../../../../pic32mx/lib/speed\libmchp_peripheral_32MX795F512H.a(spi_chn_putc_lib.o)
                0x9d06c3e0                SpiChnPutC
 .text.PowerSaveSleep
                0x9d06c430       0xd0 E:/Olimex/Compilers/Microchip/MPLAB C32 1_11B/bin/../lib/gcc/pic32mx/3.4.4/../../../../pic32mx/lib/speed\libmchp_peripheral_32MX795F512H.a(power_sleep_lib.o)
                0x9d06c430                PowerSaveSleep
 .text.NVMErasePage
                0x9d06c500       0x34 E:/Olimex/Compilers/Microchip/MPLAB C32 1_11B/bin/../lib/gcc/pic32mx/3.4.4/../../../../pic32mx/lib/speed\libmchp_peripheral_32MX795F512H.a(nvm_erase_page_lib.o)
                0x9d06c500                NVMErasePage
 .text._NVMOperation
                0x9d06c534       0xf0 E:/Olimex/Compilers/Microchip/MPLAB C32 1_11B/bin/../lib/gcc/pic32mx/3.4.4/../../../../pic32mx/lib/speed\libmchp_peripheral_32MX795F512H.a(nvm_operation_lib.o)
                0x9d06c534                _NVMOperation
 .text.NVMWriteRow
                0x9d06c624       0x40 E:/Olimex/Compilers/Microchip/MPLAB C32 1_11B/bin/../lib/gcc/pic32mx/3.4.4/../../../../pic32mx/lib/speed\libmchp_peripheral_32MX795F512H.a(nvm_write_row_lib.o)
                0x9d06c624                NVMWriteRow
 .text.NVMWriteWord
                0x9d06c664       0x3c E:/Olimex/Compilers/Microchip/MPLAB C32 1_11B/bin/../lib/gcc/pic32mx/3.4.4/../../../../pic32mx/lib/speed\libmchp_peripheral_32MX795F512H.a(nvm_write_word_lib.o)
                0x9d06c664                NVMWriteWord
 .text.DmaChnOpen
                0x9d06c6a0       0xf4 E:/Olimex/Compilers/Microchip/MPLAB C32 1_11B/bin/../lib/gcc/pic32mx/3.4.4/../../../../pic32mx/lib/speed\libmchp_peripheral_32MX795F512H.a(dma_chn_open_lib.o)
                0x9d06c6a0                DmaChnOpen
 .text.DmaChnEnable
                0x9d06c794       0x28 E:/Olimex/Compilers/Microchip/MPLAB C32 1_11B/bin/../lib/gcc/pic32mx/3.4.4/../../../../pic32mx/lib/speed\libmchp_peripheral_32MX795F512H.a(dma_chn_enable_lib.o)
                0x9d06c794                DmaChnEnable
 .text.DmaChnSetControlFlags
                0x9d06c7bc       0x24 E:/Olimex/Compilers/Microchip/MPLAB C32 1_11B/bin/../lib/gcc/pic32mx/3.4.4/../../../../pic32mx/lib/speed\libmchp_peripheral_32MX795F512H.a(dma_chn_set_control_flags_lib.o)
                0x9d06c7bc                DmaChnSetControlFlags
 .text.DmaChnWriteEventControlFlags
                0x9d06c7e0       0x30 E:/Olimex/Compilers/Microchip/MPLAB C32 1_11B/bin/../lib/gcc/pic32mx/3.4.4/../../../../pic32mx/lib/speed\libmchp_peripheral_32MX795F512H.a(dma_chn_write_event_control_flags_lib.o)
                0x9d06c7e0                DmaChnWriteEventControlFlags
 .text.DmaChnSetTxfer
                0x9d06c810       0x70 E:/Olimex/Compilers/Microchip/MPLAB C32 1_11B/bin/../lib/gcc/pic32mx/3.4.4/../../../../pic32mx/lib/speed\libmchp_peripheral_32MX795F512H.a(dma_chn_set_txfer_lib.o)
                0x9d06c810                DmaChnSetTxfer
 .text.PORTResetPins
                0x9d06c880       0x2c E:/Olimex/Compilers/Microchip/MPLAB C32 1_11B/bin/../lib/gcc/pic32mx/3.4.4/../../../../pic32mx/lib/speed\libmchp_peripheral_32MX795F512H.a(port_reset_pins_lib.o)
                0x9d06c880                PORTResetPins
 .text.PORTSetPinsDigitalIn
                0x9d06c8ac       0x40 E:/Olimex/Compilers/Microchip/MPLAB C32 1_11B/bin/../lib/gcc/pic32mx/3.4.4/../../../../pic32mx/lib/speed\libmchp_peripheral_32MX795F512H.a(port_set_pins_digital_in_lib.o)
                0x9d06c8ac                PORTSetPinsDigitalIn
 .text.PORTSetPinsDigitalOut
                0x9d06c8ec       0x40 E:/Olimex/Compilers/Microchip/MPLAB C32 1_11B/bin/../lib/gcc/pic32mx/3.4.4/../../../../pic32mx/lib/speed\libmchp_peripheral_32MX795F512H.a(port_set_pins_digital_out_lib.o)
                0x9d06c8ec                PORTSetPinsDigitalOut
 .text.UARTEnable
                0x9d06c92c       0x70 E:/Olimex/Compilers/Microchip/MPLAB C32 1_11B/bin/../lib/gcc/pic32mx/3.4.4/../../../../pic32mx/lib/speed\libmchp_peripheral_32MX795F512H.a(uart_lib.o)
                0x9d06c92c                UARTEnable
 .text.UARTConfigure
                0x9d06c99c       0x3c E:/Olimex/Compilers/Microchip/MPLAB C32 1_11B/bin/../lib/gcc/pic32mx/3.4.4/../../../../pic32mx/lib/speed\libmchp_peripheral_32MX795F512H.a(uart_lib.o)
                0x9d06c99c                UARTConfigure
 .text.UARTSetDataRate
                0x9d06c9d8       0x5c E:/Olimex/Compilers/Microchip/MPLAB C32 1_11B/bin/../lib/gcc/pic32mx/3.4.4/../../../../pic32mx/lib/speed\libmchp_peripheral_32MX795F512H.a(uart_lib.o)
                0x9d06c9d8                UARTSetDataRate
 .text.UARTSetLineControl
                0x9d06ca34       0x28 E:/Olimex/Compilers/Microchip/MPLAB C32 1_11B/bin/../lib/gcc/pic32mx/3.4.4/../../../../pic32mx/lib/speed\libmchp_peripheral_32MX795F512H.a(uart_lib.o)
                0x9d06ca34                UARTSetLineControl
 .text.I2CByteWasAcknowledged
                0x9d06ca5c       0x24 E:/Olimex/Compilers/Microchip/MPLAB C32 1_11B/bin/../lib/gcc/pic32mx/3.4.4/../../../../pic32mx/lib/speed\libmchp_peripheral_32MX795F512H.a(I2CByteWasAcknowledged.o)
                0x9d06ca5c                I2CByteWasAcknowledged
 .text.I2CConfigure
                0x9d06ca80       0x20 E:/Olimex/Compilers/Microchip/MPLAB C32 1_11B/bin/../lib/gcc/pic32mx/3.4.4/../../../../pic32mx/lib/speed\libmchp_peripheral_32MX795F512H.a(I2CConfigure.o)
                0x9d06ca80                I2CConfigure
 .text.I2CEnable
                0x9d06caa0       0x28 E:/Olimex/Compilers/Microchip/MPLAB C32 1_11B/bin/../lib/gcc/pic32mx/3.4.4/../../../../pic32mx/lib/speed\libmchp_peripheral_32MX795F512H.a(I2CEnable.o)
                0x9d06caa0                I2CEnable
 .text.I2CGetByte
                0x9d06cac8       0x20 E:/Olimex/Compilers/Microchip/MPLAB C32 1_11B/bin/../lib/gcc/pic32mx/3.4.4/../../../../pic32mx/lib/speed\libmchp_peripheral_32MX795F512H.a(I2CGetByte.o)
                0x9d06cac8                I2CGetByte
 .text.I2CReceivedDataIsAvailable
                0x9d06cae8       0x20 E:/Olimex/Compilers/Microchip/MPLAB C32 1_11B/bin/../lib/gcc/pic32mx/3.4.4/../../../../pic32mx/lib/speed\libmchp_peripheral_32MX795F512H.a(I2CReceivedDataIsAvailable.o)
                0x9d06cae8                I2CReceivedDataIsAvailable
 .text.I2CReceiverEnable
                0x9d06cb08       0x34 E:/Olimex/Compilers/Microchip/MPLAB C32 1_11B/bin/../lib/gcc/pic32mx/3.4.4/../../../../pic32mx/lib/speed\libmchp_peripheral_32MX795F512H.a(I2CReceiverEnable.o)
                0x9d06cb08                I2CReceiverEnable
 .text.I2CRepeatStart
                0x9d06cb3c       0x2c E:/Olimex/Compilers/Microchip/MPLAB C32 1_11B/bin/../lib/gcc/pic32mx/3.4.4/../../../../pic32mx/lib/speed\libmchp_peripheral_32MX795F512H.a(I2CRepeatStart.o)
                0x9d06cb3c                I2CRepeatStart
 .text.I2CSendByte
                0x9d06cb68       0x30 E:/Olimex/Compilers/Microchip/MPLAB C32 1_11B/bin/../lib/gcc/pic32mx/3.4.4/../../../../pic32mx/lib/speed\libmchp_peripheral_32MX795F512H.a(I2CSendByte.o)
                0x9d06cb68                I2CSendByte
 .text.I2CSetFrequency
                0x9d06cb98       0x4c E:/Olimex/Compilers/Microchip/MPLAB C32 1_11B/bin/../lib/gcc/pic32mx/3.4.4/../../../../pic32mx/lib/speed\libmchp_peripheral_32MX795F512H.a(I2CSetFrequency.o)
                0x9d06cb98                I2CSetFrequency
 .text.I2CStart
                0x9d06cbe4       0x2c E:/Olimex/Compilers/Microchip/MPLAB C32 1_11B/bin/../lib/gcc/pic32mx/3.4.4/../../../../pic32mx/lib/speed\libmchp_peripheral_32MX795F512H.a(I2CStart.o)
                0x9d06cbe4                I2CStart
 .text.I2CStop  0x9d06cc10       0x24 E:/Olimex/Compilers/Microchip/MPLAB C32 1_11B/bin/../lib/gcc/pic32mx/3.4.4/../../../../pic32mx/lib/speed\libmchp_peripheral_32MX795F512H.a(I2CStop.o)
                0x9d06cc10                I2CStop
 .text._RtccSetAlrmTimeAndDate
                0x9d06cc34       0x54 E:/Olimex/Compilers/Microchip/MPLAB C32 1_11B/bin/../lib/gcc/pic32mx/3.4.4/../../../../pic32mx/lib/speed\libmchp_peripheral_32MX795F512H.a(_rtcc_set_alrm_time_and_date_lib.o)
                0x9d06cc34                _RtccSetAlrmTimeAndDate
 .text._RtccSetTimeAndDate
                0x9d06cc88      0x214 E:/Olimex/Compilers/Microchip/MPLAB C32 1_11B/bin/../lib/gcc/pic32mx/3.4.4/../../../../pic32mx/lib/speed\libmchp_peripheral_32MX795F512H.a(_rtcc_set_time_and_date_lib.o)
                0x9d06cc88                _RtccSetTimeAndDate
 .text._RtccWriteInAlarmWindow
                0x9d06ce9c       0xe0 E:/Olimex/Compilers/Microchip/MPLAB C32 1_11B/bin/../lib/gcc/pic32mx/3.4.4/../../../../pic32mx/lib/speed\libmchp_peripheral_32MX795F512H.a(_rtcc_write_in_alarm_window_lib.o)
                0x9d06ce9c                _RtccWriteInAlarmWindow
 .text._RtccWaitClockOff
                0x9d06cf7c       0xfc E:/Olimex/Compilers/Microchip/MPLAB C32 1_11B/bin/../lib/gcc/pic32mx/3.4.4/../../../../pic32mx/lib/speed\libmchp_peripheral_32MX795F512H.a(_rtcc_wait_clock_off_lib.o)
                0x9d06cf7c                _RtccWaitClockOff
 .text.isinf    0x9d06d078       0x28 E:/Olimex/Compilers/Microchip/MPLAB C32 1_11B/bin/../lib/gcc/pic32mx/3.4.4/../../../../pic32mx/lib/speed\libc.a(isinf.o)
                0x9d06d078                isinf
 .text          0x9d06d0a0      0x47c E:/Olimex/Compilers/Microchip/MPLAB C32 1_11B/bin/../lib/gcc/pic32mx/3.4.4/speed\libgcc.a(_udivdi3.o)
                0x9d06d0a0                __udivdi3
 .text          0x9d06d51c      0x48c E:/Olimex/Compilers/Microchip/MPLAB C32 1_11B/bin/../lib/gcc/pic32mx/3.4.4/speed\libgcc.a(_umoddi3.o)
                0x9d06d51c                __umoddi3
 *(.text.*personality*)
 *(.gnu.warning)
 *(.mips16.fn.*)
 *(.mips16.call.*)
                0x9d06d9a8                _text_end = .

.rodata         0x9d06d9a8     0x739c
 *(.rodata .rodata.* .gnu.linkonce.r.*)
 .rodata.str1.4
                0x9d06d9a8      0x69c build/OLIMEX/production/_ext/2012694729/Commands.o
                                0x6c4 (size before relaxing)
 .rodata.cst4   0x9d06e044       0x10 build/OLIMEX/production/_ext/2012694729/Commands.o
 .rodata        0x9d06e054        0x4 build/OLIMEX/production/_ext/2012694729/Commands.o
 .rodata        0x9d06e058      0xc9c build/OLIMEX/production/_ext/2012694729/Custom.o
 .rodata.str1.4
                0x9d06ecf4      0x354 build/OLIMEX/production/_ext/2012694729/Custom.o
                                0x36c (size before relaxing)
 .rodata.cst4   0x9d06f048        0x8 build/OLIMEX/production/_ext/2012694729/Custom.o
                                  0xc (size before relaxing)
 .rodata.cst8   0x9d06f050       0x18 build/OLIMEX/production/_ext/2012694729/External.o
 .rodata        0x9d06f068      0x490 build/OLIMEX/production/_ext/2012694729/External.o
 .rodata.str1.4
                0x9d06f4f8       0xb0 build/OLIMEX/production/_ext/2012694729/External.o
                                0x108 (size before relaxing)
 .rodata.cst4   0x9d06f5a8        0x4 build/OLIMEX/production/_ext/2012694729/External.o
 .rodata.str1.4
                0x9d06f5ac      0x3ea build/OLIMEX/production/_ext/2012694729/Files.o
                                0x488 (size before relaxing)
 *fill*         0x9d06f996        0x2 00
 .rodata        0x9d06f998       0x9c build/OLIMEX/production/_ext/2012694729/Files.o
                0x9d06f998                ErrorMap
 .rodata.cst4   0x9d06fa34        0x4 build/OLIMEX/production/_ext/2012694729/Files.o
 .rodata.cst4   0x9d06fa38        0xc build/OLIMEX/production/_ext/2012694729/Functions.o
                                 0x1c (size before relaxing)
 .rodata.str1.4
                0x9d06fa44       0xc5 build/OLIMEX/production/_ext/2012694729/Functions.o
                                0x118 (size before relaxing)
 *fill*         0x9d06fb09        0x3 00
 .rodata        0x9d06fb0c       0xbc build/OLIMEX/production/_ext/2012694729/Functions.o
 .rodata.cst8   0x9d06fbc8        0x8 build/OLIMEX/production/_ext/2012694729/Functions.o
 .rodata.str1.4
                0x9d06fbd0       0x25 build/OLIMEX/production/_ext/2012694729/Graphics.o
                                 0x74 (size before relaxing)
 *fill*         0x9d06fbf5        0x3 00
 .rodata.cst8   0x9d06fbf8       0x10 build/OLIMEX/production/_ext/2012694729/Graphics.o
 .rodata.str1.4
                0x9d06fc08       0x7d build/OLIMEX/production/_ext/2012694729/Help.o
                                 0x90 (size before relaxing)
 *fill*         0x9d06fc85        0x3 00
 .rodata.str1.4
                0x9d06fc88      0x3ba build/OLIMEX/production/_ext/2012694729/I2C.o
                                0x4d0 (size before relaxing)
 .rodata.cst4   0x00000000        0xc build/OLIMEX/production/_ext/2012694729/I2C.o
 *fill*         0x9d070042        0x2 00
 .rodata        0x9d070044       0x24 build/OLIMEX/production/_ext/2012694729/I2C.o
 .rodata.str1.4
                0x9d070068      0x8b1 build/OLIMEX/production/_ext/2012694729/MMBasic.o
                                0x9c4 (size before relaxing)
 *fill*         0x9d070919        0x3 00
 .rodata        0x9d07091c      0x104 build/OLIMEX/production/_ext/2012694729/MMBasic.o
 .rodata.cst4   0x9d070a20       0x18 build/OLIMEX/production/_ext/2012694729/MMBasic.o
 .rodata.cst8   0x9d070a38       0x18 build/OLIMEX/production/_ext/2012694729/MMBasic.o
                                 0x48 (size before relaxing)
 .rodata.str1.4
                0x9d070a50      0x3aa build/OLIMEX/production/_ext/2012694729/Misc.o
                                0x428 (size before relaxing)
 *fill*         0x9d070dfa        0x2 00
 .rodata.cst4   0x9d070dfc        0x4 build/OLIMEX/production/_ext/2012694729/Misc.o
 .rodata.str1.4
                0x9d070e00       0x40 build/OLIMEX/production/_ext/2012694729/Operators.o
 .rodata.cst4   0x00000000       0x18 build/OLIMEX/production/_ext/2012694729/Operators.o
 .rodata.str1.4
                0x9d070e40       0x69 build/OLIMEX/production/_ext/2012694729/XModem.o
                                 0x9c (size before relaxing)
 *fill*         0x9d070ea9        0x3 00
 .rodata        0x9d070eac        0x4 build/OLIMEX/production/_ext/2012694729/XModem.o
 .rodata.str1.4
                0x9d070eb0      0x18a build/OLIMEX/production/_ext/2012694729/Editor.o
                                0x1a8 (size before relaxing)
 *fill*         0x9d07103a        0x2 00
 .rodata        0x9d07103c      0x470 build/OLIMEX/production/_ext/2012694729/Editor.o
                0x9d07103c                help_fse
 .rodata        0x9d0714ac       0xdc build/OLIMEX/production/_ext/779736424/FSIO.o
 .rodata.str1.4
                0x9d071588        0x3 build/OLIMEX/production/_ext/779736424/FSIO.o
                                  0x4 (size before relaxing)
 *fill*         0x9d07158b        0x1 00
 .rodata        0x9d07158c       0xf0 build/OLIMEX/production/_ext/779736424/SD-SPI.o
                0x9d07158c                sdmmc_cmdtable
 .rodata        0x9d07167c       0xd8 build/OLIMEX/production/_ext/940238529/usb_descriptors.o
                0x9d07167c                USB_SD_Ptr
                0x9d071688                USB_CD_Ptr
                0x9d07168c                sd002
                0x9d0716c8                sd001
                0x9d0716d8                sd000
                0x9d0716dc                configDescriptor1
                0x9d071740                device_dsc
 .rodata        0x9d071754       0x30 build/OLIMEX/production/_ext/678306549/usb_device.o
 .rodata        0x9d071784       0x8c build/OLIMEX/production/_ext/488640762/usb_function_cdc.o
 .rodata        0x9d071810       0x28 build/OLIMEX/production/_ext/718657706/usb_function_msd.o
 .rodata        0x9d071838     0x1d6c build/OLIMEX/production/_ext/1624479370/DrawChar.o
                0x9d071838                fontTwo
                0x9d071dd8                fontOne
                0x9d073124                fontZero
 .rodata.str1.4
                0x9d0735a4       0x14 build/OLIMEX/production/_ext/1624479370/DrawChar.o
 .rodata.str1.4
                0x9d0735b8       0x3b build/OLIMEX/production/_ext/2129892895/GameDuino.o
                                 0x54 (size before relaxing)
 .rodata.cst4   0x00000000        0x8 build/OLIMEX/production/_ext/2129892895/GameDuino.o
 *fill*         0x9d0735f3        0x1 00
 .rodata        0x9d0735f4      0x138 build/OLIMEX/production/_ext/179026188/Keyboard.o
                0x9d0735f4                keyE0Codes
                0x9d07362c                keySCodes
                0x9d0736ac                keyCodes
 .rodata        0x9d07372c       0x24 build/OLIMEX/production/_ext/1728301206/Main.o
                0x9d07372c                inq_resp
 .rodata.str1.4
                0x9d073750       0xf4 build/OLIMEX/production/_ext/1728301206/Main.o
                                 0xf8 (size before relaxing)
 .rodata.str1.4
                0x9d073844       0xf5 build/OLIMEX/production/_ext/2129892895/RTC.o
                                 0xf8 (size before relaxing)
 *fill*         0x9d073939        0x3 00
 .rodata        0x9d07393c       0x98 build/OLIMEX/production/_ext/1728301206/Setup.o
                0x9d07393c                BaudRateList
 .rodata.str1.4
                0x9d0739d4      0x45e build/OLIMEX/production/_ext/1728301206/Setup.o
                                0x468 (size before relaxing)
 *fill*         0x9d073e32        0x2 00
 .rodata        0x9d073e34       0x70 build/OLIMEX/production/_ext/1728301206/Term.o
                0x9d073e34                TBaudRateList
 .rodata.str1.4
                0x9d073ea4      0x105 build/OLIMEX/production/_ext/1728301206/Term.o
                                0x10c (size before relaxing)
 *fill*         0x9d073fa9        0x3 00
 .rodata.str1.4
                0x9d073fac      0x12e build/OLIMEX/production/_ext/1091586137/serial.o
                                0x134 (size before relaxing)
 *fill*         0x9d0740da        0x2 00
 .rodata        0x9d0740dc      0x104 E:/Olimex/Compilers/Microchip/MPLAB C32 1_11B/bin/../lib/gcc/pic32mx/3.4.4/../../../../pic32mx/lib/speed\libc.a(ctype.o)
                0x9d0740dc                _ctype
 .rodata        0x9d0741e0      0x1a0 E:/Olimex/Compilers/Microchip/MPLAB C32 1_11B/bin/../lib/gcc/pic32mx/3.4.4/../../../../pic32mx/lib/speed\libc.a(_doprnt.o)
 .rodata.cst8   0x9d074380       0x20 E:/Olimex/Compilers/Microchip/MPLAB C32 1_11B/bin/../lib/gcc/pic32mx/3.4.4/../../../../pic32mx/lib/speed\libc.a(_doprnt.o)
                                 0x30 (size before relaxing)
 .rodata.str1.4
                0x9d0743a0       0x1c E:/Olimex/Compilers/Microchip/MPLAB C32 1_11B/bin/../lib/gcc/pic32mx/3.4.4/../../../../pic32mx/lib/speed\libc.a(_doprnt.o)
 .rodata        0x9d0743bc       0x14 E:/Olimex/Compilers/Microchip/MPLAB C32 1_11B/bin/../lib/gcc/pic32mx/3.4.4/../../../../pic32mx/lib/speed\libc.a(_iobstring.o)
                0x9d0743bc                _io_strfuncs
 .rodata.cst8   0x9d0743d0        0x8 E:/Olimex/Compilers/Microchip/MPLAB C32 1_11B/bin/../lib/gcc/pic32mx/3.4.4/../../../../pic32mx/lib/speed\libm.a(w_pow.o)
 .rodata        0x9d0743d8       0x48 E:/Olimex/Compilers/Microchip/MPLAB C32 1_11B/bin/../lib/gcc/pic32mx/3.4.4/../../../../pic32mx/lib/speed\libe.a(_strtod.o)
 .rodata.cst8   0x9d074420        0x8 E:/Olimex/Compilers/Microchip/MPLAB C32 1_11B/bin/../lib/gcc/pic32mx/3.4.4/../../../../pic32mx/lib/speed\libe.a(_strtod.o)
                                 0x18 (size before relaxing)
 .rodata.cst8   0x9d074428       0x18 E:/Olimex/Compilers/Microchip/MPLAB C32 1_11B/bin/../lib/gcc/pic32mx/3.4.4/../../../../pic32mx/lib/speed\libe.a(_ldexp.o)
 .rodata        0x9d074440      0x7d4 E:/Olimex/Compilers/Microchip/MPLAB C32 1_11B/bin/../lib/gcc/pic32mx/3.4.4/../../../../pic32mx/lib/speed\libmchp_peripheral_32MX795F512H.a(int_tbl_lib.o)
                0x9d074440                __IntVectorTbl
                0x9d0746f8                __IntSrcTbl
 .rodata        0x9d074c14       0xa0 E:/Olimex/Compilers/Microchip/MPLAB C32 1_11B/bin/../lib/gcc/pic32mx/3.4.4/../../../../pic32mx/lib/speed\libmchp_peripheral_32MX795F512H.a(spi_io_tbl_libp.o)
                0x9d074c14                _SpiIoTbl
 .rodata        0x9d074cb4       0x14 E:/Olimex/Compilers/Microchip/MPLAB C32 1_11B/bin/../lib/gcc/pic32mx/3.4.4/../../../../pic32mx/lib/speed\libmchp_peripheral_32MX795F512H.a(spi_map_tbl_libp.o)
                0x9d074cb4                _SpiMapTbl
 .rodata        0x9d074cc8        0x4 E:/Olimex/Compilers/Microchip/MPLAB C32 1_11B/bin/../lib/gcc/pic32mx/3.4.4/../../../../pic32mx/lib/speed\libmchp_peripheral_32MX795F512H.a(dma_reg_map_tbl_lib.o)
                0x9d074cc8                _DmaMapTbl
 .rodata        0x9d074ccc       0x54 E:/Olimex/Compilers/Microchip/MPLAB C32 1_11B/bin/../lib/gcc/pic32mx/3.4.4/../../../../pic32mx/lib/speed\libmchp_peripheral_32MX795F512H.a(_ports_tbl_libp.o)
                0x9d074ccc                PortRegTbl
 .rodata        0x9d074d20       0x18 E:/Olimex/Compilers/Microchip/MPLAB C32 1_11B/bin/../lib/gcc/pic32mx/3.4.4/../../../../pic32mx/lib/speed\libmchp_peripheral_32MX795F512H.a(uart_lib.o)
                0x9d074d20                uartReg
 .rodata        0x9d074d38        0xc E:/Olimex/Compilers/Microchip/MPLAB C32 1_11B/bin/../lib/gcc/pic32mx/3.4.4/../../../../pic32mx/lib/speed\libmchp_peripheral_32MX795F512H.a(I2CPrivate.o)
                0x9d074d38                i2cBase
 *(.rodata1)
                0x9d074d44                . = ALIGN (0x4)

.sdata2         0x9d074d44        0x0
 *(.sdata2 .sdata2.* .gnu.linkonce.s2.*)
                0x9d074d44                . = ALIGN (0x4)

.sbss2          0x9d074d44        0x0
 *(.sbss2 .sbss2.* .gnu.linkonce.sb2.*)
                0x9d074d44                . = ALIGN (0x4)

.eh_frame_hdr
 *(.eh_frame_hdr)

.eh_frame       0x9d074d44       0x40
 *(.eh_frame)
 .eh_frame      0x9d074d44       0x20 E:/Olimex/Compilers/Microchip/MPLAB C32 1_11B/bin/../lib/gcc/pic32mx/3.4.4/speed\libgcc.a(_udivdi3.o)
 .eh_frame      0x9d074d64       0x20 E:/Olimex/Compilers/Microchip/MPLAB C32 1_11B/bin/../lib/gcc/pic32mx/3.4.4/speed\libgcc.a(_umoddi3.o)

.dbg_data       0xa0000000        0x0
                0xa0000000                . = (. + DEFINED (_DEBUGGER)?0x200:0x0)

.persist        0xa0000000        0x0
                0xa0000000                _persist_begin = .
 *(.persist .persist.*)
                0xa0000000                _persist_end = .

.data           0xa0000000     0x12f4 load address 0x9d074d84
                0xa0000000                _data_begin = .
 *(.data .data.* .gnu.linkonce.d.*)
 .data          0xa0000000       0x44 build/OLIMEX/production/_ext/2012694729/Files.o
                0xa0000000                FErrorMsg
 .data          0xa0000044      0xa30 build/OLIMEX/production/_ext/2012694729/MMBasic.o
                0xa0000044                PromptString
                0xa0000078                tokentbl
                0xa000051c                commandtbl
 .data          0xa0000a74       0x10 build/OLIMEX/production/_ext/1624479370/Video.o
                0xa0000a74                VS
 .data          0xa0000a84       0x1c build/OLIMEX/production/_ext/1728301206/Main.o
                0xa0000a84                LUN
 .data          0xa0000aa0       0x7c build/OLIMEX/production/_ext/2129892895/RTC.o
                0xa0000aa0                Months
                0xa0000ad0                DayOfWeek
 .data          0xa0000b1c      0x410 E:/Olimex/Compilers/Microchip/MPLAB C32 1_11B/bin/../lib/gcc/pic32mx/3.4.4/../../../../pic32mx/lib/speed\libc.a(malloc.o)
                0xa0000b1c                malloc_sbrk_base
                0xa0000b20                malloc_trim_threshold
                0xa0000b24                malloc_av_
 .data          0xa0000f2c       0x30 E:/Olimex/Compilers/Microchip/MPLAB C32 1_11B/bin/../lib/gcc/pic32mx/3.4.4/../../../../pic32mx/lib/speed\libc.a(rand.o)
 .data          0xa0000f5c       0x20 E:/Olimex/Compilers/Microchip/MPLAB C32 1_11B/bin/../lib/gcc/pic32mx/3.4.4/../../../../pic32mx/lib/speed\libc.a(sbrk.o)
 .data          0xa0000f7c      0x100 E:/Olimex/Compilers/Microchip/MPLAB C32 1_11B/bin/../lib/gcc/pic32mx/3.4.4/../../../../pic32mx/lib/speed\libm.a(fparc32.o)
 .data          0xa000107c       0x18 E:/Olimex/Compilers/Microchip/MPLAB C32 1_11B/bin/../lib/gcc/pic32mx/3.4.4/../../../../pic32mx/lib/speed\libm.a(fptan32.o)
 .data          0xa0001094       0x24 E:/Olimex/Compilers/Microchip/MPLAB C32 1_11B/bin/../lib/gcc/pic32mx/3.4.4/../../../../pic32mx/lib/speed\libm.a(sincof32.o)
                0xa0001094                _sincof
                0xa00010a4                _coscof
 .data.math_errhandling_flag
                0xa00010b8        0x4 E:/Olimex/Compilers/Microchip/MPLAB C32 1_11B/bin/../lib/gcc/pic32mx/3.4.4/../../../../pic32mx/lib/speed\libm.a(s_lib_ver.o)
                0xa00010b8                math_errhandling
 .data          0xa00010bc       0xe8 E:/Olimex/Compilers/Microchip/MPLAB C32 1_11B/bin/../lib/gcc/pic32mx/3.4.4/../../../../pic32mx/lib/speed\libm.a(log32.o)
 .data          0xa00011a4       0x8c E:/Olimex/Compilers/Microchip/MPLAB C32 1_11B/bin/../lib/gcc/pic32mx/3.4.4/../../../../pic32mx/lib/speed\libm.a(fplog32.o)
 .data          0xa0001230       0x1c E:/Olimex/Compilers/Microchip/MPLAB C32 1_11B/bin/../lib/gcc/pic32mx/3.4.4/../../../../pic32mx/lib/speed\libm.a(fpexp32.o)
 .data          0xa000124c       0xa0 E:/Olimex/Compilers/Microchip/MPLAB C32 1_11B/bin/../lib/gcc/pic32mx/3.4.4/../../../../pic32mx/lib/speed\libm.a(exp32.o)
 .data          0xa00012ec        0x8 E:/Olimex/Compilers/Microchip/MPLAB C32 1_11B/bin/../lib/gcc/pic32mx/3.4.4/../../../../pic32mx/lib/speed\libmchp_peripheral_32MX795F512H.a(_rtcc_wait_clock_off_lib.o)
                0xa00012ec                _RtccWaitClkSteps
                0xa00012f0                _RtccWaitClkStepSz
 *(.gnu.linkonce.d.*personality*)
 *(.data1)
                0x9d074d84                _data_image_begin = LOADADDR (.data)

.eh_frame
 *(.eh_frame)
                0xa00012f4                . = .
                0xa00092f0                _gp = (ALIGN (0x10) + 0x7ff0)

.got
 *(.got.plt)
 *(.got)

.sdata          0xa00012f4       0x54 load address 0x9d076078
                0xa00012f4                _sdata_begin = .
 *(.sdata .sdata.* .gnu.linkonce.s.*)
 .sdata         0xa00012f4        0x8 build/OLIMEX/production/_ext/2012694729/Files.o
                0xa00012f4                OptionErrorAbort
                0xa00012f8                DefaultDrive
 .sdata         0xa00012fc        0x1 build/OLIMEX/production/_ext/2012694729/Help.o
                0xa00012fc                LineCount
 *fill*         0xa00012fd        0x3 00
 .sdata         0xa0001300        0x4 build/OLIMEX/production/_ext/2012694729/I2C.o
 .sdata         0xa0001304        0xc build/OLIMEX/production/_ext/2012694729/MMBasic.o
                0xa0001304                autoIncr
                0xa0001308                autoNext
 .sdata         0xa0001310        0xc build/OLIMEX/production/_ext/779736424/FSIO.o
                0xa0001310                cwdptr
                0xa0001314                gLastDataSectorRead
                0xa0001318                gLastFATSectorRead
 .sdata         0xa000131c        0x8 build/OLIMEX/production/_ext/1624479370/DrawChar.o
                0xa000131c                ScrollBottom
                0xa0001320                ScrollTop
 .sdata         0xa0001324       0x10 build/OLIMEX/production/_ext/1728301206/Main.o
 .sdata         0xa0001334        0x2 build/OLIMEX/production/_ext/1728301206/Term.o
                0xa0001334                ComPort
                0xa0001335                BaudRate
 *fill*         0xa0001336        0x2 00
 .sdata         0xa0001338       0x10 build/OLIMEX/production/_ext/1123757107/Timers.o
                0xa0001338                SDCardRemoved
                0xa000133c                year
                0xa0001340                month
                0xa0001344                day
                0xa0001348                _sdata_end = .

.lit8
 *(.lit8)

.lit4
 *(.lit4)
                0xa0001348                . = ALIGN (0x4)
                0xa0001348                _data_end = .
                0xa0001348                _bss_begin = .

.sbss           0xa0001348      0x4f0 load address 0x9d0760cc
                0xa0001348                _sbss_begin = .
 *(.dynsbss)
 *(.sbss .sbss.* .gnu.linkonce.sb.*)
 .sbss          0xa0001348        0x8 build/OLIMEX/production/_ext/2012694729/Commands.o
                0xa0001348                DimUsed
                0xa000134c                inside_then_else
 .sbss          0xa0001350       0x1c build/OLIMEX/production/_ext/2012694729/Custom.o
 .sbss          0xa000136c       0x18 build/OLIMEX/production/_ext/2012694729/Files.o
                0xa000136c                MSDEnable
                0xa0001370                MMerrno
                0xa0001374                FlashEOF
                0xa0001378                FlashStatus
 .sbss          0xa0001384        0x8 build/OLIMEX/production/_ext/2012694729/Graphics.o
 .sbss          0xa000138c        0x4 build/OLIMEX/production/_ext/2012694729/Help.o
                0xa000138c                FileNumber
 .sbss          0xa0001390       0x30 build/OLIMEX/production/_ext/2012694729/I2C.o
 .sbss          0xa00013c0        0x4 build/OLIMEX/production/_ext/2012694729/MMBasic.o
                0xa00013c0                LastErrorLine
 .sbss          0xa00013c4        0x8 build/OLIMEX/production/_ext/2012694729/Misc.o
 .sbss          0xa00013cc        0xc build/OLIMEX/production/_ext/779736424/FSIO.o
                0xa00013cc                recache
                0xa00013cd                gBufferZeroed
                0xa00013ce                nextClusterIsLast
                0xa00013cf                gNeedDataWrite
                0xa00013d0                gBufferOwner
                0xa00013d4                gNeedFATWrite
 .sbss          0xa00013d8       0x1c build/OLIMEX/production/_ext/779736424/SD-SPI.o
 .sbss          0xa00013f4        0x8 build/OLIMEX/production/_ext/718657706/usb_function_msd.o
 .sbss          0xa00013fc        0x4 build/OLIMEX/production/_ext/1624479370/DrawChar.o
                0xa00013fc                Cursor
 .sbss          0xa0001400       0x10 build/OLIMEX/production/_ext/1624479370/VT100.o
                0xa0001400                VT100ScrollArea
                0xa0001404                VT100HaveSemiColon
                0xa0001408                VT100Column
                0xa0001409                VT100Line
                0xa000140a                VT100BuffIndex
                0xa000140b                VT100State
                0xa000140c                VT100ClearEnd
                0xa000140d                VT100ClearStart
 .sbss          0xa0001410        0x4 build/OLIMEX/production/_ext/1624479370/Video.o
 .sbss          0xa0001414        0x7 build/OLIMEX/production/_ext/179026188/Keyboard.o
 *fill*         0xa000141b        0x1 00
 .sbss          0xa000141c       0x18 build/OLIMEX/production/_ext/1728301206/Main.o
                0xa000141c                SupressVideo
                0xa0001420                FileXfr
                0xa0001424                DisableMMAbort
                0xa0001428                MMAbort
 .sbss          0xa0001434        0x2 build/OLIMEX/production/_ext/2129892895/RTC.o
                0xa0001434                StartDow
                0xa0001435                StartAdd
 *fill*         0xa0001436        0x2 00
 .sbss          0xa0001438        0x4 build/OLIMEX/production/_ext/1728301206/Setup.o
                0xa0001438                SETUP
 .sbss          0xa000143c        0x3 build/OLIMEX/production/_ext/1728301206/Term.o
                0xa000143c                HexMode
                0xa000143d                Capture
                0xa000143e                PortOpen
 *fill*         0xa000143f        0x1 00
 .sbss          0xa0001440       0x34 build/OLIMEX/production/_ext/1123757107/Timers.o
                0xa0001440                SDLedState
                0xa0001444                SDActivityLED
                0xa0001448                dow
                0xa000144c                hour
                0xa0001450                minute
                0xa0001454                second
                0xa0001458                mSecTimer
                0xa000145c                InkeyTimer
                0xa0001460                CursorTimer
                0xa0001464                TickTimer
                0xa0001468                IntPauseTimer
                0xa000146c                PauseTimer
                0xa0001470                SecondsTimer
 .sbss          0xa0001474       0x2c build/OLIMEX/production/_ext/1091586137/serial.o
                0xa0001474                SerialConsole
                0xa0001478                com4
                0xa000147c                com3
                0xa0001480                com2
                0xa0001484                com1
 .sbss          0xa00014a0        0x4 E:/Olimex/Compilers/Microchip/MPLAB C32 1_11B/bin/../lib/gcc/pic32mx/3.4.4/../../../../pic32mx/lib/speed\libc.a(errno.o)
                0xa00014a0                errno
 *(.scommon)
 .scommon       0xa00014a4        0xc build/OLIMEX/production/_ext/2012694729/Commands.o
                0xa00014a4                doindex
                0xa00014a8                gosubindex
                0xa00014ac                forindex
 .scommon       0xa00014b0       0x20 build/OLIMEX/production/_ext/2012694729/External.o
                0xa00014b0                INT2Count
                0xa00014b4                INT3Count
                0xa00014b8                INT3Value
                0xa00014bc                INT1Value
                0xa00014c0                INT4Value
                0xa00014c4                INT1Count
                0xa00014c8                INT2Value
                0xa00014cc                INT4Count
 .scommon       0xa00014d0       0x18 build/OLIMEX/production/_ext/2012694729/Files.o
                0xa00014d0                RCnt
                0xa00014d4                WBuf
                0xa00014d8                RPtr
                0xa00014dc                WBufPtr
                0xa00014e0                bnbr
                0xa00014e4                WBufCnt
 .scommon       0xa00014e8        0x8 build/OLIMEX/production/_ext/2012694729/Help.o
                0xa00014e8                t
                0xa00014ec                p
 .scommon       0xa00014f0       0x18 build/OLIMEX/production/_ext/2012694729/I2C.o
                0xa00014f0                I2C_Timer
                0xa00014f4                I2C_Slave_Send_IntLine
                0xa00014f8                I2C_IntLine
                0xa00014fc                I2C_Status
                0xa0001500                I2C_State
                0xa0001504                I2C_Slave_Receive_IntLine
 .scommon       0xa0001508       0x68 build/OLIMEX/production/_ext/2012694729/MMBasic.o
                0xa0001508                HeapUsed
                0xa000150c                TokenTableSize
                0xa0001510                psize
                0xa0001514                farg1
                0xa0001518                VarIndex
                0xa000151c                fret
                0xa0001520                TraceOn
                0xa0001524                targ
                0xa0001528                sret
                0xa000152c                farg2
                0xa0001530                CommandTableSize
                0xa0001534                nextstmt
                0xa0001538                ContinuePoint
                0xa000153c                cmdline
                0xa0001540                pp
                0xa0001544                tokencnt
                0xa0001548                varcnt
                0xa000154c                OptionBase
                0xa0001550                ep
                0xa0001554                sarg2
                0xa0001558                StackLimit
                0xa000155c                NextData
                0xa0001560                cmdtoken
                0xa0001564                autoOn
                0xa0001568                sarg1
                0xa000156c                CurrentLineNbr
 .scommon       0xa0001570        0x4 build/OLIMEX/production/_ext/2012694729/Misc.o
                0xa0001570                InterruptReturn
 .scommon       0xa0001574       0x1e build/OLIMEX/production/_ext/2012694729/Editor.o
                0xa0001574                curloc
                0xa0001578                MAX_LINES
                0xa0001579                T
                0xa000157c                scrny
                0xa0001580                buf2
                0xa0001584                scrnx
                0xa0001588                endloc
                0xa000158c                buf
                0xa0001590                LINE_LEN
                0xa0001591                STATUS_LINE
 *fill*         0xa0001592        0x2 00
 .scommon       0xa0001594       0x28 build/OLIMEX/production/_ext/779736424/FSIO.o
                0xa0001594                TempClusterCalc
                0xa0001598                gTimeCrtTime
                0xa000159c                gFileSlotOpen
                0xa00015a2                gTimeAccDate
                0xa00015a4                gTimeCrtDate
                0xa00015a8                asciiFilename
                0xa00015ac                FSerrno
                0xa00015ae                fileNameLength
                0xa00015b0                dirCleared
                0xa00015b2                gTimeWrtTime
                0xa00015b4                FatRootDirClusterValue
                0xa00015b8                gTimeCrtMS
                0xa00015ba                gTimeWrtDate
 .scommon       0xa00015bc        0x8 build/OLIMEX/production/_ext/779736424/SD-SPI.o
                0xa00015bc                gMediaSectorSize
                0xa00015be                gSDMode
                0xa00015c0                MDD_SDSPI_finalLBA
 .scommon       0xa00015c4       0x5a build/OLIMEX/production/_ext/678306549/usb_device.o
                0xa00015c4                ep_data_in
                0xa00015c8                USBDeferStatusStagePacket
                0xa00015cc                USTATcopy
                0xa00015d0                CtrlTrfData
                0xa00015d8                RemoteWakeup
                0xa00015dc                controlTransferState
                0xa00015dd                USBStatusStageTimeoutCounter
                0xa00015e0                pDst
                0xa00015e4                USBDeferINDataStagePackets
                0xa00015e8                ep_data_out
                0xa00015ec                SetupPkt
                0xa00015f4                pBDTEntryEP0OutNext
                0xa00015f8                USBAlternateInterface
                0xa00015fc                USBStatusStageEnabledFlag2
                0xa0001600                BothEP0OutUOWNsSet
                0xa0001604                USBBusIsSuspended
                0xa0001608                USBDeferOUTDataStagePackets
                0xa000160c                USBActiveConfiguration
                0xa0001610                USBStatusStageEnabledFlag1
                0xa0001614                USBDeviceState
                0xa0001618                pBDTEntryEP0OutCurrent
                0xa000161c                shortPacketStatus
                0xa000161d                endpoint_number
 *fill*         0xa000161e        0x2 00
 .scommon       0xa0001620       0x3c build/OLIMEX/production/_ext/488640762/usb_function_cdc.o
                0xa0001620                control_signal_bitmap
                0xa0001624                cdc_tx_len
                0xa0001625                cdc_trf_state
                0xa0001628                cdc_notice
                0xa0001630                cdc_mem_type
                0xa0001634                CDCDataInHandle
                0xa0001638                pCDCSrc
                0xa000163c                cdc_rx_len
                0xa0001640                BaudRateGen
                0xa0001644                pCDCDst
                0xa0001648                line_coding
                0xa0001650                CDCDataOutHandle
                0xa0001654                dummy_encapsulated_cmd_response
 .scommon       0xa000165c       0x34 build/OLIMEX/production/_ext/718657706/usb_function_msd.o
                0xa000165c                gblMediaPresent
                0xa0001660                gblBLKLen
                0xa0001664                MSDHostNoData
                0xa0001668                gblNumBLKS
                0xa000166c                USBMSDOutHandle
                0xa0001670                ptrNextData
                0xa0001674                MSD_State
                0xa0001676                MSBBufferIndex
                0xa0001678                MSDCommandState
                0xa0001679                gblCBWLength
                0xa000167c                USBMSDInHandle
                0xa0001680                MSDReadState
                0xa0001681                MSDRetryAttempt
                0xa0001684                SoftDetach
                0xa0001688                MSDWriteState
                0xa000168c                MSDCBWValid
 .scommon       0xa0001690       0x38 build/OLIMEX/production/_ext/1624479370/DrawChar.o
                0xa0001690                fontBinary
                0xa0001694                fontStart
                0xa0001698                fontEnd
                0xa000169c                MMPosY
                0xa00016a0                fontReverse
                0xa00016a4                MMPosX
                0xa00016a8                fontPtr8
                0xa00016ac                fontHeight
                0xa00016b0                fontPtr32
                0xa00016b4                ListCnt
                0xa00016b8                fontWidth
                0xa00016bc                fontScale
                0xa00016c0                fontPtr16
                0xa00016c4                MMCharPos
 .scommon       0xa00016c8        0x4 build/OLIMEX/production/_ext/1624479370/VT100.o
                0xa00016c8                VT100Buff
 .scommon       0xa00016cc       0x14 build/OLIMEX/production/_ext/1624479370/Video.o
                0xa00016cc                vga
                0xa00016d0                VCount
                0xa00016d4                HRes
                0xa00016d8                VRes
                0xa00016dc                VState
 .scommon       0xa00016e0       0x10 build/OLIMEX/production/_ext/2129892895/GameDuino.o
                0xa00016e0                anim
                0xa00016e4                x
                0xa00016e8                Val
                0xa00016ec                y
 .scommon       0xa00016f0       0x14 build/OLIMEX/production/_ext/179026188/Keyboard.o
                0xa00016f0                PS2State
                0xa00016f4                KParity
                0xa00016f8                KCount
                0xa00016fc                KBDBuf
                0xa0001700                KState
 .scommon       0xa0001704       0x20 build/OLIMEX/production/_ext/1728301206/Main.o
                0xa0001704                InpQueueHead
                0xa0001708                InpQueueTail
                0xa000170c                USB_NbrCharsInTxBuf
                0xa0001710                USB_Current_TxBuf
                0xa0001714                USBOn
                0xa0001718                PrintSignonToUSB
                0xa0001719                MSDStatus
                0xa000171c                Autorun
                0xa0001720                VideoOn
 .scommon       0xa0001724       0x18 build/OLIMEX/production/_ext/2129892895/RTC.o
                0xa0001724                tm
                0xa0001728                SleepMMVal
                0xa000172c                I2CAdd
                0xa0001730                dt1
                0xa0001734                tm1
                0xa0001738                dt
 .scommon       0xa000173c        0x8 build/OLIMEX/production/_ext/1728301206/Setup.o
                0xa000173c                ScreenSaveTime
                0xa0001740                i
 .scommon       0xa0001744        0x8 build/OLIMEX/production/_ext/1728301206/Term.o
                0xa0001744                fname
                0xa0001748                c
 .scommon       0xa000174c        0x4 build/OLIMEX/production/_ext/1123757107/Timers.o
                0xa000174c                SoundPlay
 .scommon       0xa0001750       0xe4 build/OLIMEX/production/_ext/1091586137/serial.o
                0xa0001750                com3Rx_head
                0xa0001754                com4Tx_buf
                0xa0001758                com1_ilevel
                0xa000175c                com3_ilevel
                0xa0001760                com4_div
                0xa0001764                com3_div
                0xa0001768                com2Rx_head
                0xa000176c                com1_div
                0xa0001770                com3Rx_buf
                0xa0001774                com2Tx_start_cnt
                0xa0001778                com1Tx_buf
                0xa000177c                com4_ilevel
                0xa0001780                com4Rx_buf
                0xa0001784                com4Tx_start_cnt
                0xa0001788                com4_buf_size
                0xa000178c                com4Rx_start_cnt
                0xa0001790                com1_fc
                0xa0001794                com3Tx_start_cnt
                0xa0001798                com1Rx_cnt
                0xa000179c                com3Rx_cnt
                0xa00017a0                com1Rx_buf
                0xa00017a4                com4Tx_tail
                0xa00017a8                com2Rx_cnt
                0xa00017ac                com1Tx_cnt
                0xa00017b0                com3Tx_cnt
                0xa00017b4                com2_ilevel
                0xa00017b8                com4_interrupt
                0xa00017bc                com4Rx_tail
                0xa00017c0                com2Tx_cnt
                0xa00017c4                com3Rx_start_cnt
                0xa00017c8                com2Tx_tail
                0xa00017cc                com2Rx_tail
                0xa00017d0                com3Tx_buf
                0xa00017d4                com1Tx_tail
                0xa00017d8                com3_buf_size
                0xa00017dc                com3Tx_tail
                0xa00017e0                com2Tx_head
                0xa00017e4                com3Tx_head
                0xa00017e8                com4Tx_cnt
                0xa00017ec                com1Rx_head
                0xa00017f0                com2_interrupt
                0xa00017f4                com2Rx_start_cnt
                0xa00017f8                com2_buf_size
                0xa00017fc                com1_interrupt
                0xa0001800                com4Rx_head
                0xa0001804                com2Rx_buf
                0xa0001808                com2Tx_buf
                0xa000180c                com1Tx_head
                0xa0001810                com4Tx_head
                0xa0001814                com1_buf_size
                0xa0001818                com2_div
                0xa000181c                com3_interrupt
                0xa0001820                com1Rx_start_cnt
                0xa0001824                com1Rx_tail
                0xa0001828                com1Tx_start_cnt
                0xa000182c                com4Rx_cnt
                0xa0001830                com3Rx_tail
 .scommon       0xa0001834        0x4 E:/Olimex/Compilers/Microchip/MPLAB C32 1_11B/bin/../lib/gcc/pic32mx/3.4.4/../../../../pic32mx/lib/speed\libc.a(setjmp.o)
                0xa0001834                _nofpu
                0xa0001838                _sbss_end = .

.bss            0xa0001838    0x137a8 load address 0x9d0760cc
 *(.dynbss)
 *(.bss .bss.* .gnu.linkonce.b.*)
 .bss           0xa0001838      0x200 build/OLIMEX/production/_ext/2012694729/I2C.o
 .bss           0xa0001a38       0x28 build/OLIMEX/production/_ext/779736424/SD-SPI.o
 .bss           0xa0001a60        0xc build/OLIMEX/production/_ext/1624479370/Video.o
                0xa0001a60                zero
 .bss           0xa0001a6c       0x34 E:/Olimex/Compilers/Microchip/MPLAB C32 1_11B/bin/../lib/gcc/pic32mx/3.4.4/../../../../pic32mx/lib/speed\libc.a(malloc.o)
                0xa0001a6c                malloc_current_mallinfo
                0xa0001a94                malloc_max_total_mem
                0xa0001a98                malloc_max_sbrked_mem
                0xa0001a9c                malloc_top_pad
 .bss           0xa0001aa0       0x24 E:/Olimex/Compilers/Microchip/MPLAB C32 1_11B/bin/../lib/gcc/pic32mx/3.4.4/../../../../pic32mx/lib/speed\libc.a(sbrk.o)
                0xa0001aa0                _maxbrk
                0xa0001aa4                _minbrk
 *(COMMON)
 COMMON         0xa0001ac4      0x718 build/OLIMEX/production/_ext/2012694729/Commands.o
                0xa0001ac4                gosubstack
                0xa0001eac                LastFile
                0xa0001ebc                dostack
                0xa0001ffc                forstack
 COMMON         0xa00021dc       0xc0 build/OLIMEX/production/_ext/2012694729/External.o
                0xa00021dc                Average
                0xa00021f4                ExtCurrentConfig
                0xa0002258                S
 COMMON         0xa000229c       0x38 build/OLIMEX/production/_ext/2012694729/Files.o
                0xa000229c                MMFilePtr
                0xa00022c4                fnbuf
 COMMON         0xa00022d4       0x80 build/OLIMEX/production/_ext/2012694729/Help.o
                0xa00022d4                CurrentDir
                0xa0002314                HelpCommand
 *fill*         0xa0002354        0x4 00
 COMMON         0xa0002358     0xb3d8 build/OLIMEX/production/_ext/2012694729/MMBasic.o
                0xa0002358                tknbuf
                0xa0002458                pmemory
                0xa0009c58                FunKey
                0xa0009cf4                tokenvalue
                0xa0009d00                inpbuf
                0xa0009e00                strtmp
                0xa0009ec0                lastcmd
                0xa0009fc0                mark
                0xa000a080                vartbl
 COMMON         0xa000d730      0x138 build/OLIMEX/production/_ext/2012694729/Misc.o
                0xa000d730                inttbl
 COMMON         0xa000d868      0x27c build/OLIMEX/production/_ext/2012694729/Editor.o
                0xa000d868                killbuf
                0xa000d9a4                helpline
 COMMON         0xa000dae4      0x65e build/OLIMEX/production/_ext/779736424/FSIO.o
                0xa000dae4                tempCWDobj
                0xa000db20                gDiskData
                0xa000db48                gFATBuffer
                0xa000dd48                cwd
                0xa000dd84                gDataBuffer
                0xa000df84                gFileArray
                0xa000e0ec                gFileTemp
                0xa000e128                tempDirectoryString
                0xa000e138                defaultArray
 *fill*         0xa000e142       0xbe 00
 COMMON         0xa000e200      0x480 build/OLIMEX/production/_ext/678306549/usb_device.o
                0xa000e200                inPipes
                0xa000e210                msd_csw
                0xa000e220                outPipes
                0xa000e22c                msd_buffer
                0xa000e42c                pBDTEntryOut
                0xa000e43c                pBDTEntryIn
                0xa000e44c                msd_cbw
                0xa000e600                BDT
 COMMON         0xa000e680       0x80 build/OLIMEX/production/_ext/488640762/usb_function_cdc.o
                0xa000e680                cdc_data_tx
                0xa000e6c0                cdc_data_rx
 COMMON         0xa000e700       0x32 build/OLIMEX/production/_ext/718657706/usb_function_msd.o
                0xa000e700                gblCBW
                0xa000e720                gblSenseData
 *fill*         0xa000e732        0x2 00
 COMMON         0xa000e734       0x78 build/OLIMEX/production/_ext/1624479370/DrawChar.o
                0xa000e734                ftbl
 COMMON         0xa000e7ac     0x6550 build/OLIMEX/production/_ext/1624479370/Video.o
                0xa000e7ac                VA
                0xa0014cec                VC
 COMMON         0xa0014cfc      0x200 build/OLIMEX/production/_ext/1728301206/Main.o
                0xa0014cfc                USB_RxBuf
                0xa0014d7c                InpQueue
                0xa0014e7c                USB_TxBuf
 COMMON         0xa0014efc       0x94 build/OLIMEX/production/_ext/1728301206/Setup.o
                0xa0014efc                SS
                0xa0014f40                temp
 COMMON         0xa0014f90       0x50 build/OLIMEX/production/_ext/1728301206/Term.o
                0xa0014f90                Temp
                0xa0014fe0                . = ALIGN (0x4)
                0xa0014fe0                . = ALIGN (0x4)
                0xa0014fe0                _end = .
                0xa0014fe0                _bss_end = .

.grg            0xa0014fe0        0xc
 *(.grg)
 .grg           0xa0014fe0        0xc build/OLIMEX/production/_ext/1728301206/Main.o
                0xa0014fe0                _excep_dummy
                0xa0014fe4                _excep_code
                0xa0014fe8                _excep_addr

.heap           0xa0014ff0        0x0
                0xa0014ff0                _heap = .
                0xa001f400                . = (. + _min_heap_size)
                0xa001f400                . = ALIGN (0x8)

.stack          0xa0014ff0      0x400
                0xa0014ff0                _splim = .
                0xa0014ff0                _SPLIM = .
                0xa00167f0                . = (. + _min_stack_size)
 *fill*         0xa0014ff0      0x400 00
                0xa00153f0                . = ALIGN (0x8)

.ramfunc        0xa0015800        0x0 load address 0x9d0760cc
                0xa0015800                _ramfunc_begin = .
 *(.ramfunc .ramfunc.*)
                0xa0015800                . = ALIGN (0x4)
                0xa0015800                _ramfunc_end = .
                0x9d0760cc                _ramfunc_image_begin = LOADADDR (.ramfunc)
                0x00000000                _ramfunc_length = SIZEOF (.ramfunc)
                0x00015800                _bmxdkpba_address = (_ramfunc_begin - 0xa0000000)
                0x00020000                _bmxdudba_address = 0x20000
                0x00020000                _bmxdupba_address = 0x20000
                0xa0020000                _stack = (_ramfunc_length > 0x0)?(_ramfunc_begin - 0x4):0xa0020000
                0x00000000                ASSERT (((_min_stack_size + _min_heap_size) <= (_stack - _heap)), Not enough space to allocate both stack and heap.  Reduce heap and/or stack size.)

/DISCARD/
 *(.pdr)
 *(.reginfo)
 *(.rel.dyn)
 *(.note.GNU-stack)

.stab
 *(.stab)

.stabstr
 *(.stabstr)

.stab.excl
 *(.stab.excl)

.stab.exclstr
 *(.stab.exclstr)

.stab.index
 *(.stab.index)

.stab.indexstr
 *(.stab.indexstr)

.mdebug.abi32   0x00000000        0x0
 .mdebug.abi32  0x00000000        0x0 build/OLIMEX/production/_ext/2012694729/Commands.o
 .mdebug.abi32  0x00000000        0x0 build/OLIMEX/production/_ext/2012694729/Custom.o
 .mdebug.abi32  0x00000000        0x0 build/OLIMEX/production/_ext/2012694729/External.o
 .mdebug.abi32  0x00000000        0x0 build/OLIMEX/production/_ext/2012694729/Files.o
 .mdebug.abi32  0x00000000        0x0 build/OLIMEX/production/_ext/2012694729/Functions.o
 .mdebug.abi32  0x00000000        0x0 build/OLIMEX/production/_ext/2012694729/Graphics.o
 .mdebug.abi32  0x00000000        0x0 build/OLIMEX/production/_ext/2012694729/Help.o
 .mdebug.abi32  0x00000000        0x0 build/OLIMEX/production/_ext/2012694729/I2C.o
 .mdebug.abi32  0x00000000        0x0 build/OLIMEX/production/_ext/2012694729/MMBasic.o
 .mdebug.abi32  0x00000000        0x0 build/OLIMEX/production/_ext/2012694729/Misc.o
 .mdebug.abi32  0x00000000        0x0 build/OLIMEX/production/_ext/2012694729/Operators.o
 .mdebug.abi32  0x00000000        0x0 build/OLIMEX/production/_ext/2012694729/XModem.o
 .mdebug.abi32  0x00000000        0x0 build/OLIMEX/production/_ext/2012694729/Editor.o
 .mdebug.abi32  0x00000000        0x0 build/OLIMEX/production/_ext/779736424/FSIO.o
 .mdebug.abi32  0x00000000        0x0 build/OLIMEX/production/_ext/779736424/SD-SPI.o
 .mdebug.abi32  0x00000000        0x0 build/OLIMEX/production/_ext/940238529/usb_descriptors.o
 .mdebug.abi32  0x00000000        0x0 build/OLIMEX/production/_ext/678306549/usb_device.o
 .mdebug.abi32  0x00000000        0x0 build/OLIMEX/production/_ext/488640762/usb_function_cdc.o
 .mdebug.abi32  0x00000000        0x0 build/OLIMEX/production/_ext/718657706/usb_function_msd.o
 .mdebug.abi32  0x00000000        0x0 build/OLIMEX/production/_ext/1624479370/DrawChar.o
 .mdebug.abi32  0x00000000        0x0 build/OLIMEX/production/_ext/1624479370/VT100.o
 .mdebug.abi32  0x00000000        0x0 build/OLIMEX/production/_ext/1624479370/Video.o
 .mdebug.abi32  0x00000000        0x0 build/OLIMEX/production/_ext/2129892895/GameDuino.o
 .mdebug.abi32  0x00000000        0x0 build/OLIMEX/production/_ext/179026188/Keyboard.o
 .mdebug.abi32  0x00000000        0x0 build/OLIMEX/production/_ext/1728301206/Main.o
 .mdebug.abi32  0x00000000        0x0 build/OLIMEX/production/_ext/2129892895/RTC.o
 .mdebug.abi32  0x00000000        0x0 build/OLIMEX/production/_ext/1728301206/Setup.o
 .mdebug.abi32  0x00000000        0x0 build/OLIMEX/production/_ext/1728301206/Term.o
 .mdebug.abi32  0x00000000        0x0 build/OLIMEX/production/_ext/1123757107/Timers.o
 .mdebug.abi32  0x00000000        0x0 build/OLIMEX/production/_ext/1091586137/serial.o
 .mdebug.abi32  0x00000000        0x0 E:/Olimex/Compilers/Microchip/MPLAB C32 1_11B/bin/../lib/gcc/pic32mx/3.4.4/../../../../pic32mx/lib/speed\libc.a(strcat.o)
 .mdebug.abi32  0x00000000        0x0 E:/Olimex/Compilers/Microchip/MPLAB C32 1_11B/bin/../lib/gcc/pic32mx/3.4.4/../../../../pic32mx/lib/speed\libc.a(strncmp.o)
 .mdebug.abi32  0x00000000        0x0 E:/Olimex/Compilers/Microchip/MPLAB C32 1_11B/bin/../lib/gcc/pic32mx/3.4.4/../../../../pic32mx/lib/speed\libc.a(strncpy.o)
 .mdebug.abi32  0x00000000        0x0 E:/Olimex/Compilers/Microchip/MPLAB C32 1_11B/bin/../lib/gcc/pic32mx/3.4.4/../../../../pic32mx/lib/speed\libc.a(strchr.o)
 .mdebug.abi32  0x00000000        0x0 E:/Olimex/Compilers/Microchip/MPLAB C32 1_11B/bin/../lib/gcc/pic32mx/3.4.4/../../../../pic32mx/lib/speed\libc.a(memmove.o)
 .mdebug.abi32  0x00000000        0x0 E:/Olimex/Compilers/Microchip/MPLAB C32 1_11B/bin/../lib/gcc/pic32mx/3.4.4/../../../../pic32mx/lib/speed\libc.a(exit.o)
 .mdebug.abi32  0x00000000        0x0 E:/Olimex/Compilers/Microchip/MPLAB C32 1_11B/bin/../lib/gcc/pic32mx/3.4.4/../../../../pic32mx/lib/speed\libc.a(ctype.o)
 .mdebug.abi32  0x00000000        0x0 E:/Olimex/Compilers/Microchip/MPLAB C32 1_11B/bin/../lib/gcc/pic32mx/3.4.4/../../../../pic32mx/lib/speed\libc.a(ctypef.o)
 .mdebug.abi32  0x00000000        0x0 E:/Olimex/Compilers/Microchip/MPLAB C32 1_11B/bin/../lib/gcc/pic32mx/3.4.4/../../../../pic32mx/lib/speed\libc.a(malloc.o)
 .mdebug.abi32  0x00000000        0x0 E:/Olimex/Compilers/Microchip/MPLAB C32 1_11B/bin/../lib/gcc/pic32mx/3.4.4/../../../../pic32mx/lib/speed\libc.a(malloc_calloc.o)
 .mdebug.abi32  0x00000000        0x0 E:/Olimex/Compilers/Microchip/MPLAB C32 1_11B/bin/../lib/gcc/pic32mx/3.4.4/../../../../pic32mx/lib/speed\libc.a(rand.o)
 .mdebug.abi32  0x00000000        0x0 E:/Olimex/Compilers/Microchip/MPLAB C32 1_11B/bin/../lib/gcc/pic32mx/3.4.4/../../../../pic32mx/lib/speed\libc.a(errno.o)
 .mdebug.abi32  0x00000000        0x0 E:/Olimex/Compilers/Microchip/MPLAB C32 1_11B/bin/../lib/gcc/pic32mx/3.4.4/../../../../pic32mx/lib/speed\libc.a(strtol.o)
 .mdebug.abi32  0x00000000        0x0 E:/Olimex/Compilers/Microchip/MPLAB C32 1_11B/bin/../lib/gcc/pic32mx/3.4.4/../../../../pic32mx/lib/speed\libc.a(strtod.o)
 .mdebug.abi32  0x00000000        0x0 E:/Olimex/Compilers/Microchip/MPLAB C32 1_11B/bin/../lib/gcc/pic32mx/3.4.4/../../../../pic32mx/lib/speed\libc.a(sprintf.o)
 .mdebug.abi32  0x00000000        0x0 E:/Olimex/Compilers/Microchip/MPLAB C32 1_11B/bin/../lib/gcc/pic32mx/3.4.4/../../../../pic32mx/lib/speed\libc.a(__vsnprintf.o)
 .mdebug.abi32  0x00000000        0x0 E:/Olimex/Compilers/Microchip/MPLAB C32 1_11B/bin/../lib/gcc/pic32mx/3.4.4/../../../../pic32mx/lib/speed\libc.a(stubs.o)
 .mdebug.abi32  0x00000000        0x0 E:/Olimex/Compilers/Microchip/MPLAB C32 1_11B/bin/../lib/gcc/pic32mx/3.4.4/../../../../pic32mx/lib/speed\libc.a(sbrk.o)
 .mdebug.abi32  0x00000000        0x0 E:/Olimex/Compilers/Microchip/MPLAB C32 1_11B/bin/../lib/gcc/pic32mx/3.4.4/../../../../pic32mx/lib/speed\libc.a(default-bootstrap-exception-handler.o)
 .mdebug.abi32  0x00000000        0x0 E:/Olimex/Compilers/Microchip/MPLAB C32 1_11B/bin/../lib/gcc/pic32mx/3.4.4/../../../../pic32mx/lib/speed\libc.a(default-on-reset.o)
 .mdebug.abi32  0x00000000        0x0 E:/Olimex/Compilers/Microchip/MPLAB C32 1_11B/bin/../lib/gcc/pic32mx/3.4.4/../../../../pic32mx/lib/speed\libc.a(default-on-bootstrap.o)
 .mdebug.abi32  0x00000000        0x0 E:/Olimex/Compilers/Microchip/MPLAB C32 1_11B/bin/../lib/gcc/pic32mx/3.4.4/../../../../pic32mx/lib/speed\libc.a(_exit.o)
 .mdebug.abi32  0x00000000        0x0 E:/Olimex/Compilers/Microchip/MPLAB C32 1_11B/bin/../lib/gcc/pic32mx/3.4.4/../../../../pic32mx/lib/speed\libc.a(_doprnt.o)
 .mdebug.abi32  0x00000000        0x0 E:/Olimex/Compilers/Microchip/MPLAB C32 1_11B/bin/../lib/gcc/pic32mx/3.4.4/../../../../pic32mx/lib/speed\libc.a(_iobdata.o)
 .mdebug.abi32  0x00000000        0x0 E:/Olimex/Compilers/Microchip/MPLAB C32 1_11B/bin/../lib/gcc/pic32mx/3.4.4/../../../../pic32mx/lib/speed\libc.a(_iobfuncs.o)
 .mdebug.abi32  0x00000000        0x0 E:/Olimex/Compilers/Microchip/MPLAB C32 1_11B/bin/../lib/gcc/pic32mx/3.4.4/../../../../pic32mx/lib/speed\libc.a(_iobstring.o)
 .mdebug.abi32  0x00000000        0x0 E:/Olimex/Compilers/Microchip/MPLAB C32 1_11B/bin/../lib/gcc/pic32mx/3.4.4/../../../../pic32mx/lib/speed\libc.a(fputc.o)
 .mdebug.abi32  0x00000000        0x0 E:/Olimex/Compilers/Microchip/MPLAB C32 1_11B/bin/../lib/gcc/pic32mx/3.4.4/../../../../pic32mx/lib/speed\libc.a(_mon_getc.o)
 .mdebug.abi32  0x00000000        0x0 E:/Olimex/Compilers/Microchip/MPLAB C32 1_11B/bin/../lib/gcc/pic32mx/3.4.4/../../../../pic32mx/lib/speed\libc.a(_mon_write.o)
 .mdebug.abi32  0x00000000        0x0 E:/Olimex/Compilers/Microchip/MPLAB C32 1_11B/bin/../lib/gcc/pic32mx/3.4.4/../../../../pic32mx/lib/speed\libc.a(fullexit.o)
 .mdebug.abi32  0x00000000        0x0 E:/Olimex/Compilers/Microchip/MPLAB C32 1_11B/bin/../lib/gcc/pic32mx/3.4.4/../../../../pic32mx/lib/speed\libc.a(_mon_putc.o)
 .mdebug.abi32  0x00000000        0x0 E:/Olimex/Compilers/Microchip/MPLAB C32 1_11B/bin/../lib/gcc/pic32mx/3.4.4/../../../../pic32mx/lib/speed\libm.a(w_pow.o)
 .mdebug.abi32  0x00000000        0x0 E:/Olimex/Compilers/Microchip/MPLAB C32 1_11B/bin/../lib/gcc/pic32mx/3.4.4/../../../../pic32mx/lib/speed\libm.a(w_sqrtf.o)
 .mdebug.abi32  0x00000000        0x0 E:/Olimex/Compilers/Microchip/MPLAB C32 1_11B/bin/../lib/gcc/pic32mx/3.4.4/../../../../pic32mx/lib/speed\libm.a(w_logf.o)
 .mdebug.abi32  0x00000000        0x0 E:/Olimex/Compilers/Microchip/MPLAB C32 1_11B/bin/../lib/gcc/pic32mx/3.4.4/../../../../pic32mx/lib/speed\libm.a(w_expf.o)
 .mdebug.abi32  0x00000000        0x0 E:/Olimex/Compilers/Microchip/MPLAB C32 1_11B/bin/../lib/gcc/pic32mx/3.4.4/../../../../pic32mx/lib/speed\libm.a(s_lib_ver.o)
 .mdebug.abi32  0x00000000        0x0 E:/Olimex/Compilers/Microchip/MPLAB C32 1_11B/bin/../lib/gcc/pic32mx/3.4.4/../../../../pic32mx/lib/speed\libe.a(_strtod.o)
 .mdebug.abi32  0x00000000        0x0 E:/Olimex/Compilers/Microchip/MPLAB C32 1_11B/bin/../lib/gcc/pic32mx/3.4.4/../../../../pic32mx/lib/speed\libe.a(_ldexp.o)
 .mdebug.abi32  0x00000000        0x0 E:/Olimex/Compilers/Microchip/MPLAB C32 1_11B/bin/../lib/gcc/pic32mx/3.4.4/../../../../pic32mx/lib/speed\libmchp_peripheral.a(read_core_timer_lib.o)
 .mdebug.abi32  0x00000000        0x0 E:/Olimex/Compilers/Microchip/MPLAB C32 1_11B/bin/../lib/gcc/pic32mx/3.4.4/../../../../pic32mx/lib/speed\libmchp_peripheral.a(write_core_timer_lib.o)
 .mdebug.abi32  0x00000000        0x0 E:/Olimex/Compilers/Microchip/MPLAB C32 1_11B/bin/../lib/gcc/pic32mx/3.4.4/../../../../pic32mx/lib/speed\libmchp_peripheral_32MX795F512H.a(soft_reset_lib.o)
 .mdebug.abi32  0x00000000        0x0 E:/Olimex/Compilers/Microchip/MPLAB C32 1_11B/bin/../lib/gcc/pic32mx/3.4.4/../../../../pic32mx/lib/speed\libmchp_peripheral_32MX795F512H.a(pcache.o)
 .mdebug.abi32  0x00000000        0x0 E:/Olimex/Compilers/Microchip/MPLAB C32 1_11B/bin/../lib/gcc/pic32mx/3.4.4/../../../../pic32mx/lib/speed\libmchp_peripheral_32MX795F512H.a(int_enable_interrupts_lib.o)
 .mdebug.abi32  0x00000000        0x0 E:/Olimex/Compilers/Microchip/MPLAB C32 1_11B/bin/../lib/gcc/pic32mx/3.4.4/../../../../pic32mx/lib/speed\libmchp_peripheral_32MX795F512H.a(int_disable_interrupts_lib.o)
 .mdebug.abi32  0x00000000        0x0 E:/Olimex/Compilers/Microchip/MPLAB C32 1_11B/bin/../lib/gcc/pic32mx/3.4.4/../../../../pic32mx/lib/speed\libmchp_peripheral_32MX795F512H.a(int_restore_interrupts_lib.o)
 .mdebug.abi32  0x00000000        0x0 E:/Olimex/Compilers/Microchip/MPLAB C32 1_11B/bin/../lib/gcc/pic32mx/3.4.4/../../../../pic32mx/lib/speed\libmchp_peripheral_32MX795F512H.a(int_enable_mv_int_lib.o)
 .mdebug.abi32  0x00000000        0x0 E:/Olimex/Compilers/Microchip/MPLAB C32 1_11B/bin/../lib/gcc/pic32mx/3.4.4/../../../../pic32mx/lib/speed\libmchp_peripheral_32MX795F512H.a(int_tbl_lib.o)
 .mdebug.abi32  0x00000000        0x0 E:/Olimex/Compilers/Microchip/MPLAB C32 1_11B/bin/../lib/gcc/pic32mx/3.4.4/../../../../pic32mx/lib/speed\libmchp_peripheral_32MX795F512H.a(rtcc_alarm_disable_lib.o)
 .mdebug.abi32  0x00000000        0x0 E:/Olimex/Compilers/Microchip/MPLAB C32 1_11B/bin/../lib/gcc/pic32mx/3.4.4/../../../../pic32mx/lib/speed\libmchp_peripheral_32MX795F512H.a(rtcc_alarm_enable_lib.o)
 .mdebug.abi32  0x00000000        0x0 E:/Olimex/Compilers/Microchip/MPLAB C32 1_11B/bin/../lib/gcc/pic32mx/3.4.4/../../../../pic32mx/lib/speed\libmchp_peripheral_32MX795F512H.a(rtcc_chime_enable_lib.o)
 .mdebug.abi32  0x00000000        0x0 E:/Olimex/Compilers/Microchip/MPLAB C32 1_11B/bin/../lib/gcc/pic32mx/3.4.4/../../../../pic32mx/lib/speed\libmchp_peripheral_32MX795F512H.a(rtcc_init_lib.o)
 .mdebug.abi32  0x00000000        0x0 E:/Olimex/Compilers/Microchip/MPLAB C32 1_11B/bin/../lib/gcc/pic32mx/3.4.4/../../../../pic32mx/lib/speed\libmchp_peripheral_32MX795F512H.a(rtcc_set_alarm_rpt_count_lib.o)
 .mdebug.abi32  0x00000000        0x0 E:/Olimex/Compilers/Microchip/MPLAB C32 1_11B/bin/../lib/gcc/pic32mx/3.4.4/../../../../pic32mx/lib/speed\libmchp_peripheral_32MX795F512H.a(rtcc_set_alarm_rpt_lib.o)
 .mdebug.abi32  0x00000000        0x0 E:/Olimex/Compilers/Microchip/MPLAB C32 1_11B/bin/../lib/gcc/pic32mx/3.4.4/../../../../pic32mx/lib/speed\libmchp_peripheral_32MX795F512H.a(rtcc_set_alarm_time_date_lib.o)
 .mdebug.abi32  0x00000000        0x0 E:/Olimex/Compilers/Microchip/MPLAB C32 1_11B/bin/../lib/gcc/pic32mx/3.4.4/../../../../pic32mx/lib/speed\libmchp_peripheral_32MX795F512H.a(rtcc_set_time_date_lib.o)
 .mdebug.abi32  0x00000000        0x0 E:/Olimex/Compilers/Microchip/MPLAB C32 1_11B/bin/../lib/gcc/pic32mx/3.4.4/../../../../pic32mx/lib/speed\libmchp_peripheral_32MX795F512H.a(rtcc_open_lib.o)
 .mdebug.abi32  0x00000000        0x0 E:/Olimex/Compilers/Microchip/MPLAB C32 1_11B/bin/../lib/gcc/pic32mx/3.4.4/../../../../pic32mx/lib/speed\libmchp_peripheral_32MX795F512H.a(spi_chn_close_lib.o)
 .mdebug.abi32  0x00000000        0x0 E:/Olimex/Compilers/Microchip/MPLAB C32 1_11B/bin/../lib/gcc/pic32mx/3.4.4/../../../../pic32mx/lib/speed\libmchp_peripheral_32MX795F512H.a(spi_chn_getc_lib.o)
 .mdebug.abi32  0x00000000        0x0 E:/Olimex/Compilers/Microchip/MPLAB C32 1_11B/bin/../lib/gcc/pic32mx/3.4.4/../../../../pic32mx/lib/speed\libmchp_peripheral_32MX795F512H.a(spi_chn_open_lib.o)
 .mdebug.abi32  0x00000000        0x0 E:/Olimex/Compilers/Microchip/MPLAB C32 1_11B/bin/../lib/gcc/pic32mx/3.4.4/../../../../pic32mx/lib/speed\libmchp_peripheral_32MX795F512H.a(spi_chn_putc_lib.o)
 .mdebug.abi32  0x00000000        0x0 E:/Olimex/Compilers/Microchip/MPLAB C32 1_11B/bin/../lib/gcc/pic32mx/3.4.4/../../../../pic32mx/lib/speed\libmchp_peripheral_32MX795F512H.a(spi_io_tbl_libp.o)
 .mdebug.abi32  0x00000000        0x0 E:/Olimex/Compilers/Microchip/MPLAB C32 1_11B/bin/../lib/gcc/pic32mx/3.4.4/../../../../pic32mx/lib/speed\libmchp_peripheral_32MX795F512H.a(spi_map_tbl_libp.o)
 .mdebug.abi32  0x00000000        0x0 E:/Olimex/Compilers/Microchip/MPLAB C32 1_11B/bin/../lib/gcc/pic32mx/3.4.4/../../../../pic32mx/lib/speed\libmchp_peripheral_32MX795F512H.a(power_sleep_lib.o)
 .mdebug.abi32  0x00000000        0x0 E:/Olimex/Compilers/Microchip/MPLAB C32 1_11B/bin/../lib/gcc/pic32mx/3.4.4/../../../../pic32mx/lib/speed\libmchp_peripheral_32MX795F512H.a(nvm_erase_page_lib.o)
 .mdebug.abi32  0x00000000        0x0 E:/Olimex/Compilers/Microchip/MPLAB C32 1_11B/bin/../lib/gcc/pic32mx/3.4.4/../../../../pic32mx/lib/speed\libmchp_peripheral_32MX795F512H.a(nvm_operation_lib.o)
 .mdebug.abi32  0x00000000        0x0 E:/Olimex/Compilers/Microchip/MPLAB C32 1_11B/bin/../lib/gcc/pic32mx/3.4.4/../../../../pic32mx/lib/speed\libmchp_peripheral_32MX795F512H.a(nvm_write_row_lib.o)
 .mdebug.abi32  0x00000000        0x0 E:/Olimex/Compilers/Microchip/MPLAB C32 1_11B/bin/../lib/gcc/pic32mx/3.4.4/../../../../pic32mx/lib/speed\libmchp_peripheral_32MX795F512H.a(nvm_write_word_lib.o)
 .mdebug.abi32  0x00000000        0x0 E:/Olimex/Compilers/Microchip/MPLAB C32 1_11B/bin/../lib/gcc/pic32mx/3.4.4/../../../../pic32mx/lib/speed\libmchp_peripheral_32MX795F512H.a(dma_chn_open_lib.o)
 .mdebug.abi32  0x00000000        0x0 E:/Olimex/Compilers/Microchip/MPLAB C32 1_11B/bin/../lib/gcc/pic32mx/3.4.4/../../../../pic32mx/lib/speed\libmchp_peripheral_32MX795F512H.a(dma_chn_enable_lib.o)
 .mdebug.abi32  0x00000000        0x0 E:/Olimex/Compilers/Microchip/MPLAB C32 1_11B/bin/../lib/gcc/pic32mx/3.4.4/../../../../pic32mx/lib/speed\libmchp_peripheral_32MX795F512H.a(dma_chn_set_control_flags_lib.o)
 .mdebug.abi32  0x00000000        0x0 E:/Olimex/Compilers/Microchip/MPLAB C32 1_11B/bin/../lib/gcc/pic32mx/3.4.4/../../../../pic32mx/lib/speed\libmchp_peripheral_32MX795F512H.a(dma_chn_write_event_control_flags_lib.o)
 .mdebug.abi32  0x00000000        0x0 E:/Olimex/Compilers/Microchip/MPLAB C32 1_11B/bin/../lib/gcc/pic32mx/3.4.4/../../../../pic32mx/lib/speed\libmchp_peripheral_32MX795F512H.a(dma_chn_set_txfer_lib.o)
 .mdebug.abi32  0x00000000        0x0 E:/Olimex/Compilers/Microchip/MPLAB C32 1_11B/bin/../lib/gcc/pic32mx/3.4.4/../../../../pic32mx/lib/speed\libmchp_peripheral_32MX795F512H.a(dma_reg_map_tbl_lib.o)
 .mdebug.abi32  0x00000000        0x0 E:/Olimex/Compilers/Microchip/MPLAB C32 1_11B/bin/../lib/gcc/pic32mx/3.4.4/../../../../pic32mx/lib/speed\libmchp_peripheral_32MX795F512H.a(port_reset_pins_lib.o)
 .mdebug.abi32  0x00000000        0x0 E:/Olimex/Compilers/Microchip/MPLAB C32 1_11B/bin/../lib/gcc/pic32mx/3.4.4/../../../../pic32mx/lib/speed\libmchp_peripheral_32MX795F512H.a(port_set_pins_digital_in_lib.o)
 .mdebug.abi32  0x00000000        0x0 E:/Olimex/Compilers/Microchip/MPLAB C32 1_11B/bin/../lib/gcc/pic32mx/3.4.4/../../../../pic32mx/lib/speed\libmchp_peripheral_32MX795F512H.a(port_set_pins_digital_out_lib.o)
 .mdebug.abi32  0x00000000        0x0 E:/Olimex/Compilers/Microchip/MPLAB C32 1_11B/bin/../lib/gcc/pic32mx/3.4.4/../../../../pic32mx/lib/speed\libmchp_peripheral_32MX795F512H.a(_ports_tbl_libp.o)
 .mdebug.abi32  0x00000000        0x0 E:/Olimex/Compilers/Microchip/MPLAB C32 1_11B/bin/../lib/gcc/pic32mx/3.4.4/../../../../pic32mx/lib/speed\libmchp_peripheral_32MX795F512H.a(uart_lib.o)
 .mdebug.abi32  0x00000000        0x0 E:/Olimex/Compilers/Microchip/MPLAB C32 1_11B/bin/../lib/gcc/pic32mx/3.4.4/../../../../pic32mx/lib/speed\libmchp_peripheral_32MX795F512H.a(I2CByteWasAcknowledged.o)
 .mdebug.abi32  0x00000000        0x0 E:/Olimex/Compilers/Microchip/MPLAB C32 1_11B/bin/../lib/gcc/pic32mx/3.4.4/../../../../pic32mx/lib/speed\libmchp_peripheral_32MX795F512H.a(I2CConfigure.o)
 .mdebug.abi32  0x00000000        0x0 E:/Olimex/Compilers/Microchip/MPLAB C32 1_11B/bin/../lib/gcc/pic32mx/3.4.4/../../../../pic32mx/lib/speed\libmchp_peripheral_32MX795F512H.a(I2CEnable.o)
 .mdebug.abi32  0x00000000        0x0 E:/Olimex/Compilers/Microchip/MPLAB C32 1_11B/bin/../lib/gcc/pic32mx/3.4.4/../../../../pic32mx/lib/speed\libmchp_peripheral_32MX795F512H.a(I2CGetByte.o)
 .mdebug.abi32  0x00000000        0x0 E:/Olimex/Compilers/Microchip/MPLAB C32 1_11B/bin/../lib/gcc/pic32mx/3.4.4/../../../../pic32mx/lib/speed\libmchp_peripheral_32MX795F512H.a(I2CReceivedDataIsAvailable.o)
 .mdebug.abi32  0x00000000        0x0 E:/Olimex/Compilers/Microchip/MPLAB C32 1_11B/bin/../lib/gcc/pic32mx/3.4.4/../../../../pic32mx/lib/speed\libmchp_peripheral_32MX795F512H.a(I2CReceiverEnable.o)
 .mdebug.abi32  0x00000000        0x0 E:/Olimex/Compilers/Microchip/MPLAB C32 1_11B/bin/../lib/gcc/pic32mx/3.4.4/../../../../pic32mx/lib/speed\libmchp_peripheral_32MX795F512H.a(I2CRepeatStart.o)
 .mdebug.abi32  0x00000000        0x0 E:/Olimex/Compilers/Microchip/MPLAB C32 1_11B/bin/../lib/gcc/pic32mx/3.4.4/../../../../pic32mx/lib/speed\libmchp_peripheral_32MX795F512H.a(I2CSendByte.o)
 .mdebug.abi32  0x00000000        0x0 E:/Olimex/Compilers/Microchip/MPLAB C32 1_11B/bin/../lib/gcc/pic32mx/3.4.4/../../../../pic32mx/lib/speed\libmchp_peripheral_32MX795F512H.a(I2CSetFrequency.o)
 .mdebug.abi32  0x00000000        0x0 E:/Olimex/Compilers/Microchip/MPLAB C32 1_11B/bin/../lib/gcc/pic32mx/3.4.4/../../../../pic32mx/lib/speed\libmchp_peripheral_32MX795F512H.a(I2CStart.o)
 .mdebug.abi32  0x00000000        0x0 E:/Olimex/Compilers/Microchip/MPLAB C32 1_11B/bin/../lib/gcc/pic32mx/3.4.4/../../../../pic32mx/lib/speed\libmchp_peripheral_32MX795F512H.a(I2CStop.o)
 .mdebug.abi32  0x00000000        0x0 E:/Olimex/Compilers/Microchip/MPLAB C32 1_11B/bin/../lib/gcc/pic32mx/3.4.4/../../../../pic32mx/lib/speed\libmchp_peripheral_32MX795F512H.a(_rtcc_set_alrm_time_and_date_lib.o)
 .mdebug.abi32  0x00000000        0x0 E:/Olimex/Compilers/Microchip/MPLAB C32 1_11B/bin/../lib/gcc/pic32mx/3.4.4/../../../../pic32mx/lib/speed\libmchp_peripheral_32MX795F512H.a(_rtcc_set_time_and_date_lib.o)
 .mdebug.abi32  0x00000000        0x0 E:/Olimex/Compilers/Microchip/MPLAB C32 1_11B/bin/../lib/gcc/pic32mx/3.4.4/../../../../pic32mx/lib/speed\libmchp_peripheral_32MX795F512H.a(_rtcc_write_in_alarm_window_lib.o)
 .mdebug.abi32  0x00000000        0x0 E:/Olimex/Compilers/Microchip/MPLAB C32 1_11B/bin/../lib/gcc/pic32mx/3.4.4/../../../../pic32mx/lib/speed\libmchp_peripheral_32MX795F512H.a(_rtcc_wait_clock_off_lib.o)
 .mdebug.abi32  0x00000000        0x0 E:/Olimex/Compilers/Microchip/MPLAB C32 1_11B/bin/../lib/gcc/pic32mx/3.4.4/../../../../pic32mx/lib/speed\libmchp_peripheral_32MX795F512H.a(I2CPrivate.o)
 .mdebug.abi32  0x00000000        0x0 E:/Olimex/Compilers/Microchip/MPLAB C32 1_11B/bin/../lib/gcc/pic32mx/3.4.4/../../../../pic32mx/lib/speed\libc.a(isinf.o)
 .mdebug.abi32  0x00000000        0x0 E:/Olimex/Compilers/Microchip/MPLAB C32 1_11B/bin/../lib/gcc/pic32mx/3.4.4/speed\libgcc.a(_udivdi3.o)
 .mdebug.abi32  0x00000000        0x0 E:/Olimex/Compilers/Microchip/MPLAB C32 1_11B/bin/../lib/gcc/pic32mx/3.4.4/speed\libgcc.a(_umoddi3.o)

.comment        0x00000000     0x31d0
 *(.comment)
 .comment       0x00000000       0x50 build/OLIMEX/production/_ext/2012694729/Commands.o
 .comment       0x00000050       0x50 build/OLIMEX/production/_ext/2012694729/Custom.o
 .comment       0x000000a0       0x50 build/OLIMEX/production/_ext/2012694729/External.o
 .comment       0x000000f0       0x50 build/OLIMEX/production/_ext/2012694729/Files.o
 .comment       0x00000140       0x50 build/OLIMEX/production/_ext/2012694729/Functions.o
 .comment       0x00000190       0x50 build/OLIMEX/production/_ext/2012694729/Graphics.o
 .comment       0x000001e0       0x50 build/OLIMEX/production/_ext/2012694729/Help.o
 .comment       0x00000230       0x50 build/OLIMEX/production/_ext/2012694729/I2C.o
 .comment       0x00000280       0x50 build/OLIMEX/production/_ext/2012694729/MMBasic.o
 .comment       0x000002d0       0x50 build/OLIMEX/production/_ext/2012694729/Misc.o
 .comment       0x00000320       0x50 build/OLIMEX/production/_ext/2012694729/Operators.o
 .comment       0x00000370       0x50 build/OLIMEX/production/_ext/2012694729/XModem.o
 .comment       0x000003c0       0x50 build/OLIMEX/production/_ext/2012694729/Editor.o
 .comment       0x00000410       0x50 build/OLIMEX/production/_ext/779736424/FSIO.o
 .comment       0x00000460       0x50 build/OLIMEX/production/_ext/779736424/SD-SPI.o
 .comment       0x000004b0       0x50 build/OLIMEX/production/_ext/940238529/usb_descriptors.o
 .comment       0x00000500       0x50 build/OLIMEX/production/_ext/678306549/usb_device.o
 .comment       0x00000550       0x50 build/OLIMEX/production/_ext/488640762/usb_function_cdc.o
 .comment       0x000005a0       0x50 build/OLIMEX/production/_ext/718657706/usb_function_msd.o
 .comment       0x000005f0       0x50 build/OLIMEX/production/_ext/1624479370/DrawChar.o
 .comment       0x00000640       0x50 build/OLIMEX/production/_ext/1624479370/VT100.o
 .comment       0x00000690       0x50 build/OLIMEX/production/_ext/1624479370/Video.o
 .comment       0x000006e0       0x50 build/OLIMEX/production/_ext/2129892895/GameDuino.o
 .comment       0x00000730       0x50 build/OLIMEX/production/_ext/179026188/Keyboard.o
 .comment       0x00000780       0x50 build/OLIMEX/production/_ext/1728301206/Main.o
 .comment       0x000007d0       0x50 build/OLIMEX/production/_ext/2129892895/RTC.o
 .comment       0x00000820       0x50 build/OLIMEX/production/_ext/1728301206/Setup.o
 .comment       0x00000870       0x50 build/OLIMEX/production/_ext/1728301206/Term.o
 .comment       0x000008c0       0x50 build/OLIMEX/production/_ext/1123757107/Timers.o
 .comment       0x00000910       0x50 build/OLIMEX/production/_ext/1091586137/serial.o
 .comment       0x00000960       0x56 E:/Olimex/Compilers/Microchip/MPLAB C32 1_11B/bin/../lib/gcc/pic32mx/3.4.4/../../../../pic32mx/lib/speed\libc.a(setjmp.o)
 .comment       0x000009b6       0x56 E:/Olimex/Compilers/Microchip/MPLAB C32 1_11B/bin/../lib/gcc/pic32mx/3.4.4/../../../../pic32mx/lib/speed\libc.a(memcmp.o)
 .comment       0x00000a0c       0x56 E:/Olimex/Compilers/Microchip/MPLAB C32 1_11B/bin/../lib/gcc/pic32mx/3.4.4/../../../../pic32mx/lib/speed\libc.a(memset.o)
 .comment       0x00000a62       0x56 E:/Olimex/Compilers/Microchip/MPLAB C32 1_11B/bin/../lib/gcc/pic32mx/3.4.4/../../../../pic32mx/lib/speed\libc.a(strcmp.o)
 .comment       0x00000ab8       0x56 E:/Olimex/Compilers/Microchip/MPLAB C32 1_11B/bin/../lib/gcc/pic32mx/3.4.4/../../../../pic32mx/lib/speed\libc.a(strcpy.o)
 .comment       0x00000b0e       0x56 E:/Olimex/Compilers/Microchip/MPLAB C32 1_11B/bin/../lib/gcc/pic32mx/3.4.4/../../../../pic32mx/lib/speed\libc.a(strlen.o)
 .comment       0x00000b64       0x9f E:/Olimex/Compilers/Microchip/MPLAB C32 1_11B/bin/../lib/gcc/pic32mx/3.4.4/../../../../pic32mx/lib/speed\libc.a(strcat.o)
 .comment       0x00000c03       0xa0 E:/Olimex/Compilers/Microchip/MPLAB C32 1_11B/bin/../lib/gcc/pic32mx/3.4.4/../../../../pic32mx/lib/speed\libc.a(strncmp.o)
 .comment       0x00000ca3       0xa0 E:/Olimex/Compilers/Microchip/MPLAB C32 1_11B/bin/../lib/gcc/pic32mx/3.4.4/../../../../pic32mx/lib/speed\libc.a(strncpy.o)
 .comment       0x00000d43       0x9f E:/Olimex/Compilers/Microchip/MPLAB C32 1_11B/bin/../lib/gcc/pic32mx/3.4.4/../../../../pic32mx/lib/speed\libc.a(strchr.o)
 .comment       0x00000de2       0xa0 E:/Olimex/Compilers/Microchip/MPLAB C32 1_11B/bin/../lib/gcc/pic32mx/3.4.4/../../../../pic32mx/lib/speed\libc.a(memmove.o)
 .comment       0x00000e82       0x9d E:/Olimex/Compilers/Microchip/MPLAB C32 1_11B/bin/../lib/gcc/pic32mx/3.4.4/../../../../pic32mx/lib/speed\libc.a(exit.o)
 .comment       0x00000f1f       0x9e E:/Olimex/Compilers/Microchip/MPLAB C32 1_11B/bin/../lib/gcc/pic32mx/3.4.4/../../../../pic32mx/lib/speed\libc.a(ctype.o)
 .comment       0x00000fbd       0x9f E:/Olimex/Compilers/Microchip/MPLAB C32 1_11B/bin/../lib/gcc/pic32mx/3.4.4/../../../../pic32mx/lib/speed\libc.a(ctypef.o)
 .comment       0x0000105c       0x50 E:/Olimex/Compilers/Microchip/MPLAB C32 1_11B/bin/../lib/gcc/pic32mx/3.4.4/../../../../pic32mx/lib/speed\libc.a(malloc.o)
 .comment       0x000010ac       0x50 E:/Olimex/Compilers/Microchip/MPLAB C32 1_11B/bin/../lib/gcc/pic32mx/3.4.4/../../../../pic32mx/lib/speed\libc.a(malloc_calloc.o)
 .comment       0x000010fc       0x9d E:/Olimex/Compilers/Microchip/MPLAB C32 1_11B/bin/../lib/gcc/pic32mx/3.4.4/../../../../pic32mx/lib/speed\libc.a(rand.o)
 .comment       0x00001199       0x9e E:/Olimex/Compilers/Microchip/MPLAB C32 1_11B/bin/../lib/gcc/pic32mx/3.4.4/../../../../pic32mx/lib/speed\libc.a(errno.o)
 .comment       0x00001237       0x9f E:/Olimex/Compilers/Microchip/MPLAB C32 1_11B/bin/../lib/gcc/pic32mx/3.4.4/../../../../pic32mx/lib/speed\libc.a(strtol.o)
 .comment       0x000012d6       0x9f E:/Olimex/Compilers/Microchip/MPLAB C32 1_11B/bin/../lib/gcc/pic32mx/3.4.4/../../../../pic32mx/lib/speed\libc.a(strtod.o)
 .comment       0x00001375       0xa2 E:/Olimex/Compilers/Microchip/MPLAB C32 1_11B/bin/../lib/gcc/pic32mx/3.4.4/../../../../pic32mx/lib/speed\libc.a(sprintf.o)
 .comment       0x00001417       0xa6 E:/Olimex/Compilers/Microchip/MPLAB C32 1_11B/bin/../lib/gcc/pic32mx/3.4.4/../../../../pic32mx/lib/speed\libc.a(__vsnprintf.o)
 .comment       0x000014bd       0x9e E:/Olimex/Compilers/Microchip/MPLAB C32 1_11B/bin/../lib/gcc/pic32mx/3.4.4/../../../../pic32mx/lib/speed\libc.a(stubs.o)
 .comment       0x0000155b       0x9b E:/Olimex/Compilers/Microchip/MPLAB C32 1_11B/bin/../lib/gcc/pic32mx/3.4.4/../../../../pic32mx/lib/speed\libc.a(sbrk.o)
 .comment       0x000015f6       0x50 E:/Olimex/Compilers/Microchip/MPLAB C32 1_11B/bin/../lib/gcc/pic32mx/3.4.4/../../../../pic32mx/lib/speed\libc.a(default-bootstrap-exception-handler.o)
 .comment       0x00001646       0x50 E:/Olimex/Compilers/Microchip/MPLAB C32 1_11B/bin/../lib/gcc/pic32mx/3.4.4/../../../../pic32mx/lib/speed\libc.a(default-on-reset.o)
 .comment       0x00001696       0x50 E:/Olimex/Compilers/Microchip/MPLAB C32 1_11B/bin/../lib/gcc/pic32mx/3.4.4/../../../../pic32mx/lib/speed\libc.a(default-on-bootstrap.o)
 .comment       0x000016e6       0x50 E:/Olimex/Compilers/Microchip/MPLAB C32 1_11B/bin/../lib/gcc/pic32mx/3.4.4/../../../../pic32mx/lib/speed\libc.a(_exit.o)
 .comment       0x00001736       0xa2 E:/Olimex/Compilers/Microchip/MPLAB C32 1_11B/bin/../lib/gcc/pic32mx/3.4.4/../../../../pic32mx/lib/speed\libc.a(_doprnt.o)
 .comment       0x000017d8       0xa3 E:/Olimex/Compilers/Microchip/MPLAB C32 1_11B/bin/../lib/gcc/pic32mx/3.4.4/../../../../pic32mx/lib/speed\libc.a(_iobdata.o)
 .comment       0x0000187b       0xa4 E:/Olimex/Compilers/Microchip/MPLAB C32 1_11B/bin/../lib/gcc/pic32mx/3.4.4/../../../../pic32mx/lib/speed\libc.a(_iobfuncs.o)
 .comment       0x0000191f       0xa5 E:/Olimex/Compilers/Microchip/MPLAB C32 1_11B/bin/../lib/gcc/pic32mx/3.4.4/../../../../pic32mx/lib/speed\libc.a(_iobstring.o)
 .comment       0x000019c4       0xa0 E:/Olimex/Compilers/Microchip/MPLAB C32 1_11B/bin/../lib/gcc/pic32mx/3.4.4/../../../../pic32mx/lib/speed\libc.a(fputc.o)
 .comment       0x00001a64       0x50 E:/Olimex/Compilers/Microchip/MPLAB C32 1_11B/bin/../lib/gcc/pic32mx/3.4.4/../../../../pic32mx/lib/speed\libc.a(_mon_getc.o)
 .comment       0x00001ab4       0x50 E:/Olimex/Compilers/Microchip/MPLAB C32 1_11B/bin/../lib/gcc/pic32mx/3.4.4/../../../../pic32mx/lib/speed\libc.a(_mon_write.o)
 .comment       0x00001b04       0xa1 E:/Olimex/Compilers/Microchip/MPLAB C32 1_11B/bin/../lib/gcc/pic32mx/3.4.4/../../../../pic32mx/lib/speed\libc.a(fullexit.o)
 .comment       0x00001ba5       0x50 E:/Olimex/Compilers/Microchip/MPLAB C32 1_11B/bin/../lib/gcc/pic32mx/3.4.4/../../../../pic32mx/lib/speed\libc.a(_mon_putc.o)
 .comment       0x00001bf5       0x50 E:/Olimex/Compilers/Microchip/MPLAB C32 1_11B/bin/../lib/gcc/pic32mx/3.4.4/../../../../pic32mx/lib/speed\libm.a(w_pow.o)
 .comment       0x00001c45       0x50 E:/Olimex/Compilers/Microchip/MPLAB C32 1_11B/bin/../lib/gcc/pic32mx/3.4.4/../../../../pic32mx/lib/speed\libm.a(w_sqrtf.o)
 .comment       0x00001c95       0x50 E:/Olimex/Compilers/Microchip/MPLAB C32 1_11B/bin/../lib/gcc/pic32mx/3.4.4/../../../../pic32mx/lib/speed\libm.a(w_logf.o)
 .comment       0x00001ce5       0x50 E:/Olimex/Compilers/Microchip/MPLAB C32 1_11B/bin/../lib/gcc/pic32mx/3.4.4/../../../../pic32mx/lib/speed\libm.a(w_expf.o)
 .comment       0x00001d35       0x50 E:/Olimex/Compilers/Microchip/MPLAB C32 1_11B/bin/../lib/gcc/pic32mx/3.4.4/../../../../pic32mx/lib/speed\libm.a(s_lib_ver.o)
 .comment       0x00001d85       0xed E:/Olimex/Compilers/Microchip/MPLAB C32 1_11B/bin/../lib/gcc/pic32mx/3.4.4/../../../../pic32mx/lib/speed\libe.a(_strtod.o)
 .comment       0x00001e72       0xee E:/Olimex/Compilers/Microchip/MPLAB C32 1_11B/bin/../lib/gcc/pic32mx/3.4.4/../../../../pic32mx/lib/speed\libe.a(_ldexp.o)
 .comment       0x00001f60       0x50 E:/Olimex/Compilers/Microchip/MPLAB C32 1_11B/bin/../lib/gcc/pic32mx/3.4.4/../../../../pic32mx/lib/speed\libmchp_peripheral.a(read_core_timer_lib.o)
 .comment       0x00001fb0       0x50 E:/Olimex/Compilers/Microchip/MPLAB C32 1_11B/bin/../lib/gcc/pic32mx/3.4.4/../../../../pic32mx/lib/speed\libmchp_peripheral.a(write_core_timer_lib.o)
 .comment       0x00002000       0x50 E:/Olimex/Compilers/Microchip/MPLAB C32 1_11B/bin/../lib/gcc/pic32mx/3.4.4/../../../../pic32mx/lib/speed\libmchp_peripheral_32MX795F512H.a(soft_reset_lib.o)
 .comment       0x00002050       0x50 E:/Olimex/Compilers/Microchip/MPLAB C32 1_11B/bin/../lib/gcc/pic32mx/3.4.4/../../../../pic32mx/lib/speed\libmchp_peripheral_32MX795F512H.a(pcache.o)
 .comment       0x000020a0       0x50 E:/Olimex/Compilers/Microchip/MPLAB C32 1_11B/bin/../lib/gcc/pic32mx/3.4.4/../../../../pic32mx/lib/speed\libmchp_peripheral_32MX795F512H.a(int_enable_interrupts_lib.o)
 .comment       0x000020f0       0x50 E:/Olimex/Compilers/Microchip/MPLAB C32 1_11B/bin/../lib/gcc/pic32mx/3.4.4/../../../../pic32mx/lib/speed\libmchp_peripheral_32MX795F512H.a(int_disable_interrupts_lib.o)
 .comment       0x00002140       0x50 E:/Olimex/Compilers/Microchip/MPLAB C32 1_11B/bin/../lib/gcc/pic32mx/3.4.4/../../../../pic32mx/lib/speed\libmchp_peripheral_32MX795F512H.a(int_restore_interrupts_lib.o)
 .comment       0x00002190       0x50 E:/Olimex/Compilers/Microchip/MPLAB C32 1_11B/bin/../lib/gcc/pic32mx/3.4.4/../../../../pic32mx/lib/speed\libmchp_peripheral_32MX795F512H.a(int_enable_mv_int_lib.o)
 .comment       0x000021e0       0x50 E:/Olimex/Compilers/Microchip/MPLAB C32 1_11B/bin/../lib/gcc/pic32mx/3.4.4/../../../../pic32mx/lib/speed\libmchp_peripheral_32MX795F512H.a(int_tbl_lib.o)
 .comment       0x00002230       0x50 E:/Olimex/Compilers/Microchip/MPLAB C32 1_11B/bin/../lib/gcc/pic32mx/3.4.4/../../../../pic32mx/lib/speed\libmchp_peripheral_32MX795F512H.a(rtcc_alarm_disable_lib.o)
 .comment       0x00002280       0x50 E:/Olimex/Compilers/Microchip/MPLAB C32 1_11B/bin/../lib/gcc/pic32mx/3.4.4/../../../../pic32mx/lib/speed\libmchp_peripheral_32MX795F512H.a(rtcc_alarm_enable_lib.o)
 .comment       0x000022d0       0x50 E:/Olimex/Compilers/Microchip/MPLAB C32 1_11B/bin/../lib/gcc/pic32mx/3.4.4/../../../../pic32mx/lib/speed\libmchp_peripheral_32MX795F512H.a(rtcc_chime_enable_lib.o)
 .comment       0x00002320       0x50 E:/Olimex/Compilers/Microchip/MPLAB C32 1_11B/bin/../lib/gcc/pic32mx/3.4.4/../../../../pic32mx/lib/speed\libmchp_peripheral_32MX795F512H.a(rtcc_init_lib.o)
 .comment       0x00002370       0x50 E:/Olimex/Compilers/Microchip/MPLAB C32 1_11B/bin/../lib/gcc/pic32mx/3.4.4/../../../../pic32mx/lib/speed\libmchp_peripheral_32MX795F512H.a(rtcc_set_alarm_rpt_count_lib.o)
 .comment       0x000023c0       0x50 E:/Olimex/Compilers/Microchip/MPLAB C32 1_11B/bin/../lib/gcc/pic32mx/3.4.4/../../../../pic32mx/lib/speed\libmchp_peripheral_32MX795F512H.a(rtcc_set_alarm_rpt_lib.o)
 .comment       0x00002410       0x50 E:/Olimex/Compilers/Microchip/MPLAB C32 1_11B/bin/../lib/gcc/pic32mx/3.4.4/../../../../pic32mx/lib/speed\libmchp_peripheral_32MX795F512H.a(rtcc_set_alarm_time_date_lib.o)
 .comment       0x00002460       0x50 E:/Olimex/Compilers/Microchip/MPLAB C32 1_11B/bin/../lib/gcc/pic32mx/3.4.4/../../../../pic32mx/lib/speed\libmchp_peripheral_32MX795F512H.a(rtcc_set_time_date_lib.o)
 .comment       0x000024b0       0x50 E:/Olimex/Compilers/Microchip/MPLAB C32 1_11B/bin/../lib/gcc/pic32mx/3.4.4/../../../../pic32mx/lib/speed\libmchp_peripheral_32MX795F512H.a(rtcc_open_lib.o)
 .comment       0x00002500       0x50 E:/Olimex/Compilers/Microchip/MPLAB C32 1_11B/bin/../lib/gcc/pic32mx/3.4.4/../../../../pic32mx/lib/speed\libmchp_peripheral_32MX795F512H.a(spi_chn_close_lib.o)
 .comment       0x00002550       0x50 E:/Olimex/Compilers/Microchip/MPLAB C32 1_11B/bin/../lib/gcc/pic32mx/3.4.4/../../../../pic32mx/lib/speed\libmchp_peripheral_32MX795F512H.a(spi_chn_getc_lib.o)
 .comment       0x000025a0       0x50 E:/Olimex/Compilers/Microchip/MPLAB C32 1_11B/bin/../lib/gcc/pic32mx/3.4.4/../../../../pic32mx/lib/speed\libmchp_peripheral_32MX795F512H.a(spi_chn_open_lib.o)
 .comment       0x000025f0       0x50 E:/Olimex/Compilers/Microchip/MPLAB C32 1_11B/bin/../lib/gcc/pic32mx/3.4.4/../../../../pic32mx/lib/speed\libmchp_peripheral_32MX795F512H.a(spi_chn_putc_lib.o)
 .comment       0x00002640       0x50 E:/Olimex/Compilers/Microchip/MPLAB C32 1_11B/bin/../lib/gcc/pic32mx/3.4.4/../../../../pic32mx/lib/speed\libmchp_peripheral_32MX795F512H.a(spi_io_tbl_libp.o)
 .comment       0x00002690       0x50 E:/Olimex/Compilers/Microchip/MPLAB C32 1_11B/bin/../lib/gcc/pic32mx/3.4.4/../../../../pic32mx/lib/speed\libmchp_peripheral_32MX795F512H.a(spi_map_tbl_libp.o)
 .comment       0x000026e0       0x50 E:/Olimex/Compilers/Microchip/MPLAB C32 1_11B/bin/../lib/gcc/pic32mx/3.4.4/../../../../pic32mx/lib/speed\libmchp_peripheral_32MX795F512H.a(power_sleep_lib.o)
 .comment       0x00002730       0x50 E:/Olimex/Compilers/Microchip/MPLAB C32 1_11B/bin/../lib/gcc/pic32mx/3.4.4/../../../../pic32mx/lib/speed\libmchp_peripheral_32MX795F512H.a(nvm_erase_page_lib.o)
 .comment       0x00002780       0x50 E:/Olimex/Compilers/Microchip/MPLAB C32 1_11B/bin/../lib/gcc/pic32mx/3.4.4/../../../../pic32mx/lib/speed\libmchp_peripheral_32MX795F512H.a(nvm_operation_lib.o)
 .comment       0x000027d0       0x50 E:/Olimex/Compilers/Microchip/MPLAB C32 1_11B/bin/../lib/gcc/pic32mx/3.4.4/../../../../pic32mx/lib/speed\libmchp_peripheral_32MX795F512H.a(nvm_write_row_lib.o)
 .comment       0x00002820       0x50 E:/Olimex/Compilers/Microchip/MPLAB C32 1_11B/bin/../lib/gcc/pic32mx/3.4.4/../../../../pic32mx/lib/speed\libmchp_peripheral_32MX795F512H.a(nvm_write_word_lib.o)
 .comment       0x00002870       0x50 E:/Olimex/Compilers/Microchip/MPLAB C32 1_11B/bin/../lib/gcc/pic32mx/3.4.4/../../../../pic32mx/lib/speed\libmchp_peripheral_32MX795F512H.a(dma_chn_open_lib.o)
 .comment       0x000028c0       0x50 E:/Olimex/Compilers/Microchip/MPLAB C32 1_11B/bin/../lib/gcc/pic32mx/3.4.4/../../../../pic32mx/lib/speed\libmchp_peripheral_32MX795F512H.a(dma_chn_enable_lib.o)
 .comment       0x00002910       0x50 E:/Olimex/Compilers/Microchip/MPLAB C32 1_11B/bin/../lib/gcc/pic32mx/3.4.4/../../../../pic32mx/lib/speed\libmchp_peripheral_32MX795F512H.a(dma_chn_set_control_flags_lib.o)
 .comment       0x00002960       0x50 E:/Olimex/Compilers/Microchip/MPLAB C32 1_11B/bin/../lib/gcc/pic32mx/3.4.4/../../../../pic32mx/lib/speed\libmchp_peripheral_32MX795F512H.a(dma_chn_write_event_control_flags_lib.o)
 .comment       0x000029b0       0x50 E:/Olimex/Compilers/Microchip/MPLAB C32 1_11B/bin/../lib/gcc/pic32mx/3.4.4/../../../../pic32mx/lib/speed\libmchp_peripheral_32MX795F512H.a(dma_chn_set_txfer_lib.o)
 .comment       0x00002a00       0x50 E:/Olimex/Compilers/Microchip/MPLAB C32 1_11B/bin/../lib/gcc/pic32mx/3.4.4/../../../../pic32mx/lib/speed\libmchp_peripheral_32MX795F512H.a(dma_reg_map_tbl_lib.o)
 .comment       0x00002a50       0x50 E:/Olimex/Compilers/Microchip/MPLAB C32 1_11B/bin/../lib/gcc/pic32mx/3.4.4/../../../../pic32mx/lib/speed\libmchp_peripheral_32MX795F512H.a(port_reset_pins_lib.o)
 .comment       0x00002aa0       0x50 E:/Olimex/Compilers/Microchip/MPLAB C32 1_11B/bin/../lib/gcc/pic32mx/3.4.4/../../../../pic32mx/lib/speed\libmchp_peripheral_32MX795F512H.a(port_set_pins_digital_in_lib.o)
 .comment       0x00002af0       0x50 E:/Olimex/Compilers/Microchip/MPLAB C32 1_11B/bin/../lib/gcc/pic32mx/3.4.4/../../../../pic32mx/lib/speed\libmchp_peripheral_32MX795F512H.a(port_set_pins_digital_out_lib.o)
 .comment       0x00002b40       0x50 E:/Olimex/Compilers/Microchip/MPLAB C32 1_11B/bin/../lib/gcc/pic32mx/3.4.4/../../../../pic32mx/lib/speed\libmchp_peripheral_32MX795F512H.a(_ports_tbl_libp.o)
 .comment       0x00002b90       0x50 E:/Olimex/Compilers/Microchip/MPLAB C32 1_11B/bin/../lib/gcc/pic32mx/3.4.4/../../../../pic32mx/lib/speed\libmchp_peripheral_32MX795F512H.a(uart_lib.o)
 .comment       0x00002be0       0x50 E:/Olimex/Compilers/Microchip/MPLAB C32 1_11B/bin/../lib/gcc/pic32mx/3.4.4/../../../../pic32mx/lib/speed\libmchp_peripheral_32MX795F512H.a(I2CByteWasAcknowledged.o)
 .comment       0x00002c30       0x50 E:/Olimex/Compilers/Microchip/MPLAB C32 1_11B/bin/../lib/gcc/pic32mx/3.4.4/../../../../pic32mx/lib/speed\libmchp_peripheral_32MX795F512H.a(I2CConfigure.o)
 .comment       0x00002c80       0x50 E:/Olimex/Compilers/Microchip/MPLAB C32 1_11B/bin/../lib/gcc/pic32mx/3.4.4/../../../../pic32mx/lib/speed\libmchp_peripheral_32MX795F512H.a(I2CEnable.o)
 .comment       0x00002cd0       0x50 E:/Olimex/Compilers/Microchip/MPLAB C32 1_11B/bin/../lib/gcc/pic32mx/3.4.4/../../../../pic32mx/lib/speed\libmchp_peripheral_32MX795F512H.a(I2CGetByte.o)
 .comment       0x00002d20       0x50 E:/Olimex/Compilers/Microchip/MPLAB C32 1_11B/bin/../lib/gcc/pic32mx/3.4.4/../../../../pic32mx/lib/speed\libmchp_peripheral_32MX795F512H.a(I2CReceivedDataIsAvailable.o)
 .comment       0x00002d70       0x50 E:/Olimex/Compilers/Microchip/MPLAB C32 1_11B/bin/../lib/gcc/pic32mx/3.4.4/../../../../pic32mx/lib/speed\libmchp_peripheral_32MX795F512H.a(I2CReceiverEnable.o)
 .comment       0x00002dc0       0x50 E:/Olimex/Compilers/Microchip/MPLAB C32 1_11B/bin/../lib/gcc/pic32mx/3.4.4/../../../../pic32mx/lib/speed\libmchp_peripheral_32MX795F512H.a(I2CRepeatStart.o)
 .comment       0x00002e10       0x50 E:/Olimex/Compilers/Microchip/MPLAB C32 1_11B/bin/../lib/gcc/pic32mx/3.4.4/../../../../pic32mx/lib/speed\libmchp_peripheral_32MX795F512H.a(I2CSendByte.o)
 .comment       0x00002e60       0x50 E:/Olimex/Compilers/Microchip/MPLAB C32 1_11B/bin/../lib/gcc/pic32mx/3.4.4/../../../../pic32mx/lib/speed\libmchp_peripheral_32MX795F512H.a(I2CSetFrequency.o)
 .comment       0x00002eb0       0x50 E:/Olimex/Compilers/Microchip/MPLAB C32 1_11B/bin/../lib/gcc/pic32mx/3.4.4/../../../../pic32mx/lib/speed\libmchp_peripheral_32MX795F512H.a(I2CStart.o)
 .comment       0x00002f00       0x50 E:/Olimex/Compilers/Microchip/MPLAB C32 1_11B/bin/../lib/gcc/pic32mx/3.4.4/../../../../pic32mx/lib/speed\libmchp_peripheral_32MX795F512H.a(I2CStop.o)
 .comment       0x00002f50       0x50 E:/Olimex/Compilers/Microchip/MPLAB C32 1_11B/bin/../lib/gcc/pic32mx/3.4.4/../../../../pic32mx/lib/speed\libmchp_peripheral_32MX795F512H.a(_rtcc_set_alrm_time_and_date_lib.o)
 .comment       0x00002fa0       0x50 E:/Olimex/Compilers/Microchip/MPLAB C32 1_11B/bin/../lib/gcc/pic32mx/3.4.4/../../../../pic32mx/lib/speed\libmchp_peripheral_32MX795F512H.a(_rtcc_set_time_and_date_lib.o)
 .comment       0x00002ff0       0x50 E:/Olimex/Compilers/Microchip/MPLAB C32 1_11B/bin/../lib/gcc/pic32mx/3.4.4/../../../../pic32mx/lib/speed\libmchp_peripheral_32MX795F512H.a(_rtcc_write_in_alarm_window_lib.o)
 .comment       0x00003040       0x50 E:/Olimex/Compilers/Microchip/MPLAB C32 1_11B/bin/../lib/gcc/pic32mx/3.4.4/../../../../pic32mx/lib/speed\libmchp_peripheral_32MX795F512H.a(_rtcc_wait_clock_off_lib.o)
 .comment       0x00003090       0x50 E:/Olimex/Compilers/Microchip/MPLAB C32 1_11B/bin/../lib/gcc/pic32mx/3.4.4/../../../../pic32mx/lib/speed\libmchp_peripheral_32MX795F512H.a(I2CPrivate.o)
 .comment       0x000030e0       0x50 E:/Olimex/Compilers/Microchip/MPLAB C32 1_11B/bin/../lib/gcc/pic32mx/3.4.4/../../../../pic32mx/lib/speed\libc.a(isinf.o)
 .comment       0x00003130       0x50 E:/Olimex/Compilers/Microchip/MPLAB C32 1_11B/bin/../lib/gcc/pic32mx/3.4.4/speed\libgcc.a(_udivdi3.o)
 .comment       0x00003180       0x50 E:/Olimex/Compilers/Microchip/MPLAB C32 1_11B/bin/../lib/gcc/pic32mx/3.4.4/speed\libgcc.a(_umoddi3.o)

.debug
 *(.debug)

.line
 *(.line)

.debug_srcinfo
 *(.debug_srcinfo)

.debug_sfnames
 *(.debug_sfnames)

.debug_aranges  0x00000000     0x1000
 *(.debug_aranges)
 .debug_aranges
                0x00000000       0x28 E:/Olimex/Compilers/Microchip/MPLAB C32 1_11B/bin/../lib/gcc/pic32mx/3.4.4/../../../../pic32mx/lib/speed\libc.a(strcat.o)
 .debug_aranges
                0x00000028       0x28 E:/Olimex/Compilers/Microchip/MPLAB C32 1_11B/bin/../lib/gcc/pic32mx/3.4.4/../../../../pic32mx/lib/speed\libc.a(strncmp.o)
 .debug_aranges
                0x00000050       0x28 E:/Olimex/Compilers/Microchip/MPLAB C32 1_11B/bin/../lib/gcc/pic32mx/3.4.4/../../../../pic32mx/lib/speed\libc.a(strncpy.o)
 .debug_aranges
                0x00000078       0x28 E:/Olimex/Compilers/Microchip/MPLAB C32 1_11B/bin/../lib/gcc/pic32mx/3.4.4/../../../../pic32mx/lib/speed\libc.a(strchr.o)
 .debug_aranges
                0x000000a0       0x28 E:/Olimex/Compilers/Microchip/MPLAB C32 1_11B/bin/../lib/gcc/pic32mx/3.4.4/../../../../pic32mx/lib/speed\libc.a(memmove.o)
 .debug_aranges
                0x000000c8       0x28 E:/Olimex/Compilers/Microchip/MPLAB C32 1_11B/bin/../lib/gcc/pic32mx/3.4.4/../../../../pic32mx/lib/speed\libc.a(exit.o)
 .debug_aranges
                0x000000f0       0xa8 E:/Olimex/Compilers/Microchip/MPLAB C32 1_11B/bin/../lib/gcc/pic32mx/3.4.4/../../../../pic32mx/lib/speed\libc.a(ctypef.o)
 .debug_aranges
                0x00000198       0x38 E:/Olimex/Compilers/Microchip/MPLAB C32 1_11B/bin/../lib/gcc/pic32mx/3.4.4/../../../../pic32mx/lib/speed\libc.a(malloc.o)
 .debug_aranges
                0x000001d0       0x28 E:/Olimex/Compilers/Microchip/MPLAB C32 1_11B/bin/../lib/gcc/pic32mx/3.4.4/../../../../pic32mx/lib/speed\libc.a(malloc_calloc.o)
 .debug_aranges
                0x000001f8       0x38 E:/Olimex/Compilers/Microchip/MPLAB C32 1_11B/bin/../lib/gcc/pic32mx/3.4.4/../../../../pic32mx/lib/speed\libc.a(rand.o)
 .debug_aranges
                0x00000230       0x28 E:/Olimex/Compilers/Microchip/MPLAB C32 1_11B/bin/../lib/gcc/pic32mx/3.4.4/../../../../pic32mx/lib/speed\libc.a(strtol.o)
 .debug_aranges
                0x00000258       0x28 E:/Olimex/Compilers/Microchip/MPLAB C32 1_11B/bin/../lib/gcc/pic32mx/3.4.4/../../../../pic32mx/lib/speed\libc.a(strtod.o)
 .debug_aranges
                0x00000280       0x28 E:/Olimex/Compilers/Microchip/MPLAB C32 1_11B/bin/../lib/gcc/pic32mx/3.4.4/../../../../pic32mx/lib/speed\libc.a(sprintf.o)
 .debug_aranges
                0x000002a8       0x28 E:/Olimex/Compilers/Microchip/MPLAB C32 1_11B/bin/../lib/gcc/pic32mx/3.4.4/../../../../pic32mx/lib/speed\libc.a(__vsnprintf.o)
 .debug_aranges
                0x000002d0       0xd0 E:/Olimex/Compilers/Microchip/MPLAB C32 1_11B/bin/../lib/gcc/pic32mx/3.4.4/../../../../pic32mx/lib/speed\libc.a(stubs.o)
 .debug_aranges
                0x000003a0       0x48 E:/Olimex/Compilers/Microchip/MPLAB C32 1_11B/bin/../lib/gcc/pic32mx/3.4.4/../../../../pic32mx/lib/speed\libc.a(sbrk.o)
 .debug_aranges
                0x000003e8       0x28 E:/Olimex/Compilers/Microchip/MPLAB C32 1_11B/bin/../lib/gcc/pic32mx/3.4.4/../../../../pic32mx/lib/speed\libc.a(default-bootstrap-exception-handler.o)
 .debug_aranges
                0x00000410       0x28 E:/Olimex/Compilers/Microchip/MPLAB C32 1_11B/bin/../lib/gcc/pic32mx/3.4.4/../../../../pic32mx/lib/speed\libc.a(default-on-reset.o)
 .debug_aranges
                0x00000438       0x28 E:/Olimex/Compilers/Microchip/MPLAB C32 1_11B/bin/../lib/gcc/pic32mx/3.4.4/../../../../pic32mx/lib/speed\libc.a(default-on-bootstrap.o)
 .debug_aranges
                0x00000460       0x28 E:/Olimex/Compilers/Microchip/MPLAB C32 1_11B/bin/../lib/gcc/pic32mx/3.4.4/../../../../pic32mx/lib/speed\libc.a(_exit.o)
 .debug_aranges
                0x00000488       0x50 E:/Olimex/Compilers/Microchip/MPLAB C32 1_11B/bin/../lib/gcc/pic32mx/3.4.4/../../../../pic32mx/lib/speed\libc.a(_doprnt.o)
 .debug_aranges
                0x000004d8       0x50 E:/Olimex/Compilers/Microchip/MPLAB C32 1_11B/bin/../lib/gcc/pic32mx/3.4.4/../../../../pic32mx/lib/speed\libc.a(_iobfuncs.o)
 .debug_aranges
                0x00000528       0x48 E:/Olimex/Compilers/Microchip/MPLAB C32 1_11B/bin/../lib/gcc/pic32mx/3.4.4/../../../../pic32mx/lib/speed\libc.a(_iobstring.o)
 .debug_aranges
                0x00000570       0x38 E:/Olimex/Compilers/Microchip/MPLAB C32 1_11B/bin/../lib/gcc/pic32mx/3.4.4/../../../../pic32mx/lib/speed\libc.a(fputc.o)
 .debug_aranges
                0x000005a8       0x28 E:/Olimex/Compilers/Microchip/MPLAB C32 1_11B/bin/../lib/gcc/pic32mx/3.4.4/../../../../pic32mx/lib/speed\libc.a(_mon_getc.o)
 .debug_aranges
                0x000005d0       0x28 E:/Olimex/Compilers/Microchip/MPLAB C32 1_11B/bin/../lib/gcc/pic32mx/3.4.4/../../../../pic32mx/lib/speed\libc.a(_mon_write.o)
 .debug_aranges
                0x000005f8       0x28 E:/Olimex/Compilers/Microchip/MPLAB C32 1_11B/bin/../lib/gcc/pic32mx/3.4.4/../../../../pic32mx/lib/speed\libc.a(fullexit.o)
 .debug_aranges
                0x00000620       0x28 E:/Olimex/Compilers/Microchip/MPLAB C32 1_11B/bin/../lib/gcc/pic32mx/3.4.4/../../../../pic32mx/lib/speed\libc.a(_mon_putc.o)
 .debug_aranges
                0x00000648       0x28 E:/Olimex/Compilers/Microchip/MPLAB C32 1_11B/bin/../lib/gcc/pic32mx/3.4.4/../../../../pic32mx/lib/speed\libm.a(w_pow.o)
 .debug_aranges
                0x00000670       0x28 E:/Olimex/Compilers/Microchip/MPLAB C32 1_11B/bin/../lib/gcc/pic32mx/3.4.4/../../../../pic32mx/lib/speed\libm.a(w_sqrtf.o)
 .debug_aranges
                0x00000698       0x28 E:/Olimex/Compilers/Microchip/MPLAB C32 1_11B/bin/../lib/gcc/pic32mx/3.4.4/../../../../pic32mx/lib/speed\libm.a(w_logf.o)
 .debug_aranges
                0x000006c0       0x28 E:/Olimex/Compilers/Microchip/MPLAB C32 1_11B/bin/../lib/gcc/pic32mx/3.4.4/../../../../pic32mx/lib/speed\libm.a(w_expf.o)
 .debug_aranges
                0x000006e8       0x28 E:/Olimex/Compilers/Microchip/MPLAB C32 1_11B/bin/../lib/gcc/pic32mx/3.4.4/../../../../pic32mx/lib/speed\libe.a(_strtod.o)
 .debug_aranges
                0x00000710       0x28 E:/Olimex/Compilers/Microchip/MPLAB C32 1_11B/bin/../lib/gcc/pic32mx/3.4.4/../../../../pic32mx/lib/speed\libe.a(_ldexp.o)
 .debug_aranges
                0x00000738       0x28 E:/Olimex/Compilers/Microchip/MPLAB C32 1_11B/bin/../lib/gcc/pic32mx/3.4.4/../../../../pic32mx/lib/speed\libmchp_peripheral.a(read_core_timer_lib.o)
 .debug_aranges
                0x00000760       0x28 E:/Olimex/Compilers/Microchip/MPLAB C32 1_11B/bin/../lib/gcc/pic32mx/3.4.4/../../../../pic32mx/lib/speed\libmchp_peripheral.a(write_core_timer_lib.o)
 .debug_aranges
                0x00000788       0x28 E:/Olimex/Compilers/Microchip/MPLAB C32 1_11B/bin/../lib/gcc/pic32mx/3.4.4/../../../../pic32mx/lib/speed\libmchp_peripheral_32MX795F512H.a(soft_reset_lib.o)
 .debug_aranges
                0x000007b0       0x30 E:/Olimex/Compilers/Microchip/MPLAB C32 1_11B/bin/../lib/gcc/pic32mx/3.4.4/../../../../pic32mx/lib/speed\libmchp_peripheral_32MX795F512H.a(pcache.o)
 .debug_aranges
                0x000007e0       0x28 E:/Olimex/Compilers/Microchip/MPLAB C32 1_11B/bin/../lib/gcc/pic32mx/3.4.4/../../../../pic32mx/lib/speed\libmchp_peripheral_32MX795F512H.a(int_enable_interrupts_lib.o)
 .debug_aranges
                0x00000808       0x28 E:/Olimex/Compilers/Microchip/MPLAB C32 1_11B/bin/../lib/gcc/pic32mx/3.4.4/../../../../pic32mx/lib/speed\libmchp_peripheral_32MX795F512H.a(int_disable_interrupts_lib.o)
 .debug_aranges
                0x00000830       0x28 E:/Olimex/Compilers/Microchip/MPLAB C32 1_11B/bin/../lib/gcc/pic32mx/3.4.4/../../../../pic32mx/lib/speed\libmchp_peripheral_32MX795F512H.a(int_restore_interrupts_lib.o)
 .debug_aranges
                0x00000858       0x28 E:/Olimex/Compilers/Microchip/MPLAB C32 1_11B/bin/../lib/gcc/pic32mx/3.4.4/../../../../pic32mx/lib/speed\libmchp_peripheral_32MX795F512H.a(int_enable_mv_int_lib.o)
 .debug_aranges
                0x00000880       0x68 E:/Olimex/Compilers/Microchip/MPLAB C32 1_11B/bin/../lib/gcc/pic32mx/3.4.4/../../../../pic32mx/lib/speed\libmchp_peripheral_32MX795F512H.a(int_tbl_lib.o)
 .debug_aranges
                0x000008e8       0x28 E:/Olimex/Compilers/Microchip/MPLAB C32 1_11B/bin/../lib/gcc/pic32mx/3.4.4/../../../../pic32mx/lib/speed\libmchp_peripheral_32MX795F512H.a(rtcc_alarm_disable_lib.o)
 .debug_aranges
                0x00000910       0x28 E:/Olimex/Compilers/Microchip/MPLAB C32 1_11B/bin/../lib/gcc/pic32mx/3.4.4/../../../../pic32mx/lib/speed\libmchp_peripheral_32MX795F512H.a(rtcc_alarm_enable_lib.o)
 .debug_aranges
                0x00000938       0x28 E:/Olimex/Compilers/Microchip/MPLAB C32 1_11B/bin/../lib/gcc/pic32mx/3.4.4/../../../../pic32mx/lib/speed\libmchp_peripheral_32MX795F512H.a(rtcc_chime_enable_lib.o)
 .debug_aranges
                0x00000960       0x28 E:/Olimex/Compilers/Microchip/MPLAB C32 1_11B/bin/../lib/gcc/pic32mx/3.4.4/../../../../pic32mx/lib/speed\libmchp_peripheral_32MX795F512H.a(rtcc_init_lib.o)
 .debug_aranges
                0x00000988       0x28 E:/Olimex/Compilers/Microchip/MPLAB C32 1_11B/bin/../lib/gcc/pic32mx/3.4.4/../../../../pic32mx/lib/speed\libmchp_peripheral_32MX795F512H.a(rtcc_set_alarm_rpt_count_lib.o)
 .debug_aranges
                0x000009b0       0x28 E:/Olimex/Compilers/Microchip/MPLAB C32 1_11B/bin/../lib/gcc/pic32mx/3.4.4/../../../../pic32mx/lib/speed\libmchp_peripheral_32MX795F512H.a(rtcc_set_alarm_rpt_lib.o)
 .debug_aranges
                0x000009d8       0x28 E:/Olimex/Compilers/Microchip/MPLAB C32 1_11B/bin/../lib/gcc/pic32mx/3.4.4/../../../../pic32mx/lib/speed\libmchp_peripheral_32MX795F512H.a(rtcc_set_alarm_time_date_lib.o)
 .debug_aranges
                0x00000a00       0x28 E:/Olimex/Compilers/Microchip/MPLAB C32 1_11B/bin/../lib/gcc/pic32mx/3.4.4/../../../../pic32mx/lib/speed\libmchp_peripheral_32MX795F512H.a(rtcc_set_time_date_lib.o)
 .debug_aranges
                0x00000a28       0x28 E:/Olimex/Compilers/Microchip/MPLAB C32 1_11B/bin/../lib/gcc/pic32mx/3.4.4/../../../../pic32mx/lib/speed\libmchp_peripheral_32MX795F512H.a(rtcc_open_lib.o)
 .debug_aranges
                0x00000a50       0x28 E:/Olimex/Compilers/Microchip/MPLAB C32 1_11B/bin/../lib/gcc/pic32mx/3.4.4/../../../../pic32mx/lib/speed\libmchp_peripheral_32MX795F512H.a(spi_chn_close_lib.o)
 .debug_aranges
                0x00000a78       0x30 E:/Olimex/Compilers/Microchip/MPLAB C32 1_11B/bin/../lib/gcc/pic32mx/3.4.4/../../../../pic32mx/lib/speed\libmchp_peripheral_32MX795F512H.a(spi_chn_getc_lib.o)
 .debug_aranges
                0x00000aa8       0x28 E:/Olimex/Compilers/Microchip/MPLAB C32 1_11B/bin/../lib/gcc/pic32mx/3.4.4/../../../../pic32mx/lib/speed\libmchp_peripheral_32MX795F512H.a(spi_chn_open_lib.o)
 .debug_aranges
                0x00000ad0       0x38 E:/Olimex/Compilers/Microchip/MPLAB C32 1_11B/bin/../lib/gcc/pic32mx/3.4.4/../../../../pic32mx/lib/speed\libmchp_peripheral_32MX795F512H.a(spi_chn_putc_lib.o)
 .debug_aranges
                0x00000b08       0x28 E:/Olimex/Compilers/Microchip/MPLAB C32 1_11B/bin/../lib/gcc/pic32mx/3.4.4/../../../../pic32mx/lib/speed\libmchp_peripheral_32MX795F512H.a(power_sleep_lib.o)
 .debug_aranges
                0x00000b30       0x28 E:/Olimex/Compilers/Microchip/MPLAB C32 1_11B/bin/../lib/gcc/pic32mx/3.4.4/../../../../pic32mx/lib/speed\libmchp_peripheral_32MX795F512H.a(nvm_erase_page_lib.o)
 .debug_aranges
                0x00000b58       0x28 E:/Olimex/Compilers/Microchip/MPLAB C32 1_11B/bin/../lib/gcc/pic32mx/3.4.4/../../../../pic32mx/lib/speed\libmchp_peripheral_32MX795F512H.a(nvm_operation_lib.o)
 .debug_aranges
                0x00000b80       0x28 E:/Olimex/Compilers/Microchip/MPLAB C32 1_11B/bin/../lib/gcc/pic32mx/3.4.4/../../../../pic32mx/lib/speed\libmchp_peripheral_32MX795F512H.a(nvm_write_row_lib.o)
 .debug_aranges
                0x00000ba8       0x28 E:/Olimex/Compilers/Microchip/MPLAB C32 1_11B/bin/../lib/gcc/pic32mx/3.4.4/../../../../pic32mx/lib/speed\libmchp_peripheral_32MX795F512H.a(nvm_write_word_lib.o)
 .debug_aranges
                0x00000bd0       0x28 E:/Olimex/Compilers/Microchip/MPLAB C32 1_11B/bin/../lib/gcc/pic32mx/3.4.4/../../../../pic32mx/lib/speed\libmchp_peripheral_32MX795F512H.a(dma_chn_open_lib.o)
 .debug_aranges
                0x00000bf8       0x28 E:/Olimex/Compilers/Microchip/MPLAB C32 1_11B/bin/../lib/gcc/pic32mx/3.4.4/../../../../pic32mx/lib/speed\libmchp_peripheral_32MX795F512H.a(dma_chn_enable_lib.o)
 .debug_aranges
                0x00000c20       0x28 E:/Olimex/Compilers/Microchip/MPLAB C32 1_11B/bin/../lib/gcc/pic32mx/3.4.4/../../../../pic32mx/lib/speed\libmchp_peripheral_32MX795F512H.a(dma_chn_set_control_flags_lib.o)
 .debug_aranges
                0x00000c48       0x28 E:/Olimex/Compilers/Microchip/MPLAB C32 1_11B/bin/../lib/gcc/pic32mx/3.4.4/../../../../pic32mx/lib/speed\libmchp_peripheral_32MX795F512H.a(dma_chn_write_event_control_flags_lib.o)
 .debug_aranges
                0x00000c70       0x28 E:/Olimex/Compilers/Microchip/MPLAB C32 1_11B/bin/../lib/gcc/pic32mx/3.4.4/../../../../pic32mx/lib/speed\libmchp_peripheral_32MX795F512H.a(dma_chn_set_txfer_lib.o)
 .debug_aranges
                0x00000c98       0x28 E:/Olimex/Compilers/Microchip/MPLAB C32 1_11B/bin/../lib/gcc/pic32mx/3.4.4/../../../../pic32mx/lib/speed\libmchp_peripheral_32MX795F512H.a(port_reset_pins_lib.o)
 .debug_aranges
                0x00000cc0       0x28 E:/Olimex/Compilers/Microchip/MPLAB C32 1_11B/bin/../lib/gcc/pic32mx/3.4.4/../../../../pic32mx/lib/speed\libmchp_peripheral_32MX795F512H.a(port_set_pins_digital_in_lib.o)
 .debug_aranges
                0x00000ce8       0x28 E:/Olimex/Compilers/Microchip/MPLAB C32 1_11B/bin/../lib/gcc/pic32mx/3.4.4/../../../../pic32mx/lib/speed\libmchp_peripheral_32MX795F512H.a(port_set_pins_digital_out_lib.o)
 .debug_aranges
                0x00000d10       0x60 E:/Olimex/Compilers/Microchip/MPLAB C32 1_11B/bin/../lib/gcc/pic32mx/3.4.4/../../../../pic32mx/lib/speed\libmchp_peripheral_32MX795F512H.a(uart_lib.o)
 .debug_aranges
                0x00000d70       0x28 E:/Olimex/Compilers/Microchip/MPLAB C32 1_11B/bin/../lib/gcc/pic32mx/3.4.4/../../../../pic32mx/lib/speed\libmchp_peripheral_32MX795F512H.a(I2CByteWasAcknowledged.o)
 .debug_aranges
                0x00000d98       0x28 E:/Olimex/Compilers/Microchip/MPLAB C32 1_11B/bin/../lib/gcc/pic32mx/3.4.4/../../../../pic32mx/lib/speed\libmchp_peripheral_32MX795F512H.a(I2CConfigure.o)
 .debug_aranges
                0x00000dc0       0x28 E:/Olimex/Compilers/Microchip/MPLAB C32 1_11B/bin/../lib/gcc/pic32mx/3.4.4/../../../../pic32mx/lib/speed\libmchp_peripheral_32MX795F512H.a(I2CEnable.o)
 .debug_aranges
                0x00000de8       0x28 E:/Olimex/Compilers/Microchip/MPLAB C32 1_11B/bin/../lib/gcc/pic32mx/3.4.4/../../../../pic32mx/lib/speed\libmchp_peripheral_32MX795F512H.a(I2CGetByte.o)
 .debug_aranges
                0x00000e10       0x28 E:/Olimex/Compilers/Microchip/MPLAB C32 1_11B/bin/../lib/gcc/pic32mx/3.4.4/../../../../pic32mx/lib/speed\libmchp_peripheral_32MX795F512H.a(I2CReceivedDataIsAvailable.o)
 .debug_aranges
                0x00000e38       0x28 E:/Olimex/Compilers/Microchip/MPLAB C32 1_11B/bin/../lib/gcc/pic32mx/3.4.4/../../../../pic32mx/lib/speed\libmchp_peripheral_32MX795F512H.a(I2CReceiverEnable.o)
 .debug_aranges
                0x00000e60       0x28 E:/Olimex/Compilers/Microchip/MPLAB C32 1_11B/bin/../lib/gcc/pic32mx/3.4.4/../../../../pic32mx/lib/speed\libmchp_peripheral_32MX795F512H.a(I2CRepeatStart.o)
 .debug_aranges
                0x00000e88       0x28 E:/Olimex/Compilers/Microchip/MPLAB C32 1_11B/bin/../lib/gcc/pic32mx/3.4.4/../../../../pic32mx/lib/speed\libmchp_peripheral_32MX795F512H.a(I2CSendByte.o)
 .debug_aranges
                0x00000eb0       0x28 E:/Olimex/Compilers/Microchip/MPLAB C32 1_11B/bin/../lib/gcc/pic32mx/3.4.4/../../../../pic32mx/lib/speed\libmchp_peripheral_32MX795F512H.a(I2CSetFrequency.o)
 .debug_aranges
                0x00000ed8       0x28 E:/Olimex/Compilers/Microchip/MPLAB C32 1_11B/bin/../lib/gcc/pic32mx/3.4.4/../../../../pic32mx/lib/speed\libmchp_peripheral_32MX795F512H.a(I2CStart.o)
 .debug_aranges
                0x00000f00       0x28 E:/Olimex/Compilers/Microchip/MPLAB C32 1_11B/bin/../lib/gcc/pic32mx/3.4.4/../../../../pic32mx/lib/speed\libmchp_peripheral_32MX795F512H.a(I2CStop.o)
 .debug_aranges
                0x00000f28       0x28 E:/Olimex/Compilers/Microchip/MPLAB C32 1_11B/bin/../lib/gcc/pic32mx/3.4.4/../../../../pic32mx/lib/speed\libmchp_peripheral_32MX795F512H.a(_rtcc_set_alrm_time_and_date_lib.o)
 .debug_aranges
                0x00000f50       0x28 E:/Olimex/Compilers/Microchip/MPLAB C32 1_11B/bin/../lib/gcc/pic32mx/3.4.4/../../../../pic32mx/lib/speed\libmchp_peripheral_32MX795F512H.a(_rtcc_set_time_and_date_lib.o)
 .debug_aranges
                0x00000f78       0x28 E:/Olimex/Compilers/Microchip/MPLAB C32 1_11B/bin/../lib/gcc/pic32mx/3.4.4/../../../../pic32mx/lib/speed\libmchp_peripheral_32MX795F512H.a(_rtcc_write_in_alarm_window_lib.o)
 .debug_aranges
                0x00000fa0       0x30 E:/Olimex/Compilers/Microchip/MPLAB C32 1_11B/bin/../lib/gcc/pic32mx/3.4.4/../../../../pic32mx/lib/speed\libmchp_peripheral_32MX795F512H.a(_rtcc_wait_clock_off_lib.o)
 .debug_aranges
                0x00000fd0       0x30 E:/Olimex/Compilers/Microchip/MPLAB C32 1_11B/bin/../lib/gcc/pic32mx/3.4.4/../../../../pic32mx/lib/speed\libc.a(isinf.o)

.debug_pubnames
                0x00000000     0x11ab
 *(.debug_pubnames)
 .debug_pubnames
                0x00000000       0x1d E:/Olimex/Compilers/Microchip/MPLAB C32 1_11B/bin/../lib/gcc/pic32mx/3.4.4/../../../../pic32mx/lib/speed\libc.a(strcat.o)
 .debug_pubnames
                0x0000001d       0x1e E:/Olimex/Compilers/Microchip/MPLAB C32 1_11B/bin/../lib/gcc/pic32mx/3.4.4/../../../../pic32mx/lib/speed\libc.a(strncmp.o)
 .debug_pubnames
                0x0000003b       0x1e E:/Olimex/Compilers/Microchip/MPLAB C32 1_11B/bin/../lib/gcc/pic32mx/3.4.4/../../../../pic32mx/lib/speed\libc.a(strncpy.o)
 .debug_pubnames
                0x00000059       0x1d E:/Olimex/Compilers/Microchip/MPLAB C32 1_11B/bin/../lib/gcc/pic32mx/3.4.4/../../../../pic32mx/lib/speed\libc.a(strchr.o)
 .debug_pubnames
                0x00000076       0x1e E:/Olimex/Compilers/Microchip/MPLAB C32 1_11B/bin/../lib/gcc/pic32mx/3.4.4/../../../../pic32mx/lib/speed\libc.a(memmove.o)
 .debug_pubnames
                0x00000094       0x1b E:/Olimex/Compilers/Microchip/MPLAB C32 1_11B/bin/../lib/gcc/pic32mx/3.4.4/../../../../pic32mx/lib/speed\libc.a(exit.o)
 .debug_pubnames
                0x000000af       0xe1 E:/Olimex/Compilers/Microchip/MPLAB C32 1_11B/bin/../lib/gcc/pic32mx/3.4.4/../../../../pic32mx/lib/speed\libc.a(ctypef.o)
 .debug_pubnames
                0x00000190       0x36 E:/Olimex/Compilers/Microchip/MPLAB C32 1_11B/bin/../lib/gcc/pic32mx/3.4.4/../../../../pic32mx/lib/speed\libc.a(malloc.o)
 .debug_pubnames
                0x000001c6       0x1d E:/Olimex/Compilers/Microchip/MPLAB C32 1_11B/bin/../lib/gcc/pic32mx/3.4.4/../../../../pic32mx/lib/speed\libc.a(malloc_calloc.o)
 .debug_pubnames
                0x000001e3       0x30 E:/Olimex/Compilers/Microchip/MPLAB C32 1_11B/bin/../lib/gcc/pic32mx/3.4.4/../../../../pic32mx/lib/speed\libc.a(rand.o)
 .debug_pubnames
                0x00000213       0x1d E:/Olimex/Compilers/Microchip/MPLAB C32 1_11B/bin/../lib/gcc/pic32mx/3.4.4/../../../../pic32mx/lib/speed\libc.a(strtol.o)
 .debug_pubnames
                0x00000230       0x1d E:/Olimex/Compilers/Microchip/MPLAB C32 1_11B/bin/../lib/gcc/pic32mx/3.4.4/../../../../pic32mx/lib/speed\libc.a(strtod.o)
 .debug_pubnames
                0x0000024d       0x1e E:/Olimex/Compilers/Microchip/MPLAB C32 1_11B/bin/../lib/gcc/pic32mx/3.4.4/../../../../pic32mx/lib/speed\libc.a(sprintf.o)
 .debug_pubnames
                0x0000026b       0x22 E:/Olimex/Compilers/Microchip/MPLAB C32 1_11B/bin/../lib/gcc/pic32mx/3.4.4/../../../../pic32mx/lib/speed\libc.a(__vsnprintf.o)
 .debug_pubnames
                0x0000028d      0x2da E:/Olimex/Compilers/Microchip/MPLAB C32 1_11B/bin/../lib/gcc/pic32mx/3.4.4/../../../../pic32mx/lib/speed\libc.a(stubs.o)
 .debug_pubnames
                0x00000567       0x5c E:/Olimex/Compilers/Microchip/MPLAB C32 1_11B/bin/../lib/gcc/pic32mx/3.4.4/../../../../pic32mx/lib/speed\libc.a(sbrk.o)
 .debug_pubnames
                0x000005c3       0x33 E:/Olimex/Compilers/Microchip/MPLAB C32 1_11B/bin/../lib/gcc/pic32mx/3.4.4/../../../../pic32mx/lib/speed\libc.a(default-bootstrap-exception-handler.o)
 .debug_pubnames
                0x000005f6       0x20 E:/Olimex/Compilers/Microchip/MPLAB C32 1_11B/bin/../lib/gcc/pic32mx/3.4.4/../../../../pic32mx/lib/speed\libc.a(default-on-reset.o)
 .debug_pubnames
                0x00000616       0x24 E:/Olimex/Compilers/Microchip/MPLAB C32 1_11B/bin/../lib/gcc/pic32mx/3.4.4/../../../../pic32mx/lib/speed\libc.a(default-on-bootstrap.o)
 .debug_pubnames
                0x0000063a       0x1c E:/Olimex/Compilers/Microchip/MPLAB C32 1_11B/bin/../lib/gcc/pic32mx/3.4.4/../../../../pic32mx/lib/speed\libc.a(_exit.o)
 .debug_pubnames
                0x00000656       0x2c E:/Olimex/Compilers/Microchip/MPLAB C32 1_11B/bin/../lib/gcc/pic32mx/3.4.4/../../../../pic32mx/lib/speed\libc.a(_doprnt.o)
 .debug_pubnames
                0x00000682       0x7d E:/Olimex/Compilers/Microchip/MPLAB C32 1_11B/bin/../lib/gcc/pic32mx/3.4.4/../../../../pic32mx/lib/speed\libc.a(_iobfuncs.o)
 .debug_pubnames
                0x000006ff       0x31 E:/Olimex/Compilers/Microchip/MPLAB C32 1_11B/bin/../lib/gcc/pic32mx/3.4.4/../../../../pic32mx/lib/speed\libc.a(fputc.o)
 .debug_pubnames
                0x00000730       0x20 E:/Olimex/Compilers/Microchip/MPLAB C32 1_11B/bin/../lib/gcc/pic32mx/3.4.4/../../../../pic32mx/lib/speed\libc.a(_mon_getc.o)
 .debug_pubnames
                0x00000750       0x21 E:/Olimex/Compilers/Microchip/MPLAB C32 1_11B/bin/../lib/gcc/pic32mx/3.4.4/../../../../pic32mx/lib/speed\libc.a(_mon_write.o)
 .debug_pubnames
                0x00000771       0x20 E:/Olimex/Compilers/Microchip/MPLAB C32 1_11B/bin/../lib/gcc/pic32mx/3.4.4/../../../../pic32mx/lib/speed\libc.a(fullexit.o)
 .debug_pubnames
                0x00000791       0x20 E:/Olimex/Compilers/Microchip/MPLAB C32 1_11B/bin/../lib/gcc/pic32mx/3.4.4/../../../../pic32mx/lib/speed\libc.a(_mon_putc.o)
 .debug_pubnames
                0x000007b1       0x1a E:/Olimex/Compilers/Microchip/MPLAB C32 1_11B/bin/../lib/gcc/pic32mx/3.4.4/../../../../pic32mx/lib/speed\libm.a(w_pow.o)
 .debug_pubnames
                0x000007cb       0x1c E:/Olimex/Compilers/Microchip/MPLAB C32 1_11B/bin/../lib/gcc/pic32mx/3.4.4/../../../../pic32mx/lib/speed\libm.a(w_sqrtf.o)
 .debug_pubnames
                0x000007e7       0x1b E:/Olimex/Compilers/Microchip/MPLAB C32 1_11B/bin/../lib/gcc/pic32mx/3.4.4/../../../../pic32mx/lib/speed\libm.a(w_logf.o)
 .debug_pubnames
                0x00000802       0x1b E:/Olimex/Compilers/Microchip/MPLAB C32 1_11B/bin/../lib/gcc/pic32mx/3.4.4/../../../../pic32mx/lib/speed\libm.a(w_expf.o)
 .debug_pubnames
                0x0000081d       0x1f E:/Olimex/Compilers/Microchip/MPLAB C32 1_11B/bin/../lib/gcc/pic32mx/3.4.4/../../../../pic32mx/lib/speed\libe.a(_strtod.o)
 .debug_pubnames
                0x0000083c       0x1e E:/Olimex/Compilers/Microchip/MPLAB C32 1_11B/bin/../lib/gcc/pic32mx/3.4.4/../../../../pic32mx/lib/speed\libe.a(_ldexp.o)
 .debug_pubnames
                0x0000085a       0x24 E:/Olimex/Compilers/Microchip/MPLAB C32 1_11B/bin/../lib/gcc/pic32mx/3.4.4/../../../../pic32mx/lib/speed\libmchp_peripheral.a(read_core_timer_lib.o)
 .debug_pubnames
                0x0000087e       0x25 E:/Olimex/Compilers/Microchip/MPLAB C32 1_11B/bin/../lib/gcc/pic32mx/3.4.4/../../../../pic32mx/lib/speed\libmchp_peripheral.a(write_core_timer_lib.o)
 .debug_pubnames
                0x000008a3       0x20 E:/Olimex/Compilers/Microchip/MPLAB C32 1_11B/bin/../lib/gcc/pic32mx/3.4.4/../../../../pic32mx/lib/speed\libmchp_peripheral_32MX795F512H.a(soft_reset_lib.o)
 .debug_pubnames
                0x000008c3       0x3b E:/Olimex/Compilers/Microchip/MPLAB C32 1_11B/bin/../lib/gcc/pic32mx/3.4.4/../../../../pic32mx/lib/speed\libmchp_peripheral_32MX795F512H.a(pcache.o)
 .debug_pubnames
                0x000008fe       0x2a E:/Olimex/Compilers/Microchip/MPLAB C32 1_11B/bin/../lib/gcc/pic32mx/3.4.4/../../../../pic32mx/lib/speed\libmchp_peripheral_32MX795F512H.a(int_enable_interrupts_lib.o)
 .debug_pubnames
                0x00000928       0x2b E:/Olimex/Compilers/Microchip/MPLAB C32 1_11B/bin/../lib/gcc/pic32mx/3.4.4/../../../../pic32mx/lib/speed\libmchp_peripheral_32MX795F512H.a(int_disable_interrupts_lib.o)
 .debug_pubnames
                0x00000953       0x2b E:/Olimex/Compilers/Microchip/MPLAB C32 1_11B/bin/../lib/gcc/pic32mx/3.4.4/../../../../pic32mx/lib/speed\libmchp_peripheral_32MX795F512H.a(int_restore_interrupts_lib.o)
 .debug_pubnames
                0x0000097e       0x36 E:/Olimex/Compilers/Microchip/MPLAB C32 1_11B/bin/../lib/gcc/pic32mx/3.4.4/../../../../pic32mx/lib/speed\libmchp_peripheral_32MX795F512H.a(int_enable_mv_int_lib.o)
 .debug_pubnames
                0x000009b4       0xca E:/Olimex/Compilers/Microchip/MPLAB C32 1_11B/bin/../lib/gcc/pic32mx/3.4.4/../../../../pic32mx/lib/speed\libmchp_peripheral_32MX795F512H.a(int_tbl_lib.o)
 .debug_pubnames
                0x00000a7e       0x27 E:/Olimex/Compilers/Microchip/MPLAB C32 1_11B/bin/../lib/gcc/pic32mx/3.4.4/../../../../pic32mx/lib/speed\libmchp_peripheral_32MX795F512H.a(rtcc_alarm_disable_lib.o)
 .debug_pubnames
                0x00000aa5       0x26 E:/Olimex/Compilers/Microchip/MPLAB C32 1_11B/bin/../lib/gcc/pic32mx/3.4.4/../../../../pic32mx/lib/speed\libmchp_peripheral_32MX795F512H.a(rtcc_alarm_enable_lib.o)
 .debug_pubnames
                0x00000acb       0x26 E:/Olimex/Compilers/Microchip/MPLAB C32 1_11B/bin/../lib/gcc/pic32mx/3.4.4/../../../../pic32mx/lib/speed\libmchp_peripheral_32MX795F512H.a(rtcc_chime_enable_lib.o)
 .debug_pubnames
                0x00000af1       0x1f E:/Olimex/Compilers/Microchip/MPLAB C32 1_11B/bin/../lib/gcc/pic32mx/3.4.4/../../../../pic32mx/lib/speed\libmchp_peripheral_32MX795F512H.a(rtcc_init_lib.o)
 .debug_pubnames
                0x00000b10       0x2b E:/Olimex/Compilers/Microchip/MPLAB C32 1_11B/bin/../lib/gcc/pic32mx/3.4.4/../../../../pic32mx/lib/speed\libmchp_peripheral_32MX795F512H.a(rtcc_set_alarm_rpt_count_lib.o)
 .debug_pubnames
                0x00000b3b       0x26 E:/Olimex/Compilers/Microchip/MPLAB C32 1_11B/bin/../lib/gcc/pic32mx/3.4.4/../../../../pic32mx/lib/speed\libmchp_peripheral_32MX795F512H.a(rtcc_set_alarm_rpt_lib.o)
 .debug_pubnames
                0x00000b61       0x2b E:/Olimex/Compilers/Microchip/MPLAB C32 1_11B/bin/../lib/gcc/pic32mx/3.4.4/../../../../pic32mx/lib/speed\libmchp_peripheral_32MX795F512H.a(rtcc_set_alarm_time_date_lib.o)
 .debug_pubnames
                0x00000b8c       0x26 E:/Olimex/Compilers/Microchip/MPLAB C32 1_11B/bin/../lib/gcc/pic32mx/3.4.4/../../../../pic32mx/lib/speed\libmchp_peripheral_32MX795F512H.a(rtcc_set_time_date_lib.o)
 .debug_pubnames
                0x00000bb2       0x1f E:/Olimex/Compilers/Microchip/MPLAB C32 1_11B/bin/../lib/gcc/pic32mx/3.4.4/../../../../pic32mx/lib/speed\libmchp_peripheral_32MX795F512H.a(rtcc_open_lib.o)
 .debug_pubnames
                0x00000bd1       0x22 E:/Olimex/Compilers/Microchip/MPLAB C32 1_11B/bin/../lib/gcc/pic32mx/3.4.4/../../../../pic32mx/lib/speed\libmchp_peripheral_32MX795F512H.a(spi_chn_close_lib.o)
 .debug_pubnames
                0x00000bf3       0x31 E:/Olimex/Compilers/Microchip/MPLAB C32 1_11B/bin/../lib/gcc/pic32mx/3.4.4/../../../../pic32mx/lib/speed\libmchp_peripheral_32MX795F512H.a(spi_chn_getc_lib.o)
 .debug_pubnames
                0x00000c24       0x21 E:/Olimex/Compilers/Microchip/MPLAB C32 1_11B/bin/../lib/gcc/pic32mx/3.4.4/../../../../pic32mx/lib/speed\libmchp_peripheral_32MX795F512H.a(spi_chn_open_lib.o)
 .debug_pubnames
                0x00000c45       0x43 E:/Olimex/Compilers/Microchip/MPLAB C32 1_11B/bin/../lib/gcc/pic32mx/3.4.4/../../../../pic32mx/lib/speed\libmchp_peripheral_32MX795F512H.a(spi_chn_putc_lib.o)
 .debug_pubnames
                0x00000c88       0x25 E:/Olimex/Compilers/Microchip/MPLAB C32 1_11B/bin/../lib/gcc/pic32mx/3.4.4/../../../../pic32mx/lib/speed\libmchp_peripheral_32MX795F512H.a(power_sleep_lib.o)
 .debug_pubnames
                0x00000cad       0x23 E:/Olimex/Compilers/Microchip/MPLAB C32 1_11B/bin/../lib/gcc/pic32mx/3.4.4/../../../../pic32mx/lib/speed\libmchp_peripheral_32MX795F512H.a(nvm_erase_page_lib.o)
 .debug_pubnames
                0x00000cd0       0x24 E:/Olimex/Compilers/Microchip/MPLAB C32 1_11B/bin/../lib/gcc/pic32mx/3.4.4/../../../../pic32mx/lib/speed\libmchp_peripheral_32MX795F512H.a(nvm_operation_lib.o)
 .debug_pubnames
                0x00000cf4       0x22 E:/Olimex/Compilers/Microchip/MPLAB C32 1_11B/bin/../lib/gcc/pic32mx/3.4.4/../../../../pic32mx/lib/speed\libmchp_peripheral_32MX795F512H.a(nvm_write_row_lib.o)
 .debug_pubnames
                0x00000d16       0x23 E:/Olimex/Compilers/Microchip/MPLAB C32 1_11B/bin/../lib/gcc/pic32mx/3.4.4/../../../../pic32mx/lib/speed\libmchp_peripheral_32MX795F512H.a(nvm_write_word_lib.o)
 .debug_pubnames
                0x00000d39       0x21 E:/Olimex/Compilers/Microchip/MPLAB C32 1_11B/bin/../lib/gcc/pic32mx/3.4.4/../../../../pic32mx/lib/speed\libmchp_peripheral_32MX795F512H.a(dma_chn_open_lib.o)
 .debug_pubnames
                0x00000d5a       0x23 E:/Olimex/Compilers/Microchip/MPLAB C32 1_11B/bin/../lib/gcc/pic32mx/3.4.4/../../../../pic32mx/lib/speed\libmchp_peripheral_32MX795F512H.a(dma_chn_enable_lib.o)
 .debug_pubnames
                0x00000d7d       0x2c E:/Olimex/Compilers/Microchip/MPLAB C32 1_11B/bin/../lib/gcc/pic32mx/3.4.4/../../../../pic32mx/lib/speed\libmchp_peripheral_32MX795F512H.a(dma_chn_set_control_flags_lib.o)
 .debug_pubnames
                0x00000da9       0x33 E:/Olimex/Compilers/Microchip/MPLAB C32 1_11B/bin/../lib/gcc/pic32mx/3.4.4/../../../../pic32mx/lib/speed\libmchp_peripheral_32MX795F512H.a(dma_chn_write_event_control_flags_lib.o)
 .debug_pubnames
                0x00000ddc       0x25 E:/Olimex/Compilers/Microchip/MPLAB C32 1_11B/bin/../lib/gcc/pic32mx/3.4.4/../../../../pic32mx/lib/speed\libmchp_peripheral_32MX795F512H.a(dma_chn_set_txfer_lib.o)
 .debug_pubnames
                0x00000e01       0x24 E:/Olimex/Compilers/Microchip/MPLAB C32 1_11B/bin/../lib/gcc/pic32mx/3.4.4/../../../../pic32mx/lib/speed\libmchp_peripheral_32MX795F512H.a(port_reset_pins_lib.o)
 .debug_pubnames
                0x00000e25       0x2b E:/Olimex/Compilers/Microchip/MPLAB C32 1_11B/bin/../lib/gcc/pic32mx/3.4.4/../../../../pic32mx/lib/speed\libmchp_peripheral_32MX795F512H.a(port_set_pins_digital_in_lib.o)
 .debug_pubnames
                0x00000e50       0x2c E:/Olimex/Compilers/Microchip/MPLAB C32 1_11B/bin/../lib/gcc/pic32mx/3.4.4/../../../../pic32mx/lib/speed\libmchp_peripheral_32MX795F512H.a(port_set_pins_digital_out_lib.o)
 .debug_pubnames
                0x00000e7c       0xb1 E:/Olimex/Compilers/Microchip/MPLAB C32 1_11B/bin/../lib/gcc/pic32mx/3.4.4/../../../../pic32mx/lib/speed\libmchp_peripheral_32MX795F512H.a(uart_lib.o)
 .debug_pubnames
                0x00000f2d       0x2d E:/Olimex/Compilers/Microchip/MPLAB C32 1_11B/bin/../lib/gcc/pic32mx/3.4.4/../../../../pic32mx/lib/speed\libmchp_peripheral_32MX795F512H.a(I2CByteWasAcknowledged.o)
 .debug_pubnames
                0x00000f5a       0x23 E:/Olimex/Compilers/Microchip/MPLAB C32 1_11B/bin/../lib/gcc/pic32mx/3.4.4/../../../../pic32mx/lib/speed\libmchp_peripheral_32MX795F512H.a(I2CConfigure.o)
 .debug_pubnames
                0x00000f7d       0x20 E:/Olimex/Compilers/Microchip/MPLAB C32 1_11B/bin/../lib/gcc/pic32mx/3.4.4/../../../../pic32mx/lib/speed\libmchp_peripheral_32MX795F512H.a(I2CEnable.o)
 .debug_pubnames
                0x00000f9d       0x21 E:/Olimex/Compilers/Microchip/MPLAB C32 1_11B/bin/../lib/gcc/pic32mx/3.4.4/../../../../pic32mx/lib/speed\libmchp_peripheral_32MX795F512H.a(I2CGetByte.o)
 .debug_pubnames
                0x00000fbe       0x31 E:/Olimex/Compilers/Microchip/MPLAB C32 1_11B/bin/../lib/gcc/pic32mx/3.4.4/../../../../pic32mx/lib/speed\libmchp_peripheral_32MX795F512H.a(I2CReceivedDataIsAvailable.o)
 .debug_pubnames
                0x00000fef       0x28 E:/Olimex/Compilers/Microchip/MPLAB C32 1_11B/bin/../lib/gcc/pic32mx/3.4.4/../../../../pic32mx/lib/speed\libmchp_peripheral_32MX795F512H.a(I2CReceiverEnable.o)
 .debug_pubnames
                0x00001017       0x25 E:/Olimex/Compilers/Microchip/MPLAB C32 1_11B/bin/../lib/gcc/pic32mx/3.4.4/../../../../pic32mx/lib/speed\libmchp_peripheral_32MX795F512H.a(I2CRepeatStart.o)
 .debug_pubnames
                0x0000103c       0x22 E:/Olimex/Compilers/Microchip/MPLAB C32 1_11B/bin/../lib/gcc/pic32mx/3.4.4/../../../../pic32mx/lib/speed\libmchp_peripheral_32MX795F512H.a(I2CSendByte.o)
 .debug_pubnames
                0x0000105e       0x26 E:/Olimex/Compilers/Microchip/MPLAB C32 1_11B/bin/../lib/gcc/pic32mx/3.4.4/../../../../pic32mx/lib/speed\libmchp_peripheral_32MX795F512H.a(I2CSetFrequency.o)
 .debug_pubnames
                0x00001084       0x1f E:/Olimex/Compilers/Microchip/MPLAB C32 1_11B/bin/../lib/gcc/pic32mx/3.4.4/../../../../pic32mx/lib/speed\libmchp_peripheral_32MX795F512H.a(I2CStart.o)
 .debug_pubnames
                0x000010a3       0x1e E:/Olimex/Compilers/Microchip/MPLAB C32 1_11B/bin/../lib/gcc/pic32mx/3.4.4/../../../../pic32mx/lib/speed\libmchp_peripheral_32MX795F512H.a(I2CStop.o)
 .debug_pubnames
                0x000010c1       0x2e E:/Olimex/Compilers/Microchip/MPLAB C32 1_11B/bin/../lib/gcc/pic32mx/3.4.4/../../../../pic32mx/lib/speed\libmchp_peripheral_32MX795F512H.a(_rtcc_set_alrm_time_and_date_lib.o)
 .debug_pubnames
                0x000010ef       0x2a E:/Olimex/Compilers/Microchip/MPLAB C32 1_11B/bin/../lib/gcc/pic32mx/3.4.4/../../../../pic32mx/lib/speed\libmchp_peripheral_32MX795F512H.a(_rtcc_set_time_and_date_lib.o)
 .debug_pubnames
                0x00001119       0x2e E:/Olimex/Compilers/Microchip/MPLAB C32 1_11B/bin/../lib/gcc/pic32mx/3.4.4/../../../../pic32mx/lib/speed\libmchp_peripheral_32MX795F512H.a(_rtcc_write_in_alarm_window_lib.o)
 .debug_pubnames
                0x00001147       0x3e E:/Olimex/Compilers/Microchip/MPLAB C32 1_11B/bin/../lib/gcc/pic32mx/3.4.4/../../../../pic32mx/lib/speed\libmchp_peripheral_32MX795F512H.a(_rtcc_wait_clock_off_lib.o)
 .debug_pubnames
                0x00001185       0x26 E:/Olimex/Compilers/Microchip/MPLAB C32 1_11B/bin/../lib/gcc/pic32mx/3.4.4/../../../../pic32mx/lib/speed\libc.a(isinf.o)

.debug_info     0x00000000     0x1604
 *(.debug_info .gnu.linkonce.wi.*)
 .debug_info    0x00000000       0x30 E:/Olimex/Compilers/Microchip/MPLAB C32 1_11B/bin/../lib/gcc/pic32mx/3.4.4/../../../../pic32mx/lib/speed\libc.a(strcat.o)
 .debug_info    0x00000030       0x30 E:/Olimex/Compilers/Microchip/MPLAB C32 1_11B/bin/../lib/gcc/pic32mx/3.4.4/../../../../pic32mx/lib/speed\libc.a(strncmp.o)
 .debug_info    0x00000060       0x30 E:/Olimex/Compilers/Microchip/MPLAB C32 1_11B/bin/../lib/gcc/pic32mx/3.4.4/../../../../pic32mx/lib/speed\libc.a(strncpy.o)
 .debug_info    0x00000090       0x30 E:/Olimex/Compilers/Microchip/MPLAB C32 1_11B/bin/../lib/gcc/pic32mx/3.4.4/../../../../pic32mx/lib/speed\libc.a(strchr.o)
 .debug_info    0x000000c0       0x30 E:/Olimex/Compilers/Microchip/MPLAB C32 1_11B/bin/../lib/gcc/pic32mx/3.4.4/../../../../pic32mx/lib/speed\libc.a(memmove.o)
 .debug_info    0x000000f0       0x30 E:/Olimex/Compilers/Microchip/MPLAB C32 1_11B/bin/../lib/gcc/pic32mx/3.4.4/../../../../pic32mx/lib/speed\libc.a(exit.o)
 .debug_info    0x00000120        0x0 E:/Olimex/Compilers/Microchip/MPLAB C32 1_11B/bin/../lib/gcc/pic32mx/3.4.4/../../../../pic32mx/lib/speed\libc.a(ctype.o)
 .debug_info    0x00000120      0x150 E:/Olimex/Compilers/Microchip/MPLAB C32 1_11B/bin/../lib/gcc/pic32mx/3.4.4/../../../../pic32mx/lib/speed\libc.a(ctypef.o)
 .debug_info    0x00000270       0x57 E:/Olimex/Compilers/Microchip/MPLAB C32 1_11B/bin/../lib/gcc/pic32mx/3.4.4/../../../../pic32mx/lib/speed\libc.a(malloc.o)
 .debug_info    0x000002c7       0x31 E:/Olimex/Compilers/Microchip/MPLAB C32 1_11B/bin/../lib/gcc/pic32mx/3.4.4/../../../../pic32mx/lib/speed\libc.a(malloc_calloc.o)
 .debug_info    0x000002f8       0x54 E:/Olimex/Compilers/Microchip/MPLAB C32 1_11B/bin/../lib/gcc/pic32mx/3.4.4/../../../../pic32mx/lib/speed\libc.a(rand.o)
 .debug_info    0x0000034c        0x0 E:/Olimex/Compilers/Microchip/MPLAB C32 1_11B/bin/../lib/gcc/pic32mx/3.4.4/../../../../pic32mx/lib/speed\libc.a(errno.o)
 .debug_info    0x0000034c       0x30 E:/Olimex/Compilers/Microchip/MPLAB C32 1_11B/bin/../lib/gcc/pic32mx/3.4.4/../../../../pic32mx/lib/speed\libc.a(strtol.o)
 .debug_info    0x0000037c       0x3a E:/Olimex/Compilers/Microchip/MPLAB C32 1_11B/bin/../lib/gcc/pic32mx/3.4.4/../../../../pic32mx/lib/speed\libc.a(strtod.o)
 .debug_info    0x000003b6       0x30 E:/Olimex/Compilers/Microchip/MPLAB C32 1_11B/bin/../lib/gcc/pic32mx/3.4.4/../../../../pic32mx/lib/speed\libc.a(sprintf.o)
 .debug_info    0x000003e6       0x30 E:/Olimex/Compilers/Microchip/MPLAB C32 1_11B/bin/../lib/gcc/pic32mx/3.4.4/../../../../pic32mx/lib/speed\libc.a(__vsnprintf.o)
 .debug_info    0x00000416      0x1aa E:/Olimex/Compilers/Microchip/MPLAB C32 1_11B/bin/../lib/gcc/pic32mx/3.4.4/../../../../pic32mx/lib/speed\libc.a(stubs.o)
 .debug_info    0x000005c0       0x79 E:/Olimex/Compilers/Microchip/MPLAB C32 1_11B/bin/../lib/gcc/pic32mx/3.4.4/../../../../pic32mx/lib/speed\libc.a(sbrk.o)
 .debug_info    0x00000639       0x30 E:/Olimex/Compilers/Microchip/MPLAB C32 1_11B/bin/../lib/gcc/pic32mx/3.4.4/../../../../pic32mx/lib/speed\libc.a(default-bootstrap-exception-handler.o)
 .debug_info    0x00000669       0x30 E:/Olimex/Compilers/Microchip/MPLAB C32 1_11B/bin/../lib/gcc/pic32mx/3.4.4/../../../../pic32mx/lib/speed\libc.a(default-on-reset.o)
 .debug_info    0x00000699       0x30 E:/Olimex/Compilers/Microchip/MPLAB C32 1_11B/bin/../lib/gcc/pic32mx/3.4.4/../../../../pic32mx/lib/speed\libc.a(default-on-bootstrap.o)
 .debug_info    0x000006c9       0x30 E:/Olimex/Compilers/Microchip/MPLAB C32 1_11B/bin/../lib/gcc/pic32mx/3.4.4/../../../../pic32mx/lib/speed\libc.a(_exit.o)
 .debug_info    0x000006f9       0x8a E:/Olimex/Compilers/Microchip/MPLAB C32 1_11B/bin/../lib/gcc/pic32mx/3.4.4/../../../../pic32mx/lib/speed\libc.a(_doprnt.o)
 .debug_info    0x00000783        0x0 E:/Olimex/Compilers/Microchip/MPLAB C32 1_11B/bin/../lib/gcc/pic32mx/3.4.4/../../../../pic32mx/lib/speed\libc.a(_iobdata.o)
 .debug_info    0x00000783       0x8a E:/Olimex/Compilers/Microchip/MPLAB C32 1_11B/bin/../lib/gcc/pic32mx/3.4.4/../../../../pic32mx/lib/speed\libc.a(_iobfuncs.o)
 .debug_info    0x0000080d       0x73 E:/Olimex/Compilers/Microchip/MPLAB C32 1_11B/bin/../lib/gcc/pic32mx/3.4.4/../../../../pic32mx/lib/speed\libc.a(_iobstring.o)
 .debug_info    0x00000880       0x54 E:/Olimex/Compilers/Microchip/MPLAB C32 1_11B/bin/../lib/gcc/pic32mx/3.4.4/../../../../pic32mx/lib/speed\libc.a(fputc.o)
 .debug_info    0x000008d4       0x30 E:/Olimex/Compilers/Microchip/MPLAB C32 1_11B/bin/../lib/gcc/pic32mx/3.4.4/../../../../pic32mx/lib/speed\libc.a(_mon_getc.o)
 .debug_info    0x00000904       0x30 E:/Olimex/Compilers/Microchip/MPLAB C32 1_11B/bin/../lib/gcc/pic32mx/3.4.4/../../../../pic32mx/lib/speed\libc.a(_mon_write.o)
 .debug_info    0x00000934       0x30 E:/Olimex/Compilers/Microchip/MPLAB C32 1_11B/bin/../lib/gcc/pic32mx/3.4.4/../../../../pic32mx/lib/speed\libc.a(fullexit.o)
 .debug_info    0x00000964       0x30 E:/Olimex/Compilers/Microchip/MPLAB C32 1_11B/bin/../lib/gcc/pic32mx/3.4.4/../../../../pic32mx/lib/speed\libc.a(_mon_putc.o)
 .debug_info    0x00000994       0x30 E:/Olimex/Compilers/Microchip/MPLAB C32 1_11B/bin/../lib/gcc/pic32mx/3.4.4/../../../../pic32mx/lib/speed\libm.a(w_pow.o)
 .debug_info    0x000009c4       0x30 E:/Olimex/Compilers/Microchip/MPLAB C32 1_11B/bin/../lib/gcc/pic32mx/3.4.4/../../../../pic32mx/lib/speed\libm.a(w_sqrtf.o)
 .debug_info    0x000009f4       0x30 E:/Olimex/Compilers/Microchip/MPLAB C32 1_11B/bin/../lib/gcc/pic32mx/3.4.4/../../../../pic32mx/lib/speed\libm.a(w_logf.o)
 .debug_info    0x00000a24       0x30 E:/Olimex/Compilers/Microchip/MPLAB C32 1_11B/bin/../lib/gcc/pic32mx/3.4.4/../../../../pic32mx/lib/speed\libm.a(w_expf.o)
 .debug_info    0x00000a54        0x0 E:/Olimex/Compilers/Microchip/MPLAB C32 1_11B/bin/../lib/gcc/pic32mx/3.4.4/../../../../pic32mx/lib/speed\libm.a(s_lib_ver.o)
 .debug_info    0x00000a54       0x42 E:/Olimex/Compilers/Microchip/MPLAB C32 1_11B/bin/../lib/gcc/pic32mx/3.4.4/../../../../pic32mx/lib/speed\libe.a(_strtod.o)
 .debug_info    0x00000a96       0x30 E:/Olimex/Compilers/Microchip/MPLAB C32 1_11B/bin/../lib/gcc/pic32mx/3.4.4/../../../../pic32mx/lib/speed\libe.a(_ldexp.o)
 .debug_info    0x00000ac6       0x30 E:/Olimex/Compilers/Microchip/MPLAB C32 1_11B/bin/../lib/gcc/pic32mx/3.4.4/../../../../pic32mx/lib/speed\libmchp_peripheral.a(read_core_timer_lib.o)
 .debug_info    0x00000af6       0x30 E:/Olimex/Compilers/Microchip/MPLAB C32 1_11B/bin/../lib/gcc/pic32mx/3.4.4/../../../../pic32mx/lib/speed\libmchp_peripheral.a(write_core_timer_lib.o)
 .debug_info    0x00000b26       0x30 E:/Olimex/Compilers/Microchip/MPLAB C32 1_11B/bin/../lib/gcc/pic32mx/3.4.4/../../../../pic32mx/lib/speed\libmchp_peripheral_32MX795F512H.a(soft_reset_lib.o)
 .debug_info    0x00000b56       0x42 E:/Olimex/Compilers/Microchip/MPLAB C32 1_11B/bin/../lib/gcc/pic32mx/3.4.4/../../../../pic32mx/lib/speed\libmchp_peripheral_32MX795F512H.a(pcache.o)
 .debug_info    0x00000b98       0x30 E:/Olimex/Compilers/Microchip/MPLAB C32 1_11B/bin/../lib/gcc/pic32mx/3.4.4/../../../../pic32mx/lib/speed\libmchp_peripheral_32MX795F512H.a(int_enable_interrupts_lib.o)
 .debug_info    0x00000bc8       0x30 E:/Olimex/Compilers/Microchip/MPLAB C32 1_11B/bin/../lib/gcc/pic32mx/3.4.4/../../../../pic32mx/lib/speed\libmchp_peripheral_32MX795F512H.a(int_disable_interrupts_lib.o)
 .debug_info    0x00000bf8       0x30 E:/Olimex/Compilers/Microchip/MPLAB C32 1_11B/bin/../lib/gcc/pic32mx/3.4.4/../../../../pic32mx/lib/speed\libmchp_peripheral_32MX795F512H.a(int_restore_interrupts_lib.o)
 .debug_info    0x00000c28       0x30 E:/Olimex/Compilers/Microchip/MPLAB C32 1_11B/bin/../lib/gcc/pic32mx/3.4.4/../../../../pic32mx/lib/speed\libmchp_peripheral_32MX795F512H.a(int_enable_mv_int_lib.o)
 .debug_info    0x00000c58       0xc0 E:/Olimex/Compilers/Microchip/MPLAB C32 1_11B/bin/../lib/gcc/pic32mx/3.4.4/../../../../pic32mx/lib/speed\libmchp_peripheral_32MX795F512H.a(int_tbl_lib.o)
 .debug_info    0x00000d18       0x30 E:/Olimex/Compilers/Microchip/MPLAB C32 1_11B/bin/../lib/gcc/pic32mx/3.4.4/../../../../pic32mx/lib/speed\libmchp_peripheral_32MX795F512H.a(rtcc_alarm_disable_lib.o)
 .debug_info    0x00000d48       0x30 E:/Olimex/Compilers/Microchip/MPLAB C32 1_11B/bin/../lib/gcc/pic32mx/3.4.4/../../../../pic32mx/lib/speed\libmchp_peripheral_32MX795F512H.a(rtcc_alarm_enable_lib.o)
 .debug_info    0x00000d78       0x30 E:/Olimex/Compilers/Microchip/MPLAB C32 1_11B/bin/../lib/gcc/pic32mx/3.4.4/../../../../pic32mx/lib/speed\libmchp_peripheral_32MX795F512H.a(rtcc_chime_enable_lib.o)
 .debug_info    0x00000da8       0x30 E:/Olimex/Compilers/Microchip/MPLAB C32 1_11B/bin/../lib/gcc/pic32mx/3.4.4/../../../../pic32mx/lib/speed\libmchp_peripheral_32MX795F512H.a(rtcc_init_lib.o)
 .debug_info    0x00000dd8       0x30 E:/Olimex/Compilers/Microchip/MPLAB C32 1_11B/bin/../lib/gcc/pic32mx/3.4.4/../../../../pic32mx/lib/speed\libmchp_peripheral_32MX795F512H.a(rtcc_set_alarm_rpt_count_lib.o)
 .debug_info    0x00000e08       0x30 E:/Olimex/Compilers/Microchip/MPLAB C32 1_11B/bin/../lib/gcc/pic32mx/3.4.4/../../../../pic32mx/lib/speed\libmchp_peripheral_32MX795F512H.a(rtcc_set_alarm_rpt_lib.o)
 .debug_info    0x00000e38       0x30 E:/Olimex/Compilers/Microchip/MPLAB C32 1_11B/bin/../lib/gcc/pic32mx/3.4.4/../../../../pic32mx/lib/speed\libmchp_peripheral_32MX795F512H.a(rtcc_set_alarm_time_date_lib.o)
 .debug_info    0x00000e68       0x30 E:/Olimex/Compilers/Microchip/MPLAB C32 1_11B/bin/../lib/gcc/pic32mx/3.4.4/../../../../pic32mx/lib/speed\libmchp_peripheral_32MX795F512H.a(rtcc_set_time_date_lib.o)
 .debug_info    0x00000e98       0x30 E:/Olimex/Compilers/Microchip/MPLAB C32 1_11B/bin/../lib/gcc/pic32mx/3.4.4/../../../../pic32mx/lib/speed\libmchp_peripheral_32MX795F512H.a(rtcc_open_lib.o)
 .debug_info    0x00000ec8       0x30 E:/Olimex/Compilers/Microchip/MPLAB C32 1_11B/bin/../lib/gcc/pic32mx/3.4.4/../../../../pic32mx/lib/speed\libmchp_peripheral_32MX795F512H.a(spi_chn_close_lib.o)
 .debug_info    0x00000ef8       0x42 E:/Olimex/Compilers/Microchip/MPLAB C32 1_11B/bin/../lib/gcc/pic32mx/3.4.4/../../../../pic32mx/lib/speed\libmchp_peripheral_32MX795F512H.a(spi_chn_getc_lib.o)
 .debug_info    0x00000f3a       0x30 E:/Olimex/Compilers/Microchip/MPLAB C32 1_11B/bin/../lib/gcc/pic32mx/3.4.4/../../../../pic32mx/lib/speed\libmchp_peripheral_32MX795F512H.a(spi_chn_open_lib.o)
 .debug_info    0x00000f6a       0x54 E:/Olimex/Compilers/Microchip/MPLAB C32 1_11B/bin/../lib/gcc/pic32mx/3.4.4/../../../../pic32mx/lib/speed\libmchp_peripheral_32MX795F512H.a(spi_chn_putc_lib.o)
 .debug_info    0x00000fbe        0x0 E:/Olimex/Compilers/Microchip/MPLAB C32 1_11B/bin/../lib/gcc/pic32mx/3.4.4/../../../../pic32mx/lib/speed\libmchp_peripheral_32MX795F512H.a(spi_io_tbl_libp.o)
 .debug_info    0x00000fbe        0x0 E:/Olimex/Compilers/Microchip/MPLAB C32 1_11B/bin/../lib/gcc/pic32mx/3.4.4/../../../../pic32mx/lib/speed\libmchp_peripheral_32MX795F512H.a(spi_map_tbl_libp.o)
 .debug_info    0x00000fbe       0x30 E:/Olimex/Compilers/Microchip/MPLAB C32 1_11B/bin/../lib/gcc/pic32mx/3.4.4/../../../../pic32mx/lib/speed\libmchp_peripheral_32MX795F512H.a(power_sleep_lib.o)
 .debug_info    0x00000fee       0x30 E:/Olimex/Compilers/Microchip/MPLAB C32 1_11B/bin/../lib/gcc/pic32mx/3.4.4/../../../../pic32mx/lib/speed\libmchp_peripheral_32MX795F512H.a(nvm_erase_page_lib.o)
 .debug_info    0x0000101e       0x30 E:/Olimex/Compilers/Microchip/MPLAB C32 1_11B/bin/../lib/gcc/pic32mx/3.4.4/../../../../pic32mx/lib/speed\libmchp_peripheral_32MX795F512H.a(nvm_operation_lib.o)
 .debug_info    0x0000104e       0x30 E:/Olimex/Compilers/Microchip/MPLAB C32 1_11B/bin/../lib/gcc/pic32mx/3.4.4/../../../../pic32mx/lib/speed\libmchp_peripheral_32MX795F512H.a(nvm_write_row_lib.o)
 .debug_info    0x0000107e       0x30 E:/Olimex/Compilers/Microchip/MPLAB C32 1_11B/bin/../lib/gcc/pic32mx/3.4.4/../../../../pic32mx/lib/speed\libmchp_peripheral_32MX795F512H.a(nvm_write_word_lib.o)
 .debug_info    0x000010ae       0x30 E:/Olimex/Compilers/Microchip/MPLAB C32 1_11B/bin/../lib/gcc/pic32mx/3.4.4/../../../../pic32mx/lib/speed\libmchp_peripheral_32MX795F512H.a(dma_chn_open_lib.o)
 .debug_info    0x000010de       0x30 E:/Olimex/Compilers/Microchip/MPLAB C32 1_11B/bin/../lib/gcc/pic32mx/3.4.4/../../../../pic32mx/lib/speed\libmchp_peripheral_32MX795F512H.a(dma_chn_enable_lib.o)
 .debug_info    0x0000110e       0x30 E:/Olimex/Compilers/Microchip/MPLAB C32 1_11B/bin/../lib/gcc/pic32mx/3.4.4/../../../../pic32mx/lib/speed\libmchp_peripheral_32MX795F512H.a(dma_chn_set_control_flags_lib.o)
 .debug_info    0x0000113e       0x30 E:/Olimex/Compilers/Microchip/MPLAB C32 1_11B/bin/../lib/gcc/pic32mx/3.4.4/../../../../pic32mx/lib/speed\libmchp_peripheral_32MX795F512H.a(dma_chn_write_event_control_flags_lib.o)
 .debug_info    0x0000116e       0x30 E:/Olimex/Compilers/Microchip/MPLAB C32 1_11B/bin/../lib/gcc/pic32mx/3.4.4/../../../../pic32mx/lib/speed\libmchp_peripheral_32MX795F512H.a(dma_chn_set_txfer_lib.o)
 .debug_info    0x0000119e        0x0 E:/Olimex/Compilers/Microchip/MPLAB C32 1_11B/bin/../lib/gcc/pic32mx/3.4.4/../../../../pic32mx/lib/speed\libmchp_peripheral_32MX795F512H.a(dma_reg_map_tbl_lib.o)
 .debug_info    0x0000119e       0x30 E:/Olimex/Compilers/Microchip/MPLAB C32 1_11B/bin/../lib/gcc/pic32mx/3.4.4/../../../../pic32mx/lib/speed\libmchp_peripheral_32MX795F512H.a(port_reset_pins_lib.o)
 .debug_info    0x000011ce       0x30 E:/Olimex/Compilers/Microchip/MPLAB C32 1_11B/bin/../lib/gcc/pic32mx/3.4.4/../../../../pic32mx/lib/speed\libmchp_peripheral_32MX795F512H.a(port_set_pins_digital_in_lib.o)
 .debug_info    0x000011fe       0x30 E:/Olimex/Compilers/Microchip/MPLAB C32 1_11B/bin/../lib/gcc/pic32mx/3.4.4/../../../../pic32mx/lib/speed\libmchp_peripheral_32MX795F512H.a(port_set_pins_digital_out_lib.o)
 .debug_info    0x0000122e        0x0 E:/Olimex/Compilers/Microchip/MPLAB C32 1_11B/bin/../lib/gcc/pic32mx/3.4.4/../../../../pic32mx/lib/speed\libmchp_peripheral_32MX795F512H.a(_ports_tbl_libp.o)
 .debug_info    0x0000122e       0xb2 E:/Olimex/Compilers/Microchip/MPLAB C32 1_11B/bin/../lib/gcc/pic32mx/3.4.4/../../../../pic32mx/lib/speed\libmchp_peripheral_32MX795F512H.a(uart_lib.o)
 .debug_info    0x000012e0       0x30 E:/Olimex/Compilers/Microchip/MPLAB C32 1_11B/bin/../lib/gcc/pic32mx/3.4.4/../../../../pic32mx/lib/speed\libmchp_peripheral_32MX795F512H.a(I2CByteWasAcknowledged.o)
 .debug_info    0x00001310       0x30 E:/Olimex/Compilers/Microchip/MPLAB C32 1_11B/bin/../lib/gcc/pic32mx/3.4.4/../../../../pic32mx/lib/speed\libmchp_peripheral_32MX795F512H.a(I2CConfigure.o)
 .debug_info    0x00001340       0x30 E:/Olimex/Compilers/Microchip/MPLAB C32 1_11B/bin/../lib/gcc/pic32mx/3.4.4/../../../../pic32mx/lib/speed\libmchp_peripheral_32MX795F512H.a(I2CEnable.o)
 .debug_info    0x00001370       0x30 E:/Olimex/Compilers/Microchip/MPLAB C32 1_11B/bin/../lib/gcc/pic32mx/3.4.4/../../../../pic32mx/lib/speed\libmchp_peripheral_32MX795F512H.a(I2CGetByte.o)
 .debug_info    0x000013a0       0x30 E:/Olimex/Compilers/Microchip/MPLAB C32 1_11B/bin/../lib/gcc/pic32mx/3.4.4/../../../../pic32mx/lib/speed\libmchp_peripheral_32MX795F512H.a(I2CReceivedDataIsAvailable.o)
 .debug_info    0x000013d0       0x30 E:/Olimex/Compilers/Microchip/MPLAB C32 1_11B/bin/../lib/gcc/pic32mx/3.4.4/../../../../pic32mx/lib/speed\libmchp_peripheral_32MX795F512H.a(I2CReceiverEnable.o)
 .debug_info    0x00001400       0x30 E:/Olimex/Compilers/Microchip/MPLAB C32 1_11B/bin/../lib/gcc/pic32mx/3.4.4/../../../../pic32mx/lib/speed\libmchp_peripheral_32MX795F512H.a(I2CRepeatStart.o)
 .debug_info    0x00001430       0x30 E:/Olimex/Compilers/Microchip/MPLAB C32 1_11B/bin/../lib/gcc/pic32mx/3.4.4/../../../../pic32mx/lib/speed\libmchp_peripheral_32MX795F512H.a(I2CSendByte.o)
 .debug_info    0x00001460       0x30 E:/Olimex/Compilers/Microchip/MPLAB C32 1_11B/bin/../lib/gcc/pic32mx/3.4.4/../../../../pic32mx/lib/speed\libmchp_peripheral_32MX795F512H.a(I2CSetFrequency.o)
 .debug_info    0x00001490       0x30 E:/Olimex/Compilers/Microchip/MPLAB C32 1_11B/bin/../lib/gcc/pic32mx/3.4.4/../../../../pic32mx/lib/speed\libmchp_peripheral_32MX795F512H.a(I2CStart.o)
 .debug_info    0x000014c0       0x30 E:/Olimex/Compilers/Microchip/MPLAB C32 1_11B/bin/../lib/gcc/pic32mx/3.4.4/../../../../pic32mx/lib/speed\libmchp_peripheral_32MX795F512H.a(I2CStop.o)
 .debug_info    0x000014f0       0x30 E:/Olimex/Compilers/Microchip/MPLAB C32 1_11B/bin/../lib/gcc/pic32mx/3.4.4/../../../../pic32mx/lib/speed\libmchp_peripheral_32MX795F512H.a(_rtcc_set_alrm_time_and_date_lib.o)
 .debug_info    0x00001520       0x30 E:/Olimex/Compilers/Microchip/MPLAB C32 1_11B/bin/../lib/gcc/pic32mx/3.4.4/../../../../pic32mx/lib/speed\libmchp_peripheral_32MX795F512H.a(_rtcc_set_time_and_date_lib.o)
 .debug_info    0x00001550       0x30 E:/Olimex/Compilers/Microchip/MPLAB C32 1_11B/bin/../lib/gcc/pic32mx/3.4.4/../../../../pic32mx/lib/speed\libmchp_peripheral_32MX795F512H.a(_rtcc_write_in_alarm_window_lib.o)
 .debug_info    0x00001580       0x42 E:/Olimex/Compilers/Microchip/MPLAB C32 1_11B/bin/../lib/gcc/pic32mx/3.4.4/../../../../pic32mx/lib/speed\libmchp_peripheral_32MX795F512H.a(_rtcc_wait_clock_off_lib.o)
 .debug_info    0x000015c2        0x0 E:/Olimex/Compilers/Microchip/MPLAB C32 1_11B/bin/../lib/gcc/pic32mx/3.4.4/../../../../pic32mx/lib/speed\libmchp_peripheral_32MX795F512H.a(I2CPrivate.o)
 .debug_info    0x000015c2       0x42 E:/Olimex/Compilers/Microchip/MPLAB C32 1_11B/bin/../lib/gcc/pic32mx/3.4.4/../../../../pic32mx/lib/speed\libc.a(isinf.o)

.debug_abbrev   0x00000000      0xc49
 *(.debug_abbrev)
 .debug_abbrev  0x00000000       0x23 E:/Olimex/Compilers/Microchip/MPLAB C32 1_11B/bin/../lib/gcc/pic32mx/3.4.4/../../../../pic32mx/lib/speed\libc.a(strcat.o)
 .debug_abbrev  0x00000023       0x23 E:/Olimex/Compilers/Microchip/MPLAB C32 1_11B/bin/../lib/gcc/pic32mx/3.4.4/../../../../pic32mx/lib/speed\libc.a(strncmp.o)
 .debug_abbrev  0x00000046       0x23 E:/Olimex/Compilers/Microchip/MPLAB C32 1_11B/bin/../lib/gcc/pic32mx/3.4.4/../../../../pic32mx/lib/speed\libc.a(strncpy.o)
 .debug_abbrev  0x00000069       0x23 E:/Olimex/Compilers/Microchip/MPLAB C32 1_11B/bin/../lib/gcc/pic32mx/3.4.4/../../../../pic32mx/lib/speed\libc.a(strchr.o)
 .debug_abbrev  0x0000008c       0x23 E:/Olimex/Compilers/Microchip/MPLAB C32 1_11B/bin/../lib/gcc/pic32mx/3.4.4/../../../../pic32mx/lib/speed\libc.a(memmove.o)
 .debug_abbrev  0x000000af       0x23 E:/Olimex/Compilers/Microchip/MPLAB C32 1_11B/bin/../lib/gcc/pic32mx/3.4.4/../../../../pic32mx/lib/speed\libc.a(exit.o)
 .debug_abbrev  0x000000d2        0x1 E:/Olimex/Compilers/Microchip/MPLAB C32 1_11B/bin/../lib/gcc/pic32mx/3.4.4/../../../../pic32mx/lib/speed\libc.a(ctype.o)
 .debug_abbrev  0x000000d3       0x23 E:/Olimex/Compilers/Microchip/MPLAB C32 1_11B/bin/../lib/gcc/pic32mx/3.4.4/../../../../pic32mx/lib/speed\libc.a(ctypef.o)
 .debug_abbrev  0x000000f6       0x23 E:/Olimex/Compilers/Microchip/MPLAB C32 1_11B/bin/../lib/gcc/pic32mx/3.4.4/../../../../pic32mx/lib/speed\libc.a(malloc.o)
 .debug_abbrev  0x00000119       0x23 E:/Olimex/Compilers/Microchip/MPLAB C32 1_11B/bin/../lib/gcc/pic32mx/3.4.4/../../../../pic32mx/lib/speed\libc.a(malloc_calloc.o)
 .debug_abbrev  0x0000013c       0x23 E:/Olimex/Compilers/Microchip/MPLAB C32 1_11B/bin/../lib/gcc/pic32mx/3.4.4/../../../../pic32mx/lib/speed\libc.a(rand.o)
 .debug_abbrev  0x0000015f        0x1 E:/Olimex/Compilers/Microchip/MPLAB C32 1_11B/bin/../lib/gcc/pic32mx/3.4.4/../../../../pic32mx/lib/speed\libc.a(errno.o)
 .debug_abbrev  0x00000160       0x23 E:/Olimex/Compilers/Microchip/MPLAB C32 1_11B/bin/../lib/gcc/pic32mx/3.4.4/../../../../pic32mx/lib/speed\libc.a(strtol.o)
 .debug_abbrev  0x00000183       0x32 E:/Olimex/Compilers/Microchip/MPLAB C32 1_11B/bin/../lib/gcc/pic32mx/3.4.4/../../../../pic32mx/lib/speed\libc.a(strtod.o)
 .debug_abbrev  0x000001b5       0x23 E:/Olimex/Compilers/Microchip/MPLAB C32 1_11B/bin/../lib/gcc/pic32mx/3.4.4/../../../../pic32mx/lib/speed\libc.a(sprintf.o)
 .debug_abbrev  0x000001d8       0x23 E:/Olimex/Compilers/Microchip/MPLAB C32 1_11B/bin/../lib/gcc/pic32mx/3.4.4/../../../../pic32mx/lib/speed\libc.a(__vsnprintf.o)
 .debug_abbrev  0x000001fb       0x23 E:/Olimex/Compilers/Microchip/MPLAB C32 1_11B/bin/../lib/gcc/pic32mx/3.4.4/../../../../pic32mx/lib/speed\libc.a(stubs.o)
 .debug_abbrev  0x0000021e       0x36 E:/Olimex/Compilers/Microchip/MPLAB C32 1_11B/bin/../lib/gcc/pic32mx/3.4.4/../../../../pic32mx/lib/speed\libc.a(sbrk.o)
 .debug_abbrev  0x00000254       0x23 E:/Olimex/Compilers/Microchip/MPLAB C32 1_11B/bin/../lib/gcc/pic32mx/3.4.4/../../../../pic32mx/lib/speed\libc.a(default-bootstrap-exception-handler.o)
 .debug_abbrev  0x00000277       0x23 E:/Olimex/Compilers/Microchip/MPLAB C32 1_11B/bin/../lib/gcc/pic32mx/3.4.4/../../../../pic32mx/lib/speed\libc.a(default-on-reset.o)
 .debug_abbrev  0x0000029a       0x23 E:/Olimex/Compilers/Microchip/MPLAB C32 1_11B/bin/../lib/gcc/pic32mx/3.4.4/../../../../pic32mx/lib/speed\libc.a(default-on-bootstrap.o)
 .debug_abbrev  0x000002bd       0x23 E:/Olimex/Compilers/Microchip/MPLAB C32 1_11B/bin/../lib/gcc/pic32mx/3.4.4/../../../../pic32mx/lib/speed\libc.a(_exit.o)
 .debug_abbrev  0x000002e0       0x58 E:/Olimex/Compilers/Microchip/MPLAB C32 1_11B/bin/../lib/gcc/pic32mx/3.4.4/../../../../pic32mx/lib/speed\libc.a(_doprnt.o)
 .debug_abbrev  0x00000338        0x1 E:/Olimex/Compilers/Microchip/MPLAB C32 1_11B/bin/../lib/gcc/pic32mx/3.4.4/../../../../pic32mx/lib/speed\libc.a(_iobdata.o)
 .debug_abbrev  0x00000339       0x23 E:/Olimex/Compilers/Microchip/MPLAB C32 1_11B/bin/../lib/gcc/pic32mx/3.4.4/../../../../pic32mx/lib/speed\libc.a(_iobfuncs.o)
 .debug_abbrev  0x0000035c       0x21 E:/Olimex/Compilers/Microchip/MPLAB C32 1_11B/bin/../lib/gcc/pic32mx/3.4.4/../../../../pic32mx/lib/speed\libc.a(_iobstring.o)
 .debug_abbrev  0x0000037d       0x23 E:/Olimex/Compilers/Microchip/MPLAB C32 1_11B/bin/../lib/gcc/pic32mx/3.4.4/../../../../pic32mx/lib/speed\libc.a(fputc.o)
 .debug_abbrev  0x000003a0       0x23 E:/Olimex/Compilers/Microchip/MPLAB C32 1_11B/bin/../lib/gcc/pic32mx/3.4.4/../../../../pic32mx/lib/speed\libc.a(_mon_getc.o)
 .debug_abbrev  0x000003c3       0x23 E:/Olimex/Compilers/Microchip/MPLAB C32 1_11B/bin/../lib/gcc/pic32mx/3.4.4/../../../../pic32mx/lib/speed\libc.a(_mon_write.o)
 .debug_abbrev  0x000003e6       0x23 E:/Olimex/Compilers/Microchip/MPLAB C32 1_11B/bin/../lib/gcc/pic32mx/3.4.4/../../../../pic32mx/lib/speed\libc.a(fullexit.o)
 .debug_abbrev  0x00000409       0x23 E:/Olimex/Compilers/Microchip/MPLAB C32 1_11B/bin/../lib/gcc/pic32mx/3.4.4/../../../../pic32mx/lib/speed\libc.a(_mon_putc.o)
 .debug_abbrev  0x0000042c       0x23 E:/Olimex/Compilers/Microchip/MPLAB C32 1_11B/bin/../lib/gcc/pic32mx/3.4.4/../../../../pic32mx/lib/speed\libm.a(w_pow.o)
 .debug_abbrev  0x0000044f       0x23 E:/Olimex/Compilers/Microchip/MPLAB C32 1_11B/bin/../lib/gcc/pic32mx/3.4.4/../../../../pic32mx/lib/speed\libm.a(w_sqrtf.o)
 .debug_abbrev  0x00000472       0x23 E:/Olimex/Compilers/Microchip/MPLAB C32 1_11B/bin/../lib/gcc/pic32mx/3.4.4/../../../../pic32mx/lib/speed\libm.a(w_logf.o)
 .debug_abbrev  0x00000495       0x23 E:/Olimex/Compilers/Microchip/MPLAB C32 1_11B/bin/../lib/gcc/pic32mx/3.4.4/../../../../pic32mx/lib/speed\libm.a(w_expf.o)
 .debug_abbrev  0x000004b8        0x1 E:/Olimex/Compilers/Microchip/MPLAB C32 1_11B/bin/../lib/gcc/pic32mx/3.4.4/../../../../pic32mx/lib/speed\libm.a(s_lib_ver.o)
 .debug_abbrev  0x000004b9       0x39 E:/Olimex/Compilers/Microchip/MPLAB C32 1_11B/bin/../lib/gcc/pic32mx/3.4.4/../../../../pic32mx/lib/speed\libe.a(_strtod.o)
 .debug_abbrev  0x000004f2       0x23 E:/Olimex/Compilers/Microchip/MPLAB C32 1_11B/bin/../lib/gcc/pic32mx/3.4.4/../../../../pic32mx/lib/speed\libe.a(_ldexp.o)
 .debug_abbrev  0x00000515       0x23 E:/Olimex/Compilers/Microchip/MPLAB C32 1_11B/bin/../lib/gcc/pic32mx/3.4.4/../../../../pic32mx/lib/speed\libmchp_peripheral.a(read_core_timer_lib.o)
 .debug_abbrev  0x00000538       0x23 E:/Olimex/Compilers/Microchip/MPLAB C32 1_11B/bin/../lib/gcc/pic32mx/3.4.4/../../../../pic32mx/lib/speed\libmchp_peripheral.a(write_core_timer_lib.o)
 .debug_abbrev  0x0000055b       0x23 E:/Olimex/Compilers/Microchip/MPLAB C32 1_11B/bin/../lib/gcc/pic32mx/3.4.4/../../../../pic32mx/lib/speed\libmchp_peripheral_32MX795F512H.a(soft_reset_lib.o)
 .debug_abbrev  0x0000057e       0x23 E:/Olimex/Compilers/Microchip/MPLAB C32 1_11B/bin/../lib/gcc/pic32mx/3.4.4/../../../../pic32mx/lib/speed\libmchp_peripheral_32MX795F512H.a(pcache.o)
 .debug_abbrev  0x000005a1       0x23 E:/Olimex/Compilers/Microchip/MPLAB C32 1_11B/bin/../lib/gcc/pic32mx/3.4.4/../../../../pic32mx/lib/speed\libmchp_peripheral_32MX795F512H.a(int_enable_interrupts_lib.o)
 .debug_abbrev  0x000005c4       0x23 E:/Olimex/Compilers/Microchip/MPLAB C32 1_11B/bin/../lib/gcc/pic32mx/3.4.4/../../../../pic32mx/lib/speed\libmchp_peripheral_32MX795F512H.a(int_disable_interrupts_lib.o)
 .debug_abbrev  0x000005e7       0x23 E:/Olimex/Compilers/Microchip/MPLAB C32 1_11B/bin/../lib/gcc/pic32mx/3.4.4/../../../../pic32mx/lib/speed\libmchp_peripheral_32MX795F512H.a(int_restore_interrupts_lib.o)
 .debug_abbrev  0x0000060a       0x23 E:/Olimex/Compilers/Microchip/MPLAB C32 1_11B/bin/../lib/gcc/pic32mx/3.4.4/../../../../pic32mx/lib/speed\libmchp_peripheral_32MX795F512H.a(int_enable_mv_int_lib.o)
 .debug_abbrev  0x0000062d       0x23 E:/Olimex/Compilers/Microchip/MPLAB C32 1_11B/bin/../lib/gcc/pic32mx/3.4.4/../../../../pic32mx/lib/speed\libmchp_peripheral_32MX795F512H.a(int_tbl_lib.o)
 .debug_abbrev  0x00000650       0x23 E:/Olimex/Compilers/Microchip/MPLAB C32 1_11B/bin/../lib/gcc/pic32mx/3.4.4/../../../../pic32mx/lib/speed\libmchp_peripheral_32MX795F512H.a(rtcc_alarm_disable_lib.o)
 .debug_abbrev  0x00000673       0x23 E:/Olimex/Compilers/Microchip/MPLAB C32 1_11B/bin/../lib/gcc/pic32mx/3.4.4/../../../../pic32mx/lib/speed\libmchp_peripheral_32MX795F512H.a(rtcc_alarm_enable_lib.o)
 .debug_abbrev  0x00000696       0x23 E:/Olimex/Compilers/Microchip/MPLAB C32 1_11B/bin/../lib/gcc/pic32mx/3.4.4/../../../../pic32mx/lib/speed\libmchp_peripheral_32MX795F512H.a(rtcc_chime_enable_lib.o)
 .debug_abbrev  0x000006b9       0x23 E:/Olimex/Compilers/Microchip/MPLAB C32 1_11B/bin/../lib/gcc/pic32mx/3.4.4/../../../../pic32mx/lib/speed\libmchp_peripheral_32MX795F512H.a(rtcc_init_lib.o)
 .debug_abbrev  0x000006dc       0x23 E:/Olimex/Compilers/Microchip/MPLAB C32 1_11B/bin/../lib/gcc/pic32mx/3.4.4/../../../../pic32mx/lib/speed\libmchp_peripheral_32MX795F512H.a(rtcc_set_alarm_rpt_count_lib.o)
 .debug_abbrev  0x000006ff       0x23 E:/Olimex/Compilers/Microchip/MPLAB C32 1_11B/bin/../lib/gcc/pic32mx/3.4.4/../../../../pic32mx/lib/speed\libmchp_peripheral_32MX795F512H.a(rtcc_set_alarm_rpt_lib.o)
 .debug_abbrev  0x00000722       0x23 E:/Olimex/Compilers/Microchip/MPLAB C32 1_11B/bin/../lib/gcc/pic32mx/3.4.4/../../../../pic32mx/lib/speed\libmchp_peripheral_32MX795F512H.a(rtcc_set_alarm_time_date_lib.o)
 .debug_abbrev  0x00000745       0x23 E:/Olimex/Compilers/Microchip/MPLAB C32 1_11B/bin/../lib/gcc/pic32mx/3.4.4/../../../../pic32mx/lib/speed\libmchp_peripheral_32MX795F512H.a(rtcc_set_time_date_lib.o)
 .debug_abbrev  0x00000768       0x23 E:/Olimex/Compilers/Microchip/MPLAB C32 1_11B/bin/../lib/gcc/pic32mx/3.4.4/../../../../pic32mx/lib/speed\libmchp_peripheral_32MX795F512H.a(rtcc_open_lib.o)
 .debug_abbrev  0x0000078b       0x23 E:/Olimex/Compilers/Microchip/MPLAB C32 1_11B/bin/../lib/gcc/pic32mx/3.4.4/../../../../pic32mx/lib/speed\libmchp_peripheral_32MX795F512H.a(spi_chn_close_lib.o)
 .debug_abbrev  0x000007ae       0x23 E:/Olimex/Compilers/Microchip/MPLAB C32 1_11B/bin/../lib/gcc/pic32mx/3.4.4/../../../../pic32mx/lib/speed\libmchp_peripheral_32MX795F512H.a(spi_chn_getc_lib.o)
 .debug_abbrev  0x000007d1       0x23 E:/Olimex/Compilers/Microchip/MPLAB C32 1_11B/bin/../lib/gcc/pic32mx/3.4.4/../../../../pic32mx/lib/speed\libmchp_peripheral_32MX795F512H.a(spi_chn_open_lib.o)
 .debug_abbrev  0x000007f4       0x23 E:/Olimex/Compilers/Microchip/MPLAB C32 1_11B/bin/../lib/gcc/pic32mx/3.4.4/../../../../pic32mx/lib/speed\libmchp_peripheral_32MX795F512H.a(spi_chn_putc_lib.o)
 .debug_abbrev  0x00000817        0x1 E:/Olimex/Compilers/Microchip/MPLAB C32 1_11B/bin/../lib/gcc/pic32mx/3.4.4/../../../../pic32mx/lib/speed\libmchp_peripheral_32MX795F512H.a(spi_io_tbl_libp.o)
 .debug_abbrev  0x00000818        0x1 E:/Olimex/Compilers/Microchip/MPLAB C32 1_11B/bin/../lib/gcc/pic32mx/3.4.4/../../../../pic32mx/lib/speed\libmchp_peripheral_32MX795F512H.a(spi_map_tbl_libp.o)
 .debug_abbrev  0x00000819       0x23 E:/Olimex/Compilers/Microchip/MPLAB C32 1_11B/bin/../lib/gcc/pic32mx/3.4.4/../../../../pic32mx/lib/speed\libmchp_peripheral_32MX795F512H.a(power_sleep_lib.o)
 .debug_abbrev  0x0000083c       0x23 E:/Olimex/Compilers/Microchip/MPLAB C32 1_11B/bin/../lib/gcc/pic32mx/3.4.4/../../../../pic32mx/lib/speed\libmchp_peripheral_32MX795F512H.a(nvm_erase_page_lib.o)
 .debug_abbrev  0x0000085f       0x23 E:/Olimex/Compilers/Microchip/MPLAB C32 1_11B/bin/../lib/gcc/pic32mx/3.4.4/../../../../pic32mx/lib/speed\libmchp_peripheral_32MX795F512H.a(nvm_operation_lib.o)
 .debug_abbrev  0x00000882       0x23 E:/Olimex/Compilers/Microchip/MPLAB C32 1_11B/bin/../lib/gcc/pic32mx/3.4.4/../../../../pic32mx/lib/speed\libmchp_peripheral_32MX795F512H.a(nvm_write_row_lib.o)
 .debug_abbrev  0x000008a5       0x23 E:/Olimex/Compilers/Microchip/MPLAB C32 1_11B/bin/../lib/gcc/pic32mx/3.4.4/../../../../pic32mx/lib/speed\libmchp_peripheral_32MX795F512H.a(nvm_write_word_lib.o)
 .debug_abbrev  0x000008c8       0x23 E:/Olimex/Compilers/Microchip/MPLAB C32 1_11B/bin/../lib/gcc/pic32mx/3.4.4/../../../../pic32mx/lib/speed\libmchp_peripheral_32MX795F512H.a(dma_chn_open_lib.o)
 .debug_abbrev  0x000008eb       0x23 E:/Olimex/Compilers/Microchip/MPLAB C32 1_11B/bin/../lib/gcc/pic32mx/3.4.4/../../../../pic32mx/lib/speed\libmchp_peripheral_32MX795F512H.a(dma_chn_enable_lib.o)
 .debug_abbrev  0x0000090e       0x23 E:/Olimex/Compilers/Microchip/MPLAB C32 1_11B/bin/../lib/gcc/pic32mx/3.4.4/../../../../pic32mx/lib/speed\libmchp_peripheral_32MX795F512H.a(dma_chn_set_control_flags_lib.o)
 .debug_abbrev  0x00000931       0x23 E:/Olimex/Compilers/Microchip/MPLAB C32 1_11B/bin/../lib/gcc/pic32mx/3.4.4/../../../../pic32mx/lib/speed\libmchp_peripheral_32MX795F512H.a(dma_chn_write_event_control_flags_lib.o)
 .debug_abbrev  0x00000954       0x23 E:/Olimex/Compilers/Microchip/MPLAB C32 1_11B/bin/../lib/gcc/pic32mx/3.4.4/../../../../pic32mx/lib/speed\libmchp_peripheral_32MX795F512H.a(dma_chn_set_txfer_lib.o)
 .debug_abbrev  0x00000977        0x1 E:/Olimex/Compilers/Microchip/MPLAB C32 1_11B/bin/../lib/gcc/pic32mx/3.4.4/../../../../pic32mx/lib/speed\libmchp_peripheral_32MX795F512H.a(dma_reg_map_tbl_lib.o)
 .debug_abbrev  0x00000978       0x23 E:/Olimex/Compilers/Microchip/MPLAB C32 1_11B/bin/../lib/gcc/pic32mx/3.4.4/../../../../pic32mx/lib/speed\libmchp_peripheral_32MX795F512H.a(port_reset_pins_lib.o)
 .debug_abbrev  0x0000099b       0x23 E:/Olimex/Compilers/Microchip/MPLAB C32 1_11B/bin/../lib/gcc/pic32mx/3.4.4/../../../../pic32mx/lib/speed\libmchp_peripheral_32MX795F512H.a(port_set_pins_digital_in_lib.o)
 .debug_abbrev  0x000009be       0x23 E:/Olimex/Compilers/Microchip/MPLAB C32 1_11B/bin/../lib/gcc/pic32mx/3.4.4/../../../../pic32mx/lib/speed\libmchp_peripheral_32MX795F512H.a(port_set_pins_digital_out_lib.o)
 .debug_abbrev  0x000009e1        0x1 E:/Olimex/Compilers/Microchip/MPLAB C32 1_11B/bin/../lib/gcc/pic32mx/3.4.4/../../../../pic32mx/lib/speed\libmchp_peripheral_32MX795F512H.a(_ports_tbl_libp.o)
 .debug_abbrev  0x000009e2       0x36 E:/Olimex/Compilers/Microchip/MPLAB C32 1_11B/bin/../lib/gcc/pic32mx/3.4.4/../../../../pic32mx/lib/speed\libmchp_peripheral_32MX795F512H.a(uart_lib.o)
 .debug_abbrev  0x00000a18       0x23 E:/Olimex/Compilers/Microchip/MPLAB C32 1_11B/bin/../lib/gcc/pic32mx/3.4.4/../../../../pic32mx/lib/speed\libmchp_peripheral_32MX795F512H.a(I2CByteWasAcknowledged.o)
 .debug_abbrev  0x00000a3b       0x23 E:/Olimex/Compilers/Microchip/MPLAB C32 1_11B/bin/../lib/gcc/pic32mx/3.4.4/../../../../pic32mx/lib/speed\libmchp_peripheral_32MX795F512H.a(I2CConfigure.o)
 .debug_abbrev  0x00000a5e       0x23 E:/Olimex/Compilers/Microchip/MPLAB C32 1_11B/bin/../lib/gcc/pic32mx/3.4.4/../../../../pic32mx/lib/speed\libmchp_peripheral_32MX795F512H.a(I2CEnable.o)
 .debug_abbrev  0x00000a81       0x23 E:/Olimex/Compilers/Microchip/MPLAB C32 1_11B/bin/../lib/gcc/pic32mx/3.4.4/../../../../pic32mx/lib/speed\libmchp_peripheral_32MX795F512H.a(I2CGetByte.o)
 .debug_abbrev  0x00000aa4       0x23 E:/Olimex/Compilers/Microchip/MPLAB C32 1_11B/bin/../lib/gcc/pic32mx/3.4.4/../../../../pic32mx/lib/speed\libmchp_peripheral_32MX795F512H.a(I2CReceivedDataIsAvailable.o)
 .debug_abbrev  0x00000ac7       0x23 E:/Olimex/Compilers/Microchip/MPLAB C32 1_11B/bin/../lib/gcc/pic32mx/3.4.4/../../../../pic32mx/lib/speed\libmchp_peripheral_32MX795F512H.a(I2CReceiverEnable.o)
 .debug_abbrev  0x00000aea       0x23 E:/Olimex/Compilers/Microchip/MPLAB C32 1_11B/bin/../lib/gcc/pic32mx/3.4.4/../../../../pic32mx/lib/speed\libmchp_peripheral_32MX795F512H.a(I2CRepeatStart.o)
 .debug_abbrev  0x00000b0d       0x23 E:/Olimex/Compilers/Microchip/MPLAB C32 1_11B/bin/../lib/gcc/pic32mx/3.4.4/../../../../pic32mx/lib/speed\libmchp_peripheral_32MX795F512H.a(I2CSendByte.o)
 .debug_abbrev  0x00000b30       0x23 E:/Olimex/Compilers/Microchip/MPLAB C32 1_11B/bin/../lib/gcc/pic32mx/3.4.4/../../../../pic32mx/lib/speed\libmchp_peripheral_32MX795F512H.a(I2CSetFrequency.o)
 .debug_abbrev  0x00000b53       0x23 E:/Olimex/Compilers/Microchip/MPLAB C32 1_11B/bin/../lib/gcc/pic32mx/3.4.4/../../../../pic32mx/lib/speed\libmchp_peripheral_32MX795F512H.a(I2CStart.o)
 .debug_abbrev  0x00000b76       0x23 E:/Olimex/Compilers/Microchip/MPLAB C32 1_11B/bin/../lib/gcc/pic32mx/3.4.4/../../../../pic32mx/lib/speed\libmchp_peripheral_32MX795F512H.a(I2CStop.o)
 .debug_abbrev  0x00000b99       0x23 E:/Olimex/Compilers/Microchip/MPLAB C32 1_11B/bin/../lib/gcc/pic32mx/3.4.4/../../../../pic32mx/lib/speed\libmchp_peripheral_32MX795F512H.a(_rtcc_set_alrm_time_and_date_lib.o)
 .debug_abbrev  0x00000bbc       0x23 E:/Olimex/Compilers/Microchip/MPLAB C32 1_11B/bin/../lib/gcc/pic32mx/3.4.4/../../../../pic32mx/lib/speed\libmchp_peripheral_32MX795F512H.a(_rtcc_set_time_and_date_lib.o)
 .debug_abbrev  0x00000bdf       0x23 E:/Olimex/Compilers/Microchip/MPLAB C32 1_11B/bin/../lib/gcc/pic32mx/3.4.4/../../../../pic32mx/lib/speed\libmchp_peripheral_32MX795F512H.a(_rtcc_write_in_alarm_window_lib.o)
 .debug_abbrev  0x00000c02       0x23 E:/Olimex/Compilers/Microchip/MPLAB C32 1_11B/bin/../lib/gcc/pic32mx/3.4.4/../../../../pic32mx/lib/speed\libmchp_peripheral_32MX795F512H.a(_rtcc_wait_clock_off_lib.o)
 .debug_abbrev  0x00000c25        0x1 E:/Olimex/Compilers/Microchip/MPLAB C32 1_11B/bin/../lib/gcc/pic32mx/3.4.4/../../../../pic32mx/lib/speed\libmchp_peripheral_32MX795F512H.a(I2CPrivate.o)
 .debug_abbrev  0x00000c26       0x23 E:/Olimex/Compilers/Microchip/MPLAB C32 1_11B/bin/../lib/gcc/pic32mx/3.4.4/../../../../pic32mx/lib/speed\libc.a(isinf.o)

.debug_line     0x00000000     0x33e5
 *(.debug_line)
 .debug_line    0x00000000       0x87 E:/Olimex/Compilers/Microchip/MPLAB C32 1_11B/bin/../lib/gcc/pic32mx/3.4.4/../../../../pic32mx/lib/speed\libc.a(strcat.o)
 .debug_line    0x00000087       0x88 E:/Olimex/Compilers/Microchip/MPLAB C32 1_11B/bin/../lib/gcc/pic32mx/3.4.4/../../../../pic32mx/lib/speed\libc.a(strncmp.o)
 .debug_line    0x0000010f       0x88 E:/Olimex/Compilers/Microchip/MPLAB C32 1_11B/bin/../lib/gcc/pic32mx/3.4.4/../../../../pic32mx/lib/speed\libc.a(strncpy.o)
 .debug_line    0x00000197       0x87 E:/Olimex/Compilers/Microchip/MPLAB C32 1_11B/bin/../lib/gcc/pic32mx/3.4.4/../../../../pic32mx/lib/speed\libc.a(strchr.o)
 .debug_line    0x0000021e       0x88 E:/Olimex/Compilers/Microchip/MPLAB C32 1_11B/bin/../lib/gcc/pic32mx/3.4.4/../../../../pic32mx/lib/speed\libc.a(memmove.o)
 .debug_line    0x000002a6       0x85 E:/Olimex/Compilers/Microchip/MPLAB C32 1_11B/bin/../lib/gcc/pic32mx/3.4.4/../../../../pic32mx/lib/speed\libc.a(exit.o)
 .debug_line    0x0000032b        0x0 E:/Olimex/Compilers/Microchip/MPLAB C32 1_11B/bin/../lib/gcc/pic32mx/3.4.4/../../../../pic32mx/lib/speed\libc.a(ctype.o)
 .debug_line    0x0000032b       0x87 E:/Olimex/Compilers/Microchip/MPLAB C32 1_11B/bin/../lib/gcc/pic32mx/3.4.4/../../../../pic32mx/lib/speed\libc.a(ctypef.o)
 .debug_line    0x000003b2       0x87 E:/Olimex/Compilers/Microchip/MPLAB C32 1_11B/bin/../lib/gcc/pic32mx/3.4.4/../../../../pic32mx/lib/speed\libc.a(malloc.o)
 .debug_line    0x00000439       0x8e E:/Olimex/Compilers/Microchip/MPLAB C32 1_11B/bin/../lib/gcc/pic32mx/3.4.4/../../../../pic32mx/lib/speed\libc.a(malloc_calloc.o)
 .debug_line    0x000004c7       0x85 E:/Olimex/Compilers/Microchip/MPLAB C32 1_11B/bin/../lib/gcc/pic32mx/3.4.4/../../../../pic32mx/lib/speed\libc.a(rand.o)
 .debug_line    0x0000054c        0x0 E:/Olimex/Compilers/Microchip/MPLAB C32 1_11B/bin/../lib/gcc/pic32mx/3.4.4/../../../../pic32mx/lib/speed\libc.a(errno.o)
 .debug_line    0x0000054c       0x87 E:/Olimex/Compilers/Microchip/MPLAB C32 1_11B/bin/../lib/gcc/pic32mx/3.4.4/../../../../pic32mx/lib/speed\libc.a(strtol.o)
 .debug_line    0x000005d3       0x87 E:/Olimex/Compilers/Microchip/MPLAB C32 1_11B/bin/../lib/gcc/pic32mx/3.4.4/../../../../pic32mx/lib/speed\libc.a(strtod.o)
 .debug_line    0x0000065a       0x8a E:/Olimex/Compilers/Microchip/MPLAB C32 1_11B/bin/../lib/gcc/pic32mx/3.4.4/../../../../pic32mx/lib/speed\libc.a(sprintf.o)
 .debug_line    0x000006e4       0x8e E:/Olimex/Compilers/Microchip/MPLAB C32 1_11B/bin/../lib/gcc/pic32mx/3.4.4/../../../../pic32mx/lib/speed\libc.a(__vsnprintf.o)
 .debug_line    0x00000772       0x88 E:/Olimex/Compilers/Microchip/MPLAB C32 1_11B/bin/../lib/gcc/pic32mx/3.4.4/../../../../pic32mx/lib/speed\libc.a(stubs.o)
 .debug_line    0x000007fa       0x87 E:/Olimex/Compilers/Microchip/MPLAB C32 1_11B/bin/../lib/gcc/pic32mx/3.4.4/../../../../pic32mx/lib/speed\libc.a(sbrk.o)
 .debug_line    0x00000881       0xa6 E:/Olimex/Compilers/Microchip/MPLAB C32 1_11B/bin/../lib/gcc/pic32mx/3.4.4/../../../../pic32mx/lib/speed\libc.a(default-bootstrap-exception-handler.o)
 .debug_line    0x00000927       0x93 E:/Olimex/Compilers/Microchip/MPLAB C32 1_11B/bin/../lib/gcc/pic32mx/3.4.4/../../../../pic32mx/lib/speed\libc.a(default-on-reset.o)
 .debug_line    0x000009ba       0x97 E:/Olimex/Compilers/Microchip/MPLAB C32 1_11B/bin/../lib/gcc/pic32mx/3.4.4/../../../../pic32mx/lib/speed\libc.a(default-on-bootstrap.o)
 .debug_line    0x00000a51       0x88 E:/Olimex/Compilers/Microchip/MPLAB C32 1_11B/bin/../lib/gcc/pic32mx/3.4.4/../../../../pic32mx/lib/speed\libc.a(_exit.o)
 .debug_line    0x00000ad9       0x8a E:/Olimex/Compilers/Microchip/MPLAB C32 1_11B/bin/../lib/gcc/pic32mx/3.4.4/../../../../pic32mx/lib/speed\libc.a(_doprnt.o)
 .debug_line    0x00000b63        0x0 E:/Olimex/Compilers/Microchip/MPLAB C32 1_11B/bin/../lib/gcc/pic32mx/3.4.4/../../../../pic32mx/lib/speed\libc.a(_iobdata.o)
 .debug_line    0x00000b63       0x8c E:/Olimex/Compilers/Microchip/MPLAB C32 1_11B/bin/../lib/gcc/pic32mx/3.4.4/../../../../pic32mx/lib/speed\libc.a(_iobfuncs.o)
 .debug_line    0x00000bef       0x8d E:/Olimex/Compilers/Microchip/MPLAB C32 1_11B/bin/../lib/gcc/pic32mx/3.4.4/../../../../pic32mx/lib/speed\libc.a(_iobstring.o)
 .debug_line    0x00000c7c       0x88 E:/Olimex/Compilers/Microchip/MPLAB C32 1_11B/bin/../lib/gcc/pic32mx/3.4.4/../../../../pic32mx/lib/speed\libc.a(fputc.o)
 .debug_line    0x00000d04       0x8c E:/Olimex/Compilers/Microchip/MPLAB C32 1_11B/bin/../lib/gcc/pic32mx/3.4.4/../../../../pic32mx/lib/speed\libc.a(_mon_getc.o)
 .debug_line    0x00000d90       0x8d E:/Olimex/Compilers/Microchip/MPLAB C32 1_11B/bin/../lib/gcc/pic32mx/3.4.4/../../../../pic32mx/lib/speed\libc.a(_mon_write.o)
 .debug_line    0x00000e1d       0x89 E:/Olimex/Compilers/Microchip/MPLAB C32 1_11B/bin/../lib/gcc/pic32mx/3.4.4/../../../../pic32mx/lib/speed\libc.a(fullexit.o)
 .debug_line    0x00000ea6       0x8c E:/Olimex/Compilers/Microchip/MPLAB C32 1_11B/bin/../lib/gcc/pic32mx/3.4.4/../../../../pic32mx/lib/speed\libc.a(_mon_putc.o)
 .debug_line    0x00000f32       0x93 E:/Olimex/Compilers/Microchip/MPLAB C32 1_11B/bin/../lib/gcc/pic32mx/3.4.4/../../../../pic32mx/lib/speed\libm.a(w_pow.o)
 .debug_line    0x00000fc5       0x8e E:/Olimex/Compilers/Microchip/MPLAB C32 1_11B/bin/../lib/gcc/pic32mx/3.4.4/../../../../pic32mx/lib/speed\libm.a(w_sqrtf.o)
 .debug_line    0x00001053       0x8d E:/Olimex/Compilers/Microchip/MPLAB C32 1_11B/bin/../lib/gcc/pic32mx/3.4.4/../../../../pic32mx/lib/speed\libm.a(w_logf.o)
 .debug_line    0x000010e0       0x8d E:/Olimex/Compilers/Microchip/MPLAB C32 1_11B/bin/../lib/gcc/pic32mx/3.4.4/../../../../pic32mx/lib/speed\libm.a(w_expf.o)
 .debug_line    0x0000116d        0x0 E:/Olimex/Compilers/Microchip/MPLAB C32 1_11B/bin/../lib/gcc/pic32mx/3.4.4/../../../../pic32mx/lib/speed\libm.a(s_lib_ver.o)
 .debug_line    0x0000116d       0x96 E:/Olimex/Compilers/Microchip/MPLAB C32 1_11B/bin/../lib/gcc/pic32mx/3.4.4/../../../../pic32mx/lib/speed\libe.a(_strtod.o)
 .debug_line    0x00001203       0x88 E:/Olimex/Compilers/Microchip/MPLAB C32 1_11B/bin/../lib/gcc/pic32mx/3.4.4/../../../../pic32mx/lib/speed\libe.a(_ldexp.o)
 .debug_line    0x0000128b       0xa6 E:/Olimex/Compilers/Microchip/MPLAB C32 1_11B/bin/../lib/gcc/pic32mx/3.4.4/../../../../pic32mx/lib/speed\libmchp_peripheral.a(read_core_timer_lib.o)
 .debug_line    0x00001331       0xa7 E:/Olimex/Compilers/Microchip/MPLAB C32 1_11B/bin/../lib/gcc/pic32mx/3.4.4/../../../../pic32mx/lib/speed\libmchp_peripheral.a(write_core_timer_lib.o)
 .debug_line    0x000013d8       0xa1 E:/Olimex/Compilers/Microchip/MPLAB C32 1_11B/bin/../lib/gcc/pic32mx/3.4.4/../../../../pic32mx/lib/speed\libmchp_peripheral_32MX795F512H.a(soft_reset_lib.o)
 .debug_line    0x00001479       0x9a E:/Olimex/Compilers/Microchip/MPLAB C32 1_11B/bin/../lib/gcc/pic32mx/3.4.4/../../../../pic32mx/lib/speed\libmchp_peripheral_32MX795F512H.a(pcache.o)
 .debug_line    0x00001513       0xaa E:/Olimex/Compilers/Microchip/MPLAB C32 1_11B/bin/../lib/gcc/pic32mx/3.4.4/../../../../pic32mx/lib/speed\libmchp_peripheral_32MX795F512H.a(int_enable_interrupts_lib.o)
 .debug_line    0x000015bd       0xab E:/Olimex/Compilers/Microchip/MPLAB C32 1_11B/bin/../lib/gcc/pic32mx/3.4.4/../../../../pic32mx/lib/speed\libmchp_peripheral_32MX795F512H.a(int_disable_interrupts_lib.o)
 .debug_line    0x00001668       0xab E:/Olimex/Compilers/Microchip/MPLAB C32 1_11B/bin/../lib/gcc/pic32mx/3.4.4/../../../../pic32mx/lib/speed\libmchp_peripheral_32MX795F512H.a(int_restore_interrupts_lib.o)
 .debug_line    0x00001713       0xa6 E:/Olimex/Compilers/Microchip/MPLAB C32 1_11B/bin/../lib/gcc/pic32mx/3.4.4/../../../../pic32mx/lib/speed\libmchp_peripheral_32MX795F512H.a(int_enable_mv_int_lib.o)
 .debug_line    0x000017b9       0x9c E:/Olimex/Compilers/Microchip/MPLAB C32 1_11B/bin/../lib/gcc/pic32mx/3.4.4/../../../../pic32mx/lib/speed\libmchp_peripheral_32MX795F512H.a(int_tbl_lib.o)
 .debug_line    0x00001855       0xa8 E:/Olimex/Compilers/Microchip/MPLAB C32 1_11B/bin/../lib/gcc/pic32mx/3.4.4/../../../../pic32mx/lib/speed\libmchp_peripheral_32MX795F512H.a(rtcc_alarm_disable_lib.o)
 .debug_line    0x000018fd       0xa7 E:/Olimex/Compilers/Microchip/MPLAB C32 1_11B/bin/../lib/gcc/pic32mx/3.4.4/../../../../pic32mx/lib/speed\libmchp_peripheral_32MX795F512H.a(rtcc_alarm_enable_lib.o)
 .debug_line    0x000019a4       0xa7 E:/Olimex/Compilers/Microchip/MPLAB C32 1_11B/bin/../lib/gcc/pic32mx/3.4.4/../../../../pic32mx/lib/speed\libmchp_peripheral_32MX795F512H.a(rtcc_chime_enable_lib.o)
 .debug_line    0x00001a4b       0x9f E:/Olimex/Compilers/Microchip/MPLAB C32 1_11B/bin/../lib/gcc/pic32mx/3.4.4/../../../../pic32mx/lib/speed\libmchp_peripheral_32MX795F512H.a(rtcc_init_lib.o)
 .debug_line    0x00001aea       0xae E:/Olimex/Compilers/Microchip/MPLAB C32 1_11B/bin/../lib/gcc/pic32mx/3.4.4/../../../../pic32mx/lib/speed\libmchp_peripheral_32MX795F512H.a(rtcc_set_alarm_rpt_count_lib.o)
 .debug_line    0x00001b98       0xa8 E:/Olimex/Compilers/Microchip/MPLAB C32 1_11B/bin/../lib/gcc/pic32mx/3.4.4/../../../../pic32mx/lib/speed\libmchp_peripheral_32MX795F512H.a(rtcc_set_alarm_rpt_lib.o)
 .debug_line    0x00001c40       0xae E:/Olimex/Compilers/Microchip/MPLAB C32 1_11B/bin/../lib/gcc/pic32mx/3.4.4/../../../../pic32mx/lib/speed\libmchp_peripheral_32MX795F512H.a(rtcc_set_alarm_time_date_lib.o)
 .debug_line    0x00001cee       0xa8 E:/Olimex/Compilers/Microchip/MPLAB C32 1_11B/bin/../lib/gcc/pic32mx/3.4.4/../../../../pic32mx/lib/speed\libmchp_peripheral_32MX795F512H.a(rtcc_set_time_date_lib.o)
 .debug_line    0x00001d96       0x9f E:/Olimex/Compilers/Microchip/MPLAB C32 1_11B/bin/../lib/gcc/pic32mx/3.4.4/../../../../pic32mx/lib/speed\libmchp_peripheral_32MX795F512H.a(rtcc_open_lib.o)
 .debug_line    0x00001e35       0xa2 E:/Olimex/Compilers/Microchip/MPLAB C32 1_11B/bin/../lib/gcc/pic32mx/3.4.4/../../../../pic32mx/lib/speed\libmchp_peripheral_32MX795F512H.a(spi_chn_close_lib.o)
 .debug_line    0x00001ed7       0xa1 E:/Olimex/Compilers/Microchip/MPLAB C32 1_11B/bin/../lib/gcc/pic32mx/3.4.4/../../../../pic32mx/lib/speed\libmchp_peripheral_32MX795F512H.a(spi_chn_getc_lib.o)
 .debug_line    0x00001f78       0xa1 E:/Olimex/Compilers/Microchip/MPLAB C32 1_11B/bin/../lib/gcc/pic32mx/3.4.4/../../../../pic32mx/lib/speed\libmchp_peripheral_32MX795F512H.a(spi_chn_open_lib.o)
 .debug_line    0x00002019       0xa1 E:/Olimex/Compilers/Microchip/MPLAB C32 1_11B/bin/../lib/gcc/pic32mx/3.4.4/../../../../pic32mx/lib/speed\libmchp_peripheral_32MX795F512H.a(spi_chn_putc_lib.o)
 .debug_line    0x000020ba        0x0 E:/Olimex/Compilers/Microchip/MPLAB C32 1_11B/bin/../lib/gcc/pic32mx/3.4.4/../../../../pic32mx/lib/speed\libmchp_peripheral_32MX795F512H.a(spi_io_tbl_libp.o)
 .debug_line    0x000020ba        0x0 E:/Olimex/Compilers/Microchip/MPLAB C32 1_11B/bin/../lib/gcc/pic32mx/3.4.4/../../../../pic32mx/lib/speed\libmchp_peripheral_32MX795F512H.a(spi_map_tbl_libp.o)
 .debug_line    0x000020ba       0xa2 E:/Olimex/Compilers/Microchip/MPLAB C32 1_11B/bin/../lib/gcc/pic32mx/3.4.4/../../../../pic32mx/lib/speed\libmchp_peripheral_32MX795F512H.a(power_sleep_lib.o)
 .debug_line    0x0000215c       0xa3 E:/Olimex/Compilers/Microchip/MPLAB C32 1_11B/bin/../lib/gcc/pic32mx/3.4.4/../../../../pic32mx/lib/speed\libmchp_peripheral_32MX795F512H.a(nvm_erase_page_lib.o)
 .debug_line    0x000021ff       0xa2 E:/Olimex/Compilers/Microchip/MPLAB C32 1_11B/bin/../lib/gcc/pic32mx/3.4.4/../../../../pic32mx/lib/speed\libmchp_peripheral_32MX795F512H.a(nvm_operation_lib.o)
 .debug_line    0x000022a1       0xa2 E:/Olimex/Compilers/Microchip/MPLAB C32 1_11B/bin/../lib/gcc/pic32mx/3.4.4/../../../../pic32mx/lib/speed\libmchp_peripheral_32MX795F512H.a(nvm_write_row_lib.o)
 .debug_line    0x00002343       0xa3 E:/Olimex/Compilers/Microchip/MPLAB C32 1_11B/bin/../lib/gcc/pic32mx/3.4.4/../../../../pic32mx/lib/speed\libmchp_peripheral_32MX795F512H.a(nvm_write_word_lib.o)
 .debug_line    0x000023e6       0xa1 E:/Olimex/Compilers/Microchip/MPLAB C32 1_11B/bin/../lib/gcc/pic32mx/3.4.4/../../../../pic32mx/lib/speed\libmchp_peripheral_32MX795F512H.a(dma_chn_open_lib.o)
 .debug_line    0x00002487       0xa3 E:/Olimex/Compilers/Microchip/MPLAB C32 1_11B/bin/../lib/gcc/pic32mx/3.4.4/../../../../pic32mx/lib/speed\libmchp_peripheral_32MX795F512H.a(dma_chn_enable_lib.o)
 .debug_line    0x0000252a       0xae E:/Olimex/Compilers/Microchip/MPLAB C32 1_11B/bin/../lib/gcc/pic32mx/3.4.4/../../../../pic32mx/lib/speed\libmchp_peripheral_32MX795F512H.a(dma_chn_set_control_flags_lib.o)
 .debug_line    0x000025d8       0xb6 E:/Olimex/Compilers/Microchip/MPLAB C32 1_11B/bin/../lib/gcc/pic32mx/3.4.4/../../../../pic32mx/lib/speed\libmchp_peripheral_32MX795F512H.a(dma_chn_write_event_control_flags_lib.o)
 .debug_line    0x0000268e       0xa6 E:/Olimex/Compilers/Microchip/MPLAB C32 1_11B/bin/../lib/gcc/pic32mx/3.4.4/../../../../pic32mx/lib/speed\libmchp_peripheral_32MX795F512H.a(dma_chn_set_txfer_lib.o)
 .debug_line    0x00002734        0x0 E:/Olimex/Compilers/Microchip/MPLAB C32 1_11B/bin/../lib/gcc/pic32mx/3.4.4/../../../../pic32mx/lib/speed\libmchp_peripheral_32MX795F512H.a(dma_reg_map_tbl_lib.o)
 .debug_line    0x00002734       0xa6 E:/Olimex/Compilers/Microchip/MPLAB C32 1_11B/bin/../lib/gcc/pic32mx/3.4.4/../../../../pic32mx/lib/speed\libmchp_peripheral_32MX795F512H.a(port_reset_pins_lib.o)
 .debug_line    0x000027da       0xaf E:/Olimex/Compilers/Microchip/MPLAB C32 1_11B/bin/../lib/gcc/pic32mx/3.4.4/../../../../pic32mx/lib/speed\libmchp_peripheral_32MX795F512H.a(port_set_pins_digital_in_lib.o)
 .debug_line    0x00002889       0xb0 E:/Olimex/Compilers/Microchip/MPLAB C32 1_11B/bin/../lib/gcc/pic32mx/3.4.4/../../../../pic32mx/lib/speed\libmchp_peripheral_32MX795F512H.a(port_set_pins_digital_out_lib.o)
 .debug_line    0x00002939        0x0 E:/Olimex/Compilers/Microchip/MPLAB C32 1_11B/bin/../lib/gcc/pic32mx/3.4.4/../../../../pic32mx/lib/speed\libmchp_peripheral_32MX795F512H.a(_ports_tbl_libp.o)
 .debug_line    0x00002939       0x9a E:/Olimex/Compilers/Microchip/MPLAB C32 1_11B/bin/../lib/gcc/pic32mx/3.4.4/../../../../pic32mx/lib/speed\libmchp_peripheral_32MX795F512H.a(uart_lib.o)
 .debug_line    0x000029d3       0xa7 E:/Olimex/Compilers/Microchip/MPLAB C32 1_11B/bin/../lib/gcc/pic32mx/3.4.4/../../../../pic32mx/lib/speed\libmchp_peripheral_32MX795F512H.a(I2CByteWasAcknowledged.o)
 .debug_line    0x00002a7a       0x9d E:/Olimex/Compilers/Microchip/MPLAB C32 1_11B/bin/../lib/gcc/pic32mx/3.4.4/../../../../pic32mx/lib/speed\libmchp_peripheral_32MX795F512H.a(I2CConfigure.o)
 .debug_line    0x00002b17       0x9a E:/Olimex/Compilers/Microchip/MPLAB C32 1_11B/bin/../lib/gcc/pic32mx/3.4.4/../../../../pic32mx/lib/speed\libmchp_peripheral_32MX795F512H.a(I2CEnable.o)
 .debug_line    0x00002bb1       0x9b E:/Olimex/Compilers/Microchip/MPLAB C32 1_11B/bin/../lib/gcc/pic32mx/3.4.4/../../../../pic32mx/lib/speed\libmchp_peripheral_32MX795F512H.a(I2CGetByte.o)
 .debug_line    0x00002c4c       0xab E:/Olimex/Compilers/Microchip/MPLAB C32 1_11B/bin/../lib/gcc/pic32mx/3.4.4/../../../../pic32mx/lib/speed\libmchp_peripheral_32MX795F512H.a(I2CReceivedDataIsAvailable.o)
 .debug_line    0x00002cf7       0xa2 E:/Olimex/Compilers/Microchip/MPLAB C32 1_11B/bin/../lib/gcc/pic32mx/3.4.4/../../../../pic32mx/lib/speed\libmchp_peripheral_32MX795F512H.a(I2CReceiverEnable.o)
 .debug_line    0x00002d99       0x9f E:/Olimex/Compilers/Microchip/MPLAB C32 1_11B/bin/../lib/gcc/pic32mx/3.4.4/../../../../pic32mx/lib/speed\libmchp_peripheral_32MX795F512H.a(I2CRepeatStart.o)
 .debug_line    0x00002e38       0x9c E:/Olimex/Compilers/Microchip/MPLAB C32 1_11B/bin/../lib/gcc/pic32mx/3.4.4/../../../../pic32mx/lib/speed\libmchp_peripheral_32MX795F512H.a(I2CSendByte.o)
 .debug_line    0x00002ed4       0xa0 E:/Olimex/Compilers/Microchip/MPLAB C32 1_11B/bin/../lib/gcc/pic32mx/3.4.4/../../../../pic32mx/lib/speed\libmchp_peripheral_32MX795F512H.a(I2CSetFrequency.o)
 .debug_line    0x00002f74       0x99 E:/Olimex/Compilers/Microchip/MPLAB C32 1_11B/bin/../lib/gcc/pic32mx/3.4.4/../../../../pic32mx/lib/speed\libmchp_peripheral_32MX795F512H.a(I2CStart.o)
 .debug_line    0x0000300d       0x98 E:/Olimex/Compilers/Microchip/MPLAB C32 1_11B/bin/../lib/gcc/pic32mx/3.4.4/../../../../pic32mx/lib/speed\libmchp_peripheral_32MX795F512H.a(I2CStop.o)
 .debug_line    0x000030a5       0xb2 E:/Olimex/Compilers/Microchip/MPLAB C32 1_11B/bin/../lib/gcc/pic32mx/3.4.4/../../../../pic32mx/lib/speed\libmchp_peripheral_32MX795F512H.a(_rtcc_set_alrm_time_and_date_lib.o)
 .debug_line    0x00003157       0xad E:/Olimex/Compilers/Microchip/MPLAB C32 1_11B/bin/../lib/gcc/pic32mx/3.4.4/../../../../pic32mx/lib/speed\libmchp_peripheral_32MX795F512H.a(_rtcc_set_time_and_date_lib.o)
 .debug_line    0x00003204       0xb1 E:/Olimex/Compilers/Microchip/MPLAB C32 1_11B/bin/../lib/gcc/pic32mx/3.4.4/../../../../pic32mx/lib/speed\libmchp_peripheral_32MX795F512H.a(_rtcc_write_in_alarm_window_lib.o)
 .debug_line    0x000032b5       0xaa E:/Olimex/Compilers/Microchip/MPLAB C32 1_11B/bin/../lib/gcc/pic32mx/3.4.4/../../../../pic32mx/lib/speed\libmchp_peripheral_32MX795F512H.a(_rtcc_wait_clock_off_lib.o)
 .debug_line    0x0000335f        0x0 E:/Olimex/Compilers/Microchip/MPLAB C32 1_11B/bin/../lib/gcc/pic32mx/3.4.4/../../../../pic32mx/lib/speed\libmchp_peripheral_32MX795F512H.a(I2CPrivate.o)
 .debug_line    0x0000335f       0x86 E:/Olimex/Compilers/Microchip/MPLAB C32 1_11B/bin/../lib/gcc/pic32mx/3.4.4/../../../../pic32mx/lib/speed\libc.a(isinf.o)

.debug_frame    0x00000000     0x134c
 *(.debug_frame)
 .debug_frame   0x00000000       0x2c E:/Olimex/Compilers/Microchip/MPLAB C32 1_11B/bin/../lib/gcc/pic32mx/3.4.4/../../../../pic32mx/lib/speed\libc.a(strcat.o)
 .debug_frame   0x0000002c       0x20 E:/Olimex/Compilers/Microchip/MPLAB C32 1_11B/bin/../lib/gcc/pic32mx/3.4.4/../../../../pic32mx/lib/speed\libc.a(strncmp.o)
 .debug_frame   0x0000004c       0x20 E:/Olimex/Compilers/Microchip/MPLAB C32 1_11B/bin/../lib/gcc/pic32mx/3.4.4/../../../../pic32mx/lib/speed\libc.a(strncpy.o)
 .debug_frame   0x0000006c       0x20 E:/Olimex/Compilers/Microchip/MPLAB C32 1_11B/bin/../lib/gcc/pic32mx/3.4.4/../../../../pic32mx/lib/speed\libc.a(strchr.o)
 .debug_frame   0x0000008c       0x20 E:/Olimex/Compilers/Microchip/MPLAB C32 1_11B/bin/../lib/gcc/pic32mx/3.4.4/../../../../pic32mx/lib/speed\libc.a(memmove.o)
 .debug_frame   0x000000ac       0x28 E:/Olimex/Compilers/Microchip/MPLAB C32 1_11B/bin/../lib/gcc/pic32mx/3.4.4/../../../../pic32mx/lib/speed\libc.a(exit.o)
 .debug_frame   0x000000d4      0x120 E:/Olimex/Compilers/Microchip/MPLAB C32 1_11B/bin/../lib/gcc/pic32mx/3.4.4/../../../../pic32mx/lib/speed\libc.a(ctypef.o)
 .debug_frame   0x000001f4       0x74 E:/Olimex/Compilers/Microchip/MPLAB C32 1_11B/bin/../lib/gcc/pic32mx/3.4.4/../../../../pic32mx/lib/speed\libc.a(malloc.o)
 .debug_frame   0x00000268       0x34 E:/Olimex/Compilers/Microchip/MPLAB C32 1_11B/bin/../lib/gcc/pic32mx/3.4.4/../../../../pic32mx/lib/speed\libc.a(malloc_calloc.o)
 .debug_frame   0x0000029c       0x54 E:/Olimex/Compilers/Microchip/MPLAB C32 1_11B/bin/../lib/gcc/pic32mx/3.4.4/../../../../pic32mx/lib/speed\libc.a(rand.o)
 .debug_frame   0x000002f0       0x20 E:/Olimex/Compilers/Microchip/MPLAB C32 1_11B/bin/../lib/gcc/pic32mx/3.4.4/../../../../pic32mx/lib/speed\libc.a(strtol.o)
 .debug_frame   0x00000310       0x20 E:/Olimex/Compilers/Microchip/MPLAB C32 1_11B/bin/../lib/gcc/pic32mx/3.4.4/../../../../pic32mx/lib/speed\libc.a(strtod.o)
 .debug_frame   0x00000330       0x28 E:/Olimex/Compilers/Microchip/MPLAB C32 1_11B/bin/../lib/gcc/pic32mx/3.4.4/../../../../pic32mx/lib/speed\libc.a(sprintf.o)
 .debug_frame   0x00000358       0x28 E:/Olimex/Compilers/Microchip/MPLAB C32 1_11B/bin/../lib/gcc/pic32mx/3.4.4/../../../../pic32mx/lib/speed\libc.a(__vsnprintf.o)
 .debug_frame   0x00000380      0x178 E:/Olimex/Compilers/Microchip/MPLAB C32 1_11B/bin/../lib/gcc/pic32mx/3.4.4/../../../../pic32mx/lib/speed\libc.a(stubs.o)
 .debug_frame   0x000004f8       0xa0 E:/Olimex/Compilers/Microchip/MPLAB C32 1_11B/bin/../lib/gcc/pic32mx/3.4.4/../../../../pic32mx/lib/speed\libc.a(sbrk.o)
 .debug_frame   0x00000598       0x20 E:/Olimex/Compilers/Microchip/MPLAB C32 1_11B/bin/../lib/gcc/pic32mx/3.4.4/../../../../pic32mx/lib/speed\libc.a(default-bootstrap-exception-handler.o)
 .debug_frame   0x000005b8       0x20 E:/Olimex/Compilers/Microchip/MPLAB C32 1_11B/bin/../lib/gcc/pic32mx/3.4.4/../../../../pic32mx/lib/speed\libc.a(default-on-reset.o)
 .debug_frame   0x000005d8       0x20 E:/Olimex/Compilers/Microchip/MPLAB C32 1_11B/bin/../lib/gcc/pic32mx/3.4.4/../../../../pic32mx/lib/speed\libc.a(default-on-bootstrap.o)
 .debug_frame   0x000005f8       0x20 E:/Olimex/Compilers/Microchip/MPLAB C32 1_11B/bin/../lib/gcc/pic32mx/3.4.4/../../../../pic32mx/lib/speed\libc.a(_exit.o)
 .debug_frame   0x00000618      0x104 E:/Olimex/Compilers/Microchip/MPLAB C32 1_11B/bin/../lib/gcc/pic32mx/3.4.4/../../../../pic32mx/lib/speed\libc.a(_doprnt.o)
 .debug_frame   0x0000071c       0xac E:/Olimex/Compilers/Microchip/MPLAB C32 1_11B/bin/../lib/gcc/pic32mx/3.4.4/../../../../pic32mx/lib/speed\libc.a(_iobfuncs.o)
 .debug_frame   0x000007c8       0x60 E:/Olimex/Compilers/Microchip/MPLAB C32 1_11B/bin/../lib/gcc/pic32mx/3.4.4/../../../../pic32mx/lib/speed\libc.a(_iobstring.o)
 .debug_frame   0x00000828       0x50 E:/Olimex/Compilers/Microchip/MPLAB C32 1_11B/bin/../lib/gcc/pic32mx/3.4.4/../../../../pic32mx/lib/speed\libc.a(fputc.o)
 .debug_frame   0x00000878       0x20 E:/Olimex/Compilers/Microchip/MPLAB C32 1_11B/bin/../lib/gcc/pic32mx/3.4.4/../../../../pic32mx/lib/speed\libc.a(_mon_getc.o)
 .debug_frame   0x00000898       0x30 E:/Olimex/Compilers/Microchip/MPLAB C32 1_11B/bin/../lib/gcc/pic32mx/3.4.4/../../../../pic32mx/lib/speed\libc.a(_mon_write.o)
 .debug_frame   0x000008c8       0x34 E:/Olimex/Compilers/Microchip/MPLAB C32 1_11B/bin/../lib/gcc/pic32mx/3.4.4/../../../../pic32mx/lib/speed\libc.a(fullexit.o)
 .debug_frame   0x000008fc       0x20 E:/Olimex/Compilers/Microchip/MPLAB C32 1_11B/bin/../lib/gcc/pic32mx/3.4.4/../../../../pic32mx/lib/speed\libc.a(_mon_putc.o)
 .debug_frame   0x0000091c       0x38 E:/Olimex/Compilers/Microchip/MPLAB C32 1_11B/bin/../lib/gcc/pic32mx/3.4.4/../../../../pic32mx/lib/speed\libm.a(w_pow.o)
 .debug_frame   0x00000954       0x2c E:/Olimex/Compilers/Microchip/MPLAB C32 1_11B/bin/../lib/gcc/pic32mx/3.4.4/../../../../pic32mx/lib/speed\libm.a(w_sqrtf.o)
 .debug_frame   0x00000980       0x30 E:/Olimex/Compilers/Microchip/MPLAB C32 1_11B/bin/../lib/gcc/pic32mx/3.4.4/../../../../pic32mx/lib/speed\libm.a(w_logf.o)
 .debug_frame   0x000009b0       0x30 E:/Olimex/Compilers/Microchip/MPLAB C32 1_11B/bin/../lib/gcc/pic32mx/3.4.4/../../../../pic32mx/lib/speed\libm.a(w_expf.o)
 .debug_frame   0x000009e0       0x44 E:/Olimex/Compilers/Microchip/MPLAB C32 1_11B/bin/../lib/gcc/pic32mx/3.4.4/../../../../pic32mx/lib/speed\libe.a(_strtod.o)
 .debug_frame   0x00000a24       0x20 E:/Olimex/Compilers/Microchip/MPLAB C32 1_11B/bin/../lib/gcc/pic32mx/3.4.4/../../../../pic32mx/lib/speed\libe.a(_ldexp.o)
 .debug_frame   0x00000a44       0x20 E:/Olimex/Compilers/Microchip/MPLAB C32 1_11B/bin/../lib/gcc/pic32mx/3.4.4/../../../../pic32mx/lib/speed\libmchp_peripheral.a(read_core_timer_lib.o)
 .debug_frame   0x00000a64       0x20 E:/Olimex/Compilers/Microchip/MPLAB C32 1_11B/bin/../lib/gcc/pic32mx/3.4.4/../../../../pic32mx/lib/speed\libmchp_peripheral.a(write_core_timer_lib.o)
 .debug_frame   0x00000a84       0x28 E:/Olimex/Compilers/Microchip/MPLAB C32 1_11B/bin/../lib/gcc/pic32mx/3.4.4/../../../../pic32mx/lib/speed\libmchp_peripheral_32MX795F512H.a(soft_reset_lib.o)
 .debug_frame   0x00000aac       0x30 E:/Olimex/Compilers/Microchip/MPLAB C32 1_11B/bin/../lib/gcc/pic32mx/3.4.4/../../../../pic32mx/lib/speed\libmchp_peripheral_32MX795F512H.a(pcache.o)
 .debug_frame   0x00000adc       0x20 E:/Olimex/Compilers/Microchip/MPLAB C32 1_11B/bin/../lib/gcc/pic32mx/3.4.4/../../../../pic32mx/lib/speed\libmchp_peripheral_32MX795F512H.a(int_enable_interrupts_lib.o)
 .debug_frame   0x00000afc       0x20 E:/Olimex/Compilers/Microchip/MPLAB C32 1_11B/bin/../lib/gcc/pic32mx/3.4.4/../../../../pic32mx/lib/speed\libmchp_peripheral_32MX795F512H.a(int_disable_interrupts_lib.o)
 .debug_frame   0x00000b1c       0x20 E:/Olimex/Compilers/Microchip/MPLAB C32 1_11B/bin/../lib/gcc/pic32mx/3.4.4/../../../../pic32mx/lib/speed\libmchp_peripheral_32MX795F512H.a(int_restore_interrupts_lib.o)
 .debug_frame   0x00000b3c       0x28 E:/Olimex/Compilers/Microchip/MPLAB C32 1_11B/bin/../lib/gcc/pic32mx/3.4.4/../../../../pic32mx/lib/speed\libmchp_peripheral_32MX795F512H.a(int_enable_mv_int_lib.o)
 .debug_frame   0x00000b64       0xa0 E:/Olimex/Compilers/Microchip/MPLAB C32 1_11B/bin/../lib/gcc/pic32mx/3.4.4/../../../../pic32mx/lib/speed\libmchp_peripheral_32MX795F512H.a(int_tbl_lib.o)
 .debug_frame   0x00000c04       0x28 E:/Olimex/Compilers/Microchip/MPLAB C32 1_11B/bin/../lib/gcc/pic32mx/3.4.4/../../../../pic32mx/lib/speed\libmchp_peripheral_32MX795F512H.a(rtcc_alarm_disable_lib.o)
 .debug_frame   0x00000c2c       0x28 E:/Olimex/Compilers/Microchip/MPLAB C32 1_11B/bin/../lib/gcc/pic32mx/3.4.4/../../../../pic32mx/lib/speed\libmchp_peripheral_32MX795F512H.a(rtcc_alarm_enable_lib.o)
 .debug_frame   0x00000c54       0x28 E:/Olimex/Compilers/Microchip/MPLAB C32 1_11B/bin/../lib/gcc/pic32mx/3.4.4/../../../../pic32mx/lib/speed\libmchp_peripheral_32MX795F512H.a(rtcc_chime_enable_lib.o)
 .debug_frame   0x00000c7c       0x30 E:/Olimex/Compilers/Microchip/MPLAB C32 1_11B/bin/../lib/gcc/pic32mx/3.4.4/../../../../pic32mx/lib/speed\libmchp_peripheral_32MX795F512H.a(rtcc_init_lib.o)
 .debug_frame   0x00000cac       0x28 E:/Olimex/Compilers/Microchip/MPLAB C32 1_11B/bin/../lib/gcc/pic32mx/3.4.4/../../../../pic32mx/lib/speed\libmchp_peripheral_32MX795F512H.a(rtcc_set_alarm_rpt_count_lib.o)
 .debug_frame   0x00000cd4       0x28 E:/Olimex/Compilers/Microchip/MPLAB C32 1_11B/bin/../lib/gcc/pic32mx/3.4.4/../../../../pic32mx/lib/speed\libmchp_peripheral_32MX795F512H.a(rtcc_set_alarm_rpt_lib.o)
 .debug_frame   0x00000cfc       0x28 E:/Olimex/Compilers/Microchip/MPLAB C32 1_11B/bin/../lib/gcc/pic32mx/3.4.4/../../../../pic32mx/lib/speed\libmchp_peripheral_32MX795F512H.a(rtcc_set_alarm_time_date_lib.o)
 .debug_frame   0x00000d24       0x28 E:/Olimex/Compilers/Microchip/MPLAB C32 1_11B/bin/../lib/gcc/pic32mx/3.4.4/../../../../pic32mx/lib/speed\libmchp_peripheral_32MX795F512H.a(rtcc_set_time_date_lib.o)
 .debug_frame   0x00000d4c       0x3c E:/Olimex/Compilers/Microchip/MPLAB C32 1_11B/bin/../lib/gcc/pic32mx/3.4.4/../../../../pic32mx/lib/speed\libmchp_peripheral_32MX795F512H.a(rtcc_open_lib.o)
 .debug_frame   0x00000d88       0x30 E:/Olimex/Compilers/Microchip/MPLAB C32 1_11B/bin/../lib/gcc/pic32mx/3.4.4/../../../../pic32mx/lib/speed\libmchp_peripheral_32MX795F512H.a(spi_chn_close_lib.o)
 .debug_frame   0x00000db8       0x30 E:/Olimex/Compilers/Microchip/MPLAB C32 1_11B/bin/../lib/gcc/pic32mx/3.4.4/../../../../pic32mx/lib/speed\libmchp_peripheral_32MX795F512H.a(spi_chn_getc_lib.o)
 .debug_frame   0x00000de8       0x3c E:/Olimex/Compilers/Microchip/MPLAB C32 1_11B/bin/../lib/gcc/pic32mx/3.4.4/../../../../pic32mx/lib/speed\libmchp_peripheral_32MX795F512H.a(spi_chn_open_lib.o)
 .debug_frame   0x00000e24       0x40 E:/Olimex/Compilers/Microchip/MPLAB C32 1_11B/bin/../lib/gcc/pic32mx/3.4.4/../../../../pic32mx/lib/speed\libmchp_peripheral_32MX795F512H.a(spi_chn_putc_lib.o)
 .debug_frame   0x00000e64       0x28 E:/Olimex/Compilers/Microchip/MPLAB C32 1_11B/bin/../lib/gcc/pic32mx/3.4.4/../../../../pic32mx/lib/speed\libmchp_peripheral_32MX795F512H.a(power_sleep_lib.o)
 .debug_frame   0x00000e8c       0x28 E:/Olimex/Compilers/Microchip/MPLAB C32 1_11B/bin/../lib/gcc/pic32mx/3.4.4/../../../../pic32mx/lib/speed\libmchp_peripheral_32MX795F512H.a(nvm_erase_page_lib.o)
 .debug_frame   0x00000eb4       0x2c E:/Olimex/Compilers/Microchip/MPLAB C32 1_11B/bin/../lib/gcc/pic32mx/3.4.4/../../../../pic32mx/lib/speed\libmchp_peripheral_32MX795F512H.a(nvm_operation_lib.o)
 .debug_frame   0x00000ee0       0x28 E:/Olimex/Compilers/Microchip/MPLAB C32 1_11B/bin/../lib/gcc/pic32mx/3.4.4/../../../../pic32mx/lib/speed\libmchp_peripheral_32MX795F512H.a(nvm_write_row_lib.o)
 .debug_frame   0x00000f08       0x28 E:/Olimex/Compilers/Microchip/MPLAB C32 1_11B/bin/../lib/gcc/pic32mx/3.4.4/../../../../pic32mx/lib/speed\libmchp_peripheral_32MX795F512H.a(nvm_write_word_lib.o)
 .debug_frame   0x00000f30       0x38 E:/Olimex/Compilers/Microchip/MPLAB C32 1_11B/bin/../lib/gcc/pic32mx/3.4.4/../../../../pic32mx/lib/speed\libmchp_peripheral_32MX795F512H.a(dma_chn_open_lib.o)
 .debug_frame   0x00000f68       0x20 E:/Olimex/Compilers/Microchip/MPLAB C32 1_11B/bin/../lib/gcc/pic32mx/3.4.4/../../../../pic32mx/lib/speed\libmchp_peripheral_32MX795F512H.a(dma_chn_enable_lib.o)
 .debug_frame   0x00000f88       0x20 E:/Olimex/Compilers/Microchip/MPLAB C32 1_11B/bin/../lib/gcc/pic32mx/3.4.4/../../../../pic32mx/lib/speed\libmchp_peripheral_32MX795F512H.a(dma_chn_set_control_flags_lib.o)
 .debug_frame   0x00000fa8       0x20 E:/Olimex/Compilers/Microchip/MPLAB C32 1_11B/bin/../lib/gcc/pic32mx/3.4.4/../../../../pic32mx/lib/speed\libmchp_peripheral_32MX795F512H.a(dma_chn_write_event_control_flags_lib.o)
 .debug_frame   0x00000fc8       0x20 E:/Olimex/Compilers/Microchip/MPLAB C32 1_11B/bin/../lib/gcc/pic32mx/3.4.4/../../../../pic32mx/lib/speed\libmchp_peripheral_32MX795F512H.a(dma_chn_set_txfer_lib.o)
 .debug_frame   0x00000fe8       0x20 E:/Olimex/Compilers/Microchip/MPLAB C32 1_11B/bin/../lib/gcc/pic32mx/3.4.4/../../../../pic32mx/lib/speed\libmchp_peripheral_32MX795F512H.a(port_reset_pins_lib.o)
 .debug_frame   0x00001008       0x20 E:/Olimex/Compilers/Microchip/MPLAB C32 1_11B/bin/../lib/gcc/pic32mx/3.4.4/../../../../pic32mx/lib/speed\libmchp_peripheral_32MX795F512H.a(port_set_pins_digital_in_lib.o)
 .debug_frame   0x00001028       0x20 E:/Olimex/Compilers/Microchip/MPLAB C32 1_11B/bin/../lib/gcc/pic32mx/3.4.4/../../../../pic32mx/lib/speed\libmchp_peripheral_32MX795F512H.a(port_set_pins_digital_out_lib.o)
 .debug_frame   0x00001048       0x90 E:/Olimex/Compilers/Microchip/MPLAB C32 1_11B/bin/../lib/gcc/pic32mx/3.4.4/../../../../pic32mx/lib/speed\libmchp_peripheral_32MX795F512H.a(uart_lib.o)
 .debug_frame   0x000010d8       0x20 E:/Olimex/Compilers/Microchip/MPLAB C32 1_11B/bin/../lib/gcc/pic32mx/3.4.4/../../../../pic32mx/lib/speed\libmchp_peripheral_32MX795F512H.a(I2CByteWasAcknowledged.o)
 .debug_frame   0x000010f8       0x20 E:/Olimex/Compilers/Microchip/MPLAB C32 1_11B/bin/../lib/gcc/pic32mx/3.4.4/../../../../pic32mx/lib/speed\libmchp_peripheral_32MX795F512H.a(I2CConfigure.o)
 .debug_frame   0x00001118       0x20 E:/Olimex/Compilers/Microchip/MPLAB C32 1_11B/bin/../lib/gcc/pic32mx/3.4.4/../../../../pic32mx/lib/speed\libmchp_peripheral_32MX795F512H.a(I2CEnable.o)
 .debug_frame   0x00001138       0x20 E:/Olimex/Compilers/Microchip/MPLAB C32 1_11B/bin/../lib/gcc/pic32mx/3.4.4/../../../../pic32mx/lib/speed\libmchp_peripheral_32MX795F512H.a(I2CGetByte.o)
 .debug_frame   0x00001158       0x20 E:/Olimex/Compilers/Microchip/MPLAB C32 1_11B/bin/../lib/gcc/pic32mx/3.4.4/../../../../pic32mx/lib/speed\libmchp_peripheral_32MX795F512H.a(I2CReceivedDataIsAvailable.o)
 .debug_frame   0x00001178       0x20 E:/Olimex/Compilers/Microchip/MPLAB C32 1_11B/bin/../lib/gcc/pic32mx/3.4.4/../../../../pic32mx/lib/speed\libmchp_peripheral_32MX795F512H.a(I2CReceiverEnable.o)
 .debug_frame   0x00001198       0x20 E:/Olimex/Compilers/Microchip/MPLAB C32 1_11B/bin/../lib/gcc/pic32mx/3.4.4/../../../../pic32mx/lib/speed\libmchp_peripheral_32MX795F512H.a(I2CRepeatStart.o)
 .debug_frame   0x000011b8       0x20 E:/Olimex/Compilers/Microchip/MPLAB C32 1_11B/bin/../lib/gcc/pic32mx/3.4.4/../../../../pic32mx/lib/speed\libmchp_peripheral_32MX795F512H.a(I2CSendByte.o)
 .debug_frame   0x000011d8       0x20 E:/Olimex/Compilers/Microchip/MPLAB C32 1_11B/bin/../lib/gcc/pic32mx/3.4.4/../../../../pic32mx/lib/speed\libmchp_peripheral_32MX795F512H.a(I2CSetFrequency.o)
 .debug_frame   0x000011f8       0x20 E:/Olimex/Compilers/Microchip/MPLAB C32 1_11B/bin/../lib/gcc/pic32mx/3.4.4/../../../../pic32mx/lib/speed\libmchp_peripheral_32MX795F512H.a(I2CStart.o)
 .debug_frame   0x00001218       0x20 E:/Olimex/Compilers/Microchip/MPLAB C32 1_11B/bin/../lib/gcc/pic32mx/3.4.4/../../../../pic32mx/lib/speed\libmchp_peripheral_32MX795F512H.a(I2CStop.o)
 .debug_frame   0x00001238       0x28 E:/Olimex/Compilers/Microchip/MPLAB C32 1_11B/bin/../lib/gcc/pic32mx/3.4.4/../../../../pic32mx/lib/speed\libmchp_peripheral_32MX795F512H.a(_rtcc_set_alrm_time_and_date_lib.o)
 .debug_frame   0x00001260       0x34 E:/Olimex/Compilers/Microchip/MPLAB C32 1_11B/bin/../lib/gcc/pic32mx/3.4.4/../../../../pic32mx/lib/speed\libmchp_peripheral_32MX795F512H.a(_rtcc_set_time_and_date_lib.o)
 .debug_frame   0x00001294       0x3c E:/Olimex/Compilers/Microchip/MPLAB C32 1_11B/bin/../lib/gcc/pic32mx/3.4.4/../../../../pic32mx/lib/speed\libmchp_peripheral_32MX795F512H.a(_rtcc_write_in_alarm_window_lib.o)
 .debug_frame   0x000012d0       0x4c E:/Olimex/Compilers/Microchip/MPLAB C32 1_11B/bin/../lib/gcc/pic32mx/3.4.4/../../../../pic32mx/lib/speed\libmchp_peripheral_32MX795F512H.a(_rtcc_wait_clock_off_lib.o)
 .debug_frame   0x0000131c       0x30 E:/Olimex/Compilers/Microchip/MPLAB C32 1_11B/bin/../lib/gcc/pic32mx/3.4.4/../../../../pic32mx/lib/speed\libc.a(isinf.o)

.debug_str      0x00000000     0x3261
 *(.debug_str)
 .debug_str     0x00000000       0xb8 E:/Olimex/Compilers/Microchip/MPLAB C32 1_11B/bin/../lib/gcc/pic32mx/3.4.4/../../../../pic32mx/lib/speed\libc.a(strcat.o)
 .debug_str     0x000000b8       0x70 E:/Olimex/Compilers/Microchip/MPLAB C32 1_11B/bin/../lib/gcc/pic32mx/3.4.4/../../../../pic32mx/lib/speed\libc.a(strncmp.o)
                                 0xba (size before relaxing)
 .debug_str     0x00000128       0x70 E:/Olimex/Compilers/Microchip/MPLAB C32 1_11B/bin/../lib/gcc/pic32mx/3.4.4/../../../../pic32mx/lib/speed\libc.a(strncpy.o)
                                 0xba (size before relaxing)
 .debug_str     0x00000198       0x6e E:/Olimex/Compilers/Microchip/MPLAB C32 1_11B/bin/../lib/gcc/pic32mx/3.4.4/../../../../pic32mx/lib/speed\libc.a(strchr.o)
                                 0xb8 (size before relaxing)
 .debug_str     0x00000206       0x70 E:/Olimex/Compilers/Microchip/MPLAB C32 1_11B/bin/../lib/gcc/pic32mx/3.4.4/../../../../pic32mx/lib/speed\libc.a(memmove.o)
                                 0xba (size before relaxing)
 .debug_str     0x00000276       0x65 E:/Olimex/Compilers/Microchip/MPLAB C32 1_11B/bin/../lib/gcc/pic32mx/3.4.4/../../../../pic32mx/lib/speed\libc.a(exit.o)
                                 0xb4 (size before relaxing)
 .debug_str     0x000002db       0xe2 E:/Olimex/Compilers/Microchip/MPLAB C32 1_11B/bin/../lib/gcc/pic32mx/3.4.4/../../../../pic32mx/lib/speed\libc.a(ctypef.o)
                                0x13c (size before relaxing)
 .debug_str     0x000003bd       0x7f E:/Olimex/Compilers/Microchip/MPLAB C32 1_11B/bin/../lib/gcc/pic32mx/3.4.4/../../../../pic32mx/lib/speed\libc.a(malloc.o)
                                 0xc9 (size before relaxing)
 .debug_str     0x0000043c       0x75 E:/Olimex/Compilers/Microchip/MPLAB C32 1_11B/bin/../lib/gcc/pic32mx/3.4.4/../../../../pic32mx/lib/speed\libc.a(malloc_calloc.o)
                                 0xbf (size before relaxing)
 .debug_str     0x000004b1       0x72 E:/Olimex/Compilers/Microchip/MPLAB C32 1_11B/bin/../lib/gcc/pic32mx/3.4.4/../../../../pic32mx/lib/speed\libc.a(rand.o)
                                 0xc1 (size before relaxing)
 .debug_str     0x00000523       0x6e E:/Olimex/Compilers/Microchip/MPLAB C32 1_11B/bin/../lib/gcc/pic32mx/3.4.4/../../../../pic32mx/lib/speed\libc.a(strtol.o)
                                 0xb8 (size before relaxing)
 .debug_str     0x00000591       0x70 E:/Olimex/Compilers/Microchip/MPLAB C32 1_11B/bin/../lib/gcc/pic32mx/3.4.4/../../../../pic32mx/lib/speed\libc.a(strtod.o)
                                 0xc1 (size before relaxing)
 .debug_str     0x00000601       0x72 E:/Olimex/Compilers/Microchip/MPLAB C32 1_11B/bin/../lib/gcc/pic32mx/3.4.4/../../../../pic32mx/lib/speed\libc.a(sprintf.o)
                                 0xbc (size before relaxing)
 .debug_str     0x00000673       0x7a E:/Olimex/Compilers/Microchip/MPLAB C32 1_11B/bin/../lib/gcc/pic32mx/3.4.4/../../../../pic32mx/lib/speed\libc.a(__vsnprintf.o)
                                 0xc4 (size before relaxing)
 .debug_str     0x000006ed      0x2d8 E:/Olimex/Compilers/Microchip/MPLAB C32 1_11B/bin/../lib/gcc/pic32mx/3.4.4/../../../../pic32mx/lib/speed\libc.a(stubs.o)
                                0x322 (size before relaxing)
 .debug_str     0x000009c5       0x98 E:/Olimex/Compilers/Microchip/MPLAB C32 1_11B/bin/../lib/gcc/pic32mx/3.4.4/../../../../pic32mx/lib/speed\libc.a(sbrk.o)
                                 0xe7 (size before relaxing)
 .debug_str     0x00000a5d       0xa3 E:/Olimex/Compilers/Microchip/MPLAB C32 1_11B/bin/../lib/gcc/pic32mx/3.4.4/../../../../pic32mx/lib/speed\libc.a(default-bootstrap-exception-handler.o)
                                 0xed (size before relaxing)
 .debug_str     0x00000b00       0x7d E:/Olimex/Compilers/Microchip/MPLAB C32 1_11B/bin/../lib/gcc/pic32mx/3.4.4/../../../../pic32mx/lib/speed\libc.a(default-on-reset.o)
                                 0xc7 (size before relaxing)
 .debug_str     0x00000b7d       0x85 E:/Olimex/Compilers/Microchip/MPLAB C32 1_11B/bin/../lib/gcc/pic32mx/3.4.4/../../../../pic32mx/lib/speed\libc.a(default-on-bootstrap.o)
                                 0xcf (size before relaxing)
 .debug_str     0x00000c02       0x68 E:/Olimex/Compilers/Microchip/MPLAB C32 1_11B/bin/../lib/gcc/pic32mx/3.4.4/../../../../pic32mx/lib/speed\libc.a(_exit.o)
                                 0xb8 (size before relaxing)
 .debug_str     0x00000c6a       0x9b E:/Olimex/Compilers/Microchip/MPLAB C32 1_11B/bin/../lib/gcc/pic32mx/3.4.4/../../../../pic32mx/lib/speed\libc.a(_doprnt.o)
                                 0xe5 (size before relaxing)
 .debug_str     0x00000d05       0xb6 E:/Olimex/Compilers/Microchip/MPLAB C32 1_11B/bin/../lib/gcc/pic32mx/3.4.4/../../../../pic32mx/lib/speed\libc.a(_iobfuncs.o)
                                0x109 (size before relaxing)
 .debug_str     0x00000dbb       0xb7 E:/Olimex/Compilers/Microchip/MPLAB C32 1_11B/bin/../lib/gcc/pic32mx/3.4.4/../../../../pic32mx/lib/speed\libc.a(_iobstring.o)
                                0x101 (size before relaxing)
 .debug_str     0x00000e72       0x76 E:/Olimex/Compilers/Microchip/MPLAB C32 1_11B/bin/../lib/gcc/pic32mx/3.4.4/../../../../pic32mx/lib/speed\libc.a(fputc.o)
                                 0xc5 (size before relaxing)
 .debug_str     0x00000ee8       0x76 E:/Olimex/Compilers/Microchip/MPLAB C32 1_11B/bin/../lib/gcc/pic32mx/3.4.4/../../../../pic32mx/lib/speed\libc.a(_mon_getc.o)
                                 0xc0 (size before relaxing)
 .debug_str     0x00000f5e       0x78 E:/Olimex/Compilers/Microchip/MPLAB C32 1_11B/bin/../lib/gcc/pic32mx/3.4.4/../../../../pic32mx/lib/speed\libc.a(_mon_write.o)
                                 0xc2 (size before relaxing)
 .debug_str     0x00000fd6       0x73 E:/Olimex/Compilers/Microchip/MPLAB C32 1_11B/bin/../lib/gcc/pic32mx/3.4.4/../../../../pic32mx/lib/speed\libc.a(fullexit.o)
                                 0xbd (size before relaxing)
 .debug_str     0x00001049       0x76 E:/Olimex/Compilers/Microchip/MPLAB C32 1_11B/bin/../lib/gcc/pic32mx/3.4.4/../../../../pic32mx/lib/speed\libc.a(_mon_putc.o)
                                 0xc0 (size before relaxing)
 .debug_str     0x000010bf       0x73 E:/Olimex/Compilers/Microchip/MPLAB C32 1_11B/bin/../lib/gcc/pic32mx/3.4.4/../../../../pic32mx/lib/speed\libm.a(w_pow.o)
                                 0xbd (size before relaxing)
 .debug_str     0x00001132       0x74 E:/Olimex/Compilers/Microchip/MPLAB C32 1_11B/bin/../lib/gcc/pic32mx/3.4.4/../../../../pic32mx/lib/speed\libm.a(w_sqrtf.o)
                                 0xbe (size before relaxing)
 .debug_str     0x000011a6       0x72 E:/Olimex/Compilers/Microchip/MPLAB C32 1_11B/bin/../lib/gcc/pic32mx/3.4.4/../../../../pic32mx/lib/speed\libm.a(w_logf.o)
                                 0xbc (size before relaxing)
 .debug_str     0x00001218       0x72 E:/Olimex/Compilers/Microchip/MPLAB C32 1_11B/bin/../lib/gcc/pic32mx/3.4.4/../../../../pic32mx/lib/speed\libm.a(w_expf.o)
                                 0xbc (size before relaxing)
 .debug_str     0x0000128a       0x76 E:/Olimex/Compilers/Microchip/MPLAB C32 1_11B/bin/../lib/gcc/pic32mx/3.4.4/../../../../pic32mx/lib/speed\libe.a(_strtod.o)
                                 0xc9 (size before relaxing)
 .debug_str     0x00001300        0x8 E:/Olimex/Compilers/Microchip/MPLAB C32 1_11B/bin/../lib/gcc/pic32mx/3.4.4/../../../../pic32mx/lib/speed\libe.a(_ldexp.o)
                                 0xb8 (size before relaxing)
 .debug_str     0x00001308       0x94 E:/Olimex/Compilers/Microchip/MPLAB C32 1_11B/bin/../lib/gcc/pic32mx/3.4.4/../../../../pic32mx/lib/speed\libmchp_peripheral.a(read_core_timer_lib.o)
                                 0xde (size before relaxing)
 .debug_str     0x0000139c       0x96 E:/Olimex/Compilers/Microchip/MPLAB C32 1_11B/bin/../lib/gcc/pic32mx/3.4.4/../../../../pic32mx/lib/speed\libmchp_peripheral.a(write_core_timer_lib.o)
                                 0xe0 (size before relaxing)
 .debug_str     0x00001432       0x8b E:/Olimex/Compilers/Microchip/MPLAB C32 1_11B/bin/../lib/gcc/pic32mx/3.4.4/../../../../pic32mx/lib/speed\libmchp_peripheral_32MX795F512H.a(soft_reset_lib.o)
                                 0xd5 (size before relaxing)
 .debug_str     0x000014bd       0x9b E:/Olimex/Compilers/Microchip/MPLAB C32 1_11B/bin/../lib/gcc/pic32mx/3.4.4/../../../../pic32mx/lib/speed\libmchp_peripheral_32MX795F512H.a(pcache.o)
                                 0xe5 (size before relaxing)
 .debug_str     0x00001558       0x9e E:/Olimex/Compilers/Microchip/MPLAB C32 1_11B/bin/../lib/gcc/pic32mx/3.4.4/../../../../pic32mx/lib/speed\libmchp_peripheral_32MX795F512H.a(int_enable_interrupts_lib.o)
                                 0xe8 (size before relaxing)
 .debug_str     0x000015f6       0xa0 E:/Olimex/Compilers/Microchip/MPLAB C32 1_11B/bin/../lib/gcc/pic32mx/3.4.4/../../../../pic32mx/lib/speed\libmchp_peripheral_32MX795F512H.a(int_disable_interrupts_lib.o)
                                 0xea (size before relaxing)
 .debug_str     0x00001696       0xa0 E:/Olimex/Compilers/Microchip/MPLAB C32 1_11B/bin/../lib/gcc/pic32mx/3.4.4/../../../../pic32mx/lib/speed\libmchp_peripheral_32MX795F512H.a(int_restore_interrupts_lib.o)
                                 0xea (size before relaxing)
 .debug_str     0x00001736       0xa6 E:/Olimex/Compilers/Microchip/MPLAB C32 1_11B/bin/../lib/gcc/pic32mx/3.4.4/../../../../pic32mx/lib/speed\libmchp_peripheral_32MX795F512H.a(int_enable_mv_int_lib.o)
                                 0xf0 (size before relaxing)
 .debug_str     0x000017dc      0x110 E:/Olimex/Compilers/Microchip/MPLAB C32 1_11B/bin/../lib/gcc/pic32mx/3.4.4/../../../../pic32mx/lib/speed\libmchp_peripheral_32MX795F512H.a(int_tbl_lib.o)
                                0x15a (size before relaxing)
 .debug_str     0x000018ec       0x99 E:/Olimex/Compilers/Microchip/MPLAB C32 1_11B/bin/../lib/gcc/pic32mx/3.4.4/../../../../pic32mx/lib/speed\libmchp_peripheral_32MX795F512H.a(rtcc_alarm_disable_lib.o)
                                 0xe3 (size before relaxing)
 .debug_str     0x00001985       0x97 E:/Olimex/Compilers/Microchip/MPLAB C32 1_11B/bin/../lib/gcc/pic32mx/3.4.4/../../../../pic32mx/lib/speed\libmchp_peripheral_32MX795F512H.a(rtcc_alarm_enable_lib.o)
                                 0xe1 (size before relaxing)
 .debug_str     0x00001a1c       0x97 E:/Olimex/Compilers/Microchip/MPLAB C32 1_11B/bin/../lib/gcc/pic32mx/3.4.4/../../../../pic32mx/lib/speed\libmchp_peripheral_32MX795F512H.a(rtcc_chime_enable_lib.o)
                                 0xe1 (size before relaxing)
 .debug_str     0x00001ab3       0x88 E:/Olimex/Compilers/Microchip/MPLAB C32 1_11B/bin/../lib/gcc/pic32mx/3.4.4/../../../../pic32mx/lib/speed\libmchp_peripheral_32MX795F512H.a(rtcc_init_lib.o)
                                 0xd2 (size before relaxing)
 .debug_str     0x00001b3b       0xa3 E:/Olimex/Compilers/Microchip/MPLAB C32 1_11B/bin/../lib/gcc/pic32mx/3.4.4/../../../../pic32mx/lib/speed\libmchp_peripheral_32MX795F512H.a(rtcc_set_alarm_rpt_count_lib.o)
                                 0xed (size before relaxing)
 .debug_str     0x00001bde       0x98 E:/Olimex/Compilers/Microchip/MPLAB C32 1_11B/bin/../lib/gcc/pic32mx/3.4.4/../../../../pic32mx/lib/speed\libmchp_peripheral_32MX795F512H.a(rtcc_set_alarm_rpt_lib.o)
                                 0xe2 (size before relaxing)
 .debug_str     0x00001c76       0xa3 E:/Olimex/Compilers/Microchip/MPLAB C32 1_11B/bin/../lib/gcc/pic32mx/3.4.4/../../../../pic32mx/lib/speed\libmchp_peripheral_32MX795F512H.a(rtcc_set_alarm_time_date_lib.o)
                                 0xed (size before relaxing)
 .debug_str     0x00001d19       0x98 E:/Olimex/Compilers/Microchip/MPLAB C32 1_11B/bin/../lib/gcc/pic32mx/3.4.4/../../../../pic32mx/lib/speed\libmchp_peripheral_32MX795F512H.a(rtcc_set_time_date_lib.o)
                                 0xe2 (size before relaxing)
 .debug_str     0x00001db1       0x88 E:/Olimex/Compilers/Microchip/MPLAB C32 1_11B/bin/../lib/gcc/pic32mx/3.4.4/../../../../pic32mx/lib/speed\libmchp_peripheral_32MX795F512H.a(rtcc_open_lib.o)
                                 0xd2 (size before relaxing)
 .debug_str     0x00001e39       0x8e E:/Olimex/Compilers/Microchip/MPLAB C32 1_11B/bin/../lib/gcc/pic32mx/3.4.4/../../../../pic32mx/lib/speed\libmchp_peripheral_32MX795F512H.a(spi_chn_close_lib.o)
                                 0xd8 (size before relaxing)
 .debug_str     0x00001ec7       0x98 E:/Olimex/Compilers/Microchip/MPLAB C32 1_11B/bin/../lib/gcc/pic32mx/3.4.4/../../../../pic32mx/lib/speed\libmchp_peripheral_32MX795F512H.a(spi_chn_getc_lib.o)
                                 0xe2 (size before relaxing)
 .debug_str     0x00001f5f       0x8c E:/Olimex/Compilers/Microchip/MPLAB C32 1_11B/bin/../lib/gcc/pic32mx/3.4.4/../../../../pic32mx/lib/speed\libmchp_peripheral_32MX795F512H.a(spi_chn_open_lib.o)
                                 0xd6 (size before relaxing)
 .debug_str     0x00001feb       0xa6 E:/Olimex/Compilers/Microchip/MPLAB C32 1_11B/bin/../lib/gcc/pic32mx/3.4.4/../../../../pic32mx/lib/speed\libmchp_peripheral_32MX795F512H.a(spi_chn_putc_lib.o)
                                 0xf0 (size before relaxing)
 .debug_str     0x00002091       0x91 E:/Olimex/Compilers/Microchip/MPLAB C32 1_11B/bin/../lib/gcc/pic32mx/3.4.4/../../../../pic32mx/lib/speed\libmchp_peripheral_32MX795F512H.a(power_sleep_lib.o)
                                 0xdb (size before relaxing)
 .debug_str     0x00002122       0x90 E:/Olimex/Compilers/Microchip/MPLAB C32 1_11B/bin/../lib/gcc/pic32mx/3.4.4/../../../../pic32mx/lib/speed\libmchp_peripheral_32MX795F512H.a(nvm_erase_page_lib.o)
                                 0xda (size before relaxing)
 .debug_str     0x000021b2       0x90 E:/Olimex/Compilers/Microchip/MPLAB C32 1_11B/bin/../lib/gcc/pic32mx/3.4.4/../../../../pic32mx/lib/speed\libmchp_peripheral_32MX795F512H.a(nvm_operation_lib.o)
                                 0xda (size before relaxing)
 .debug_str     0x00002242       0x8e E:/Olimex/Compilers/Microchip/MPLAB C32 1_11B/bin/../lib/gcc/pic32mx/3.4.4/../../../../pic32mx/lib/speed\libmchp_peripheral_32MX795F512H.a(nvm_write_row_lib.o)
                                 0xd8 (size before relaxing)
 .debug_str     0x000022d0       0x90 E:/Olimex/Compilers/Microchip/MPLAB C32 1_11B/bin/../lib/gcc/pic32mx/3.4.4/../../../../pic32mx/lib/speed\libmchp_peripheral_32MX795F512H.a(nvm_write_word_lib.o)
                                 0xda (size before relaxing)
 .debug_str     0x00002360       0x8c E:/Olimex/Compilers/Microchip/MPLAB C32 1_11B/bin/../lib/gcc/pic32mx/3.4.4/../../../../pic32mx/lib/speed\libmchp_peripheral_32MX795F512H.a(dma_chn_open_lib.o)
                                 0xd6 (size before relaxing)
 .debug_str     0x000023ec       0x90 E:/Olimex/Compilers/Microchip/MPLAB C32 1_11B/bin/../lib/gcc/pic32mx/3.4.4/../../../../pic32mx/lib/speed\libmchp_peripheral_32MX795F512H.a(dma_chn_enable_lib.o)
                                 0xda (size before relaxing)
 .debug_str     0x0000247c       0xa4 E:/Olimex/Compilers/Microchip/MPLAB C32 1_11B/bin/../lib/gcc/pic32mx/3.4.4/../../../../pic32mx/lib/speed\libmchp_peripheral_32MX795F512H.a(dma_chn_set_control_flags_lib.o)
                                 0xee (size before relaxing)
 .debug_str     0x00002520       0xb3 E:/Olimex/Compilers/Microchip/MPLAB C32 1_11B/bin/../lib/gcc/pic32mx/3.4.4/../../../../pic32mx/lib/speed\libmchp_peripheral_32MX795F512H.a(dma_chn_write_event_control_flags_lib.o)
                                 0xfd (size before relaxing)
 .debug_str     0x000025d3       0x95 E:/Olimex/Compilers/Microchip/MPLAB C32 1_11B/bin/../lib/gcc/pic32mx/3.4.4/../../../../pic32mx/lib/speed\libmchp_peripheral_32MX795F512H.a(dma_chn_set_txfer_lib.o)
                                 0xdf (size before relaxing)
 .debug_str     0x00002668       0x94 E:/Olimex/Compilers/Microchip/MPLAB C32 1_11B/bin/../lib/gcc/pic32mx/3.4.4/../../../../pic32mx/lib/speed\libmchp_peripheral_32MX795F512H.a(port_reset_pins_lib.o)
                                 0xde (size before relaxing)
 .debug_str     0x000026fc       0xa4 E:/Olimex/Compilers/Microchip/MPLAB C32 1_11B/bin/../lib/gcc/pic32mx/3.4.4/../../../../pic32mx/lib/speed\libmchp_peripheral_32MX795F512H.a(port_set_pins_digital_in_lib.o)
                                 0xee (size before relaxing)
 .debug_str     0x000027a0       0xa6 E:/Olimex/Compilers/Microchip/MPLAB C32 1_11B/bin/../lib/gcc/pic32mx/3.4.4/../../../../pic32mx/lib/speed\libmchp_peripheral_32MX795F512H.a(port_set_pins_digital_out_lib.o)
                                 0xf0 (size before relaxing)
 .debug_str     0x00002846       0xf9 E:/Olimex/Compilers/Microchip/MPLAB C32 1_11B/bin/../lib/gcc/pic32mx/3.4.4/../../../../pic32mx/lib/speed\libmchp_peripheral_32MX795F512H.a(uart_lib.o)
                                0x143 (size before relaxing)
 .debug_str     0x0000293f       0x9e E:/Olimex/Compilers/Microchip/MPLAB C32 1_11B/bin/../lib/gcc/pic32mx/3.4.4/../../../../pic32mx/lib/speed\libmchp_peripheral_32MX795F512H.a(I2CByteWasAcknowledged.o)
                                 0xe8 (size before relaxing)
 .debug_str     0x000029dd       0x8a E:/Olimex/Compilers/Microchip/MPLAB C32 1_11B/bin/../lib/gcc/pic32mx/3.4.4/../../../../pic32mx/lib/speed\libmchp_peripheral_32MX795F512H.a(I2CConfigure.o)
                                 0xd4 (size before relaxing)
 .debug_str     0x00002a67       0x84 E:/Olimex/Compilers/Microchip/MPLAB C32 1_11B/bin/../lib/gcc/pic32mx/3.4.4/../../../../pic32mx/lib/speed\libmchp_peripheral_32MX795F512H.a(I2CEnable.o)
                                 0xce (size before relaxing)
 .debug_str     0x00002aeb       0x86 E:/Olimex/Compilers/Microchip/MPLAB C32 1_11B/bin/../lib/gcc/pic32mx/3.4.4/../../../../pic32mx/lib/speed\libmchp_peripheral_32MX795F512H.a(I2CGetByte.o)
                                 0xd0 (size before relaxing)
 .debug_str     0x00002b71       0xa6 E:/Olimex/Compilers/Microchip/MPLAB C32 1_11B/bin/../lib/gcc/pic32mx/3.4.4/../../../../pic32mx/lib/speed\libmchp_peripheral_32MX795F512H.a(I2CReceivedDataIsAvailable.o)
                                 0xf0 (size before relaxing)
 .debug_str     0x00002c17       0x94 E:/Olimex/Compilers/Microchip/MPLAB C32 1_11B/bin/../lib/gcc/pic32mx/3.4.4/../../../../pic32mx/lib/speed\libmchp_peripheral_32MX795F512H.a(I2CReceiverEnable.o)
                                 0xde (size before relaxing)
 .debug_str     0x00002cab       0x8e E:/Olimex/Compilers/Microchip/MPLAB C32 1_11B/bin/../lib/gcc/pic32mx/3.4.4/../../../../pic32mx/lib/speed\libmchp_peripheral_32MX795F512H.a(I2CRepeatStart.o)
                                 0xd8 (size before relaxing)
 .debug_str     0x00002d39       0x88 E:/Olimex/Compilers/Microchip/MPLAB C32 1_11B/bin/../lib/gcc/pic32mx/3.4.4/../../../../pic32mx/lib/speed\libmchp_peripheral_32MX795F512H.a(I2CSendByte.o)
                                 0xd2 (size before relaxing)
 .debug_str     0x00002dc1       0x90 E:/Olimex/Compilers/Microchip/MPLAB C32 1_11B/bin/../lib/gcc/pic32mx/3.4.4/../../../../pic32mx/lib/speed\libmchp_peripheral_32MX795F512H.a(I2CSetFrequency.o)
                                 0xda (size before relaxing)
 .debug_str     0x00002e51       0x82 E:/Olimex/Compilers/Microchip/MPLAB C32 1_11B/bin/../lib/gcc/pic32mx/3.4.4/../../../../pic32mx/lib/speed\libmchp_peripheral_32MX795F512H.a(I2CStart.o)
                                 0xcc (size before relaxing)
 .debug_str     0x00002ed3       0x80 E:/Olimex/Compilers/Microchip/MPLAB C32 1_11B/bin/../lib/gcc/pic32mx/3.4.4/../../../../pic32mx/lib/speed\libmchp_peripheral_32MX795F512H.a(I2CStop.o)
                                 0xca (size before relaxing)
 .debug_str     0x00002f53       0xaa E:/Olimex/Compilers/Microchip/MPLAB C32 1_11B/bin/../lib/gcc/pic32mx/3.4.4/../../../../pic32mx/lib/speed\libmchp_peripheral_32MX795F512H.a(_rtcc_set_alrm_time_and_date_lib.o)
                                 0xf4 (size before relaxing)
 .debug_str     0x00002ffd       0xa1 E:/Olimex/Compilers/Microchip/MPLAB C32 1_11B/bin/../lib/gcc/pic32mx/3.4.4/../../../../pic32mx/lib/speed\libmchp_peripheral_32MX795F512H.a(_rtcc_set_time_and_date_lib.o)
                                 0xeb (size before relaxing)
 .debug_str     0x0000309e       0xa9 E:/Olimex/Compilers/Microchip/MPLAB C32 1_11B/bin/../lib/gcc/pic32mx/3.4.4/../../../../pic32mx/lib/speed\libmchp_peripheral_32MX795F512H.a(_rtcc_write_in_alarm_window_lib.o)
                                 0xf3 (size before relaxing)
 .debug_str     0x00003147       0xae E:/Olimex/Compilers/Microchip/MPLAB C32 1_11B/bin/../lib/gcc/pic32mx/3.4.4/../../../../pic32mx/lib/speed\libmchp_peripheral_32MX795F512H.a(_rtcc_wait_clock_off_lib.o)
                                 0xf8 (size before relaxing)
 .debug_str     0x000031f5       0x6c E:/Olimex/Compilers/Microchip/MPLAB C32 1_11B/bin/../lib/gcc/pic32mx/3.4.4/../../../../pic32mx/lib/speed\libc.a(isinf.o)
                                 0xbc (size before relaxing)

.debug_loc
 *(.debug_loc)

.debug_macinfo
 *(.debug_macinfo)

.debug_weaknames
 *(.debug_weaknames)

.debug_funcnames
 *(.debug_funcnames)

.debug_typenames
 *(.debug_typenames)

.debug_varnames
 *(.debug_varnames)
                0x0000a410                _min_heap_size = 0xa410
                0x00001800                _min_stack_size = 0x1800
LOAD E:/Olimex/Compilers/Microchip/MPLAB C32 1_11B/bin/../lib/gcc/pic32mx/3.4.4/speed\libgcc.a
START GROUP
LOAD E:/Olimex/Compilers/Microchip/MPLAB C32 1_11B/bin/../lib/gcc/pic32mx/3.4.4/../../../../pic32mx/lib/speed\libdebug.a
LOAD E:/Olimex/Compilers/Microchip/MPLAB C32 1_11B/bin/../lib/gcc/pic32mx/3.4.4/../../../../pic32mx/lib/speed\libc.a
LOAD E:/Olimex/Compilers/Microchip/MPLAB C32 1_11B/bin/../lib/gcc/pic32mx/3.4.4/../../../../pic32mx/lib/speed\libm.a
LOAD E:/Olimex/Compilers/Microchip/MPLAB C32 1_11B/bin/../lib/gcc/pic32mx/3.4.4/../../../../pic32mx/lib/speed\libe.a
LOAD E:/Olimex/Compilers/Microchip/MPLAB C32 1_11B/bin/../lib/gcc/pic32mx/3.4.4/../../../../pic32mx/lib/speed\libdsp.a
LOAD E:/Olimex/Compilers/Microchip/MPLAB C32 1_11B/bin/../lib/gcc/pic32mx/3.4.4/../../../../pic32mx/lib/speed\libmchp_peripheral.a
LOAD E:/Olimex/Compilers/Microchip/MPLAB C32 1_11B/bin/../lib/gcc/pic32mx/3.4.4/../../../../pic32mx/lib/speed\libmchp_peripheral_32MX795F512H.a
END GROUP
LOAD E:/Olimex/Compilers/Microchip/MPLAB C32 1_11B/bin/../lib/gcc/pic32mx/3.4.4/speed\libgcc.a
OUTPUT(dist/OLIMEX/production/Maximite-Olimex.X.production.elf elf32-tradlittlemips)
